(iresult
Result
p1
(dp2
S'startTime'
p3
F1721200946.5937121
sS'solutionSequence'
p4
(lp5
(ccopy_reg
_reconstructor
p6
(csolution
Solution
p7
c__builtin__
object
p8
NtRp9
(dp10
S'rules'
p11
(lp12
(irule
Rule
p13
(dp14
S'leftTriggers'
p15
(irule
Guard
p16
(dp17
S'endOfString'
p18
I00
sS'specifications'
p19
(lp20
(irule
FeatureMatrix
p21
(dp22
S'featuresAndPolarities'
p23
(lp24
sS'representation'
p25
V[  ]
p26
sba(irule
FeatureMatrix
p27
(dp28
g23
(lp29
(I00
S'back'
p30
tp31
a(I00
S'coronal'
p32
tp33
asg25
V[ -back -coronal ]
p34
sbasS'optionalEnding'
p35
I00
sg25
V[ -back -coronal ] [  ]
p36
sS'starred'
p37
I00
sS'side'
p38
S'L'
sbsS'structuralChange'
p39
(irule
OffsetSpecification
p40
(dp41
S'offset'
p42
I-2
sbsS'rightTriggers'
p43
(irule
Guard
p44
(dp45
g18
I00
sg19
(lp46
sg35
I00
sg25
V
sg37
I00
sg38
S'R'
sbsS'focus'
p47
(irule
FeatureMatrix
p48
(dp49
g23
(lp50
sg25
V[  ]
p51
sbsg25
V[  ] ---> -2 / [ -back -coronal ] [  ] _ 
p52
sba(irule
Rule
p53
(dp54
g15
(irule
Guard
p55
(dp56
g18
I00
sg19
(lp57
(irule
FeatureMatrix
p58
(dp59
g23
(lp60
(I01
S'low'
p61
tp62
asg25
V[ +low ]
p63
sba(irule
FeatureMatrix
p64
(dp65
g23
(lp66
sg25
V[  ]
p67
sbasg35
I00
sg25
V[  ] [ +low ]
p68
sg37
I00
sg38
S'L'
sbsg39
(irule
ConstantPhoneme
p69
(dp70
S'p'
Vm
sbsg43
(irule
Guard
p71
(dp72
g18
I00
sg19
(lp73
sg35
I00
sg25
V
sg37
I00
sg38
S'R'
sbsg47
(irule
FeatureMatrix
p74
(dp75
g23
(lp76
sg25
V[  ]
p77
sbsg25
V[  ] ---> m / [  ] [ +low ] _ 
p78
sbasS'prefixes'
p79
(lp80
(imorph
Morph
p81
(dp82
S'phonemes'
p83
(lp84
sba(imorph
Morph
p85
(dp86
g83
(lp87
sbasS'underlyingForms'
p88
(dp89
((imorph
Morph
p90
(dp91
g83
(lp92
Vk
aVa
aVm
asb(imorph
Morph
p93
(dp94
g83
(lp95
Vk
aVa
aVm
aVb
aVa
asbtp96
(imorph
Morph
p97
(dp98
g83
(lp99
Vk
aVa
aVn
asbs((imorph
Morph
p100
(dp101
g83
(lp102
Va
aVt
aVa
aVm
asb(imorph
Morph
p103
(dp104
g83
(lp105
Va
aVt
aVa
aVm
aVb
aVi
asbtp106
(imorph
Morph
p107
(dp108
g83
(lp109
Va
aVt
aVa
aVi
asbs((imorph
Morph
p110
(dp111
g83
(lp112
Vs
aVi
aVn
aVi
aVk
asb(imorph
Morph
p113
(dp114
g83
(lp115
Vs
aVi
aVn
aVi
aVk
aVp
aVa
asbtp116
(imorph
Morph
p117
(dp118
g83
(lp119
Vs
aVi
aVn
aVp
aVk
asbs((imorph
Morph
(dp120
g83
(lp121
Vt^s
p122
aVi
aVl
aVi
aVs
asb(imorph
Morph
(dp123
g83
(lp124
Vt^s
p125
aVi
aVl
aVi
aVs
aVp
aVa
asbtp126
(imorph
Morph
p127
(dp128
g83
(lp129
Vt^s
p130
aVi
aVl
aVp
aVs
asbssS'suffixes'
p131
(lp132
(imorph
Morph
p133
(dp134
g83
(lp135
sba(imorph
Morph
p136
(dp137
g83
(lp138
Vb
aVa
asbasbF128.46080780029297
tp139
a(g6
(g7
g8
NtRp140
(dp141
g11
(lp142
(irule
Rule
p143
(dp144
g15
(irule
Guard
p145
(dp146
g18
I00
sg19
(lp147
(irule
FeatureMatrix
p148
(dp149
g23
(lp150
(I01
S'anterior'
p151
tp152
a(I00
S'coronal'
tp153
asg25
V[ +anterior -coronal ]
p154
sba(irule
FeatureMatrix
p155
(dp156
g23
(lp157
(I00
S'nasal'
tp158
asg25
V[ -nasal ]
p159
sbasg35
I00
sg25
V[ -nasal ] [ +anterior -coronal ]
p160
sg37
I00
sg38
S'L'
sbsg39
(irule
ConstantPhoneme
p161
(dp162
S'p'
Vb
sbsg43
(irule
Guard
p163
(dp164
g18
I00
sg19
(lp165
sg35
I00
sg25
V
sg37
I00
sg38
S'R'
sbsg47
(irule
FeatureMatrix
p166
(dp167
g23
(lp168
sg25
V[  ]
p169
sbsg25
V[  ] ---> b / [ -nasal ] [ +anterior -coronal ] _ 
p170
sba(irule
Rule
p171
(dp172
g15
(irule
Guard
p173
(dp174
g18
I00
sg19
(lp175
(irule
FeatureMatrix
p176
(dp177
g23
(lp178
(I01
S'low'
tp179
asg25
V[ +low ]
p180
sba(irule
FeatureMatrix
p181
(dp182
g23
(lp183
sg25
V[  ]
p184
sbasg35
I00
sg25
V[  ] [ +low ]
p185
sg37
I00
sg38
S'L'
sbsg39
(irule
ConstantPhoneme
p186
(dp187
S'p'
Vm
sbsg43
(irule
Guard
p188
(dp189
g18
I00
sg19
(lp190
sg35
I00
sg25
V
sg37
I00
sg38
S'R'
sbsg47
(irule
FeatureMatrix
p191
(dp192
g23
(lp193
sg25
V[  ]
p194
sbsg25
V[  ] ---> m / [  ] [ +low ] _ 
p195
sba(irule
Rule
p196
(dp197
g15
(irule
Guard
p198
(dp199
g18
I00
sg19
(lp200
(irule
FeatureMatrix
p201
(dp202
g23
(lp203
(I00
S'sonorant'
tp204
asg25
V[ -sonorant ]
p205
sbasg35
I00
sg25
g205
sg37
I00
sg38
S'L'
sbsg39
(irule
ConstantPhoneme
p206
(dp207
S'p'
Va
sbsg43
(irule
Guard
p208
(dp209
g18
I00
sg19
(lp210
sg35
I00
sg25
V
sg37
I00
sg38
S'R'
sbsg47
(irule
FeatureMatrix
p211
(dp212
g23
(lp213
(I01
g151
tp214
a(I01
S'voice'
tp215
asg25
V[ +anterior +voice ]
p216
sbsg25
V[ +anterior +voice ] ---> a / [ -sonorant ] _ 
p217
sbasg79
(lp218
(imorph
Morph
p219
(dp220
g83
(lp221
sba(imorph
Morph
p222
(dp223
g83
(lp224
sbasg88
(dp225
((imorph
Morph
(dp226
g83
(lp227
Va
aVt
aVa
aVm
asb(imorph
Morph
(dp228
g83
(lp229
Va
aVt
aVa
aVm
aVb
aVi
asbtp230
(imorph
Morph
p231
(dp232
g83
(lp233
Va
aVt
aVa
aVm
asbs((imorph
Morph
(dp234
g83
(lp235
Vp
aVu
aVn
aVd^z
p236
aVa
asb(imorph
Morph
(dp237
g83
(lp238
Vp
aVu
aVn
aVd^z
p239
aVa
aVp
aVi
asbtp240
(imorph
Morph
p241
(dp242
g83
(lp243
Vp
aVu
aVn
aVd^z
p244
aVn
asbs((imorph
Morph
(dp245
g83
(lp246
Vt^s
p247
aVi
aVl
aVi
aVs
asb(imorph
Morph
(dp248
g83
(lp249
Vt^s
p250
aVi
aVl
aVi
aVs
aVp
aVa
asbtp251
(imorph
Morph
p252
(dp253
g83
(lp254
Vt^s
p255
aVi
aVl
aVi
aVs
asbs((imorph
Morph
(dp256
g83
(lp257
Vk
aVa
aVm
asb(imorph
Morph
(dp258
g83
(lp259
Vk
aVa
aVm
aVb
aVa
asbtp260
(imorph
Morph
p261
(dp262
g83
(lp263
Vk
aVa
aVb
asbs((imorph
Morph
(dp264
g83
(lp265
Vs
aVa
aVt^s
p266
aVa
asb(imorph
Morph
(dp267
g83
(lp268
Vs
aVa
aVt^s
p269
aVa
aVp
aVi
asbtp270
(imorph
Morph
p271
(dp272
g83
(lp273
Vs
ag244
ag255
aVn
asbs((imorph
Morph
(dp274
g83
(lp275
Vs
aVi
aVn
aVi
aVk
asb(imorph
Morph
(dp276
g83
(lp277
Vs
aVi
aVn
aVi
aVk
aVp
aVa
asbtp278
(imorph
Morph
p279
(dp280
g83
(lp281
Vs
aVi
aVn
aVi
aVk
asbssg131
(lp282
(imorph
Morph
p283
(dp284
g83
(lp285
sba(imorph
Morph
p286
(dp287
g83
(lp288
Vp
aVi
asbasbF532.28269386291504
tp289
asS'problem'
p290
S'Odden_Quechua_Saujas_3'
p291
sS'finalFrontier'
p292
g6
(csolution
Frontier
p293
g8
NtRp294
(dp295
g79
g218
sg131
g282
sg88
g225
sS'frontiers'
p296
(lp297
(lp298
(irule
Rule
p299
(dp300
g15
(irule
Guard
p301
(dp302
g18
I00
sg19
(lp303
(irule
FeatureMatrix
p304
(dp305
g23
(lp306
(I01
S'anterior'
tp307
a(I00
S'coronal'
tp308
asg25
V[ +anterior -coronal ]
p309
sba(irule
FeatureMatrix
p310
(dp311
g23
(lp312
(I00
S'nasal'
tp313
asg25
V[ -nasal ]
p314
sbasg35
I00
sg25
V[ -nasal ] [ +anterior -coronal ]
p315
sg37
I00
sg38
S'L'
sbsg39
(irule
ConstantPhoneme
p316
(dp317
S'p'
Vb
sbsg43
(irule
Guard
p318
(dp319
g18
I00
sg19
(lp320
sg35
I00
sg25
V
sg37
I00
sg38
S'R'
sbsg47
(irule
FeatureMatrix
p321
(dp322
g23
(lp323
sg25
V[  ]
p324
sbsg25
V[  ] ---> b / [ -nasal ] [ +anterior -coronal ] _ 
p325
sba(irule
Rule
p326
(dp327
g15
(irule
Guard
p328
(dp329
g18
I00
sg19
(lp330
(irule
FeatureMatrix
p331
(dp332
g23
(lp333
(I01
S'anterior'
p334
tp335
a(I00
S'continuant'
p336
tp337
a(I00
S'coronal'
p338
tp339
asg25
V[ +anterior -continuant -coronal ]
p340
sba(irule
FeatureMatrix
p341
(dp342
g23
(lp343
(I00
S'nasal'
p344
tp345
asg25
V[ -nasal ]
p346
sbasg35
I00
sg25
V[ -nasal ] [ +anterior -continuant -coronal ]
p347
sg37
I00
sg38
S'L'
sbsg39
(irule
ConstantPhoneme
p348
(dp349
S'p'
Vb
sbsg43
(irule
Guard
p350
(dp351
g18
I00
sg19
(lp352
sg35
I00
sg25
V
sg37
I00
sg38
S'R'
sbsg47
(irule
FeatureMatrix
p353
(dp354
g23
(lp355
sg25
V[  ]
p356
sbsg25
V[  ] ---> b / [ -nasal ] [ +anterior -continuant -coronal ] _ 
p357
sba(irule
Rule
p358
(dp359
g15
(irule
Guard
p360
(dp361
g18
I00
sg19
(lp362
(irule
FeatureMatrix
p363
(dp364
g23
(lp365
(I01
g334
tp366
a(I00
g338
tp367
a(I00
S'low'
p368
tp369
asg25
V[ +anterior -coronal -low ]
p370
sba(irule
FeatureMatrix
p371
(dp372
g23
(lp373
(I00
g344
tp374
asg25
V[ -nasal ]
p375
sbasg35
I00
sg25
V[ -nasal ] [ +anterior -coronal -low ]
p376
sg37
I00
sg38
S'L'
sbsg39
(irule
ConstantPhoneme
p377
(dp378
S'p'
Vb
sbsg43
(irule
Guard
p379
(dp380
g18
I00
sg19
(lp381
sg35
I00
sg25
V
sg37
I00
sg38
S'R'
sbsg47
(irule
FeatureMatrix
p382
(dp383
g23
(lp384
sg25
V[  ]
p385
sbsg25
V[  ] ---> b / [ -nasal ] [ +anterior -coronal -low ] _ 
p386
sba(irule
Rule
p387
(dp388
g15
(irule
Guard
p389
(dp390
g18
I00
sg19
(lp391
(irule
FeatureMatrix
p392
(dp393
g23
(lp394
(I01
g334
tp395
a(I00
g338
tp396
asg25
V[ +anterior -coronal ]
p397
sba(irule
FeatureMatrix
p398
(dp399
g23
(lp400
(I00
g344
tp401
asg25
V[ -nasal ]
p402
sbasg35
I00
sg25
V[ -nasal ] [ +anterior -coronal ]
p403
sg37
I00
sg38
S'L'
sbsg39
(irule
ConstantPhoneme
p404
(dp405
S'p'
Vb
sbsg43
(irule
Guard
p406
(dp407
g18
I00
sg19
(lp408
sg35
I00
sg25
V
sg37
I00
sg38
S'R'
sbsg47
(irule
FeatureMatrix
p409
(dp410
g23
(lp411
(I00
g338
tp412
asg25
V[ -coronal ]
p413
sbsg25
V[ -coronal ] ---> b / [ -nasal ] [ +anterior -coronal ] _ 
p414
sba(irule
Rule
p415
(dp416
g15
(irule
Guard
p417
(dp418
g18
I00
sg19
(lp419
(irule
FeatureMatrix
p420
(dp421
g23
(lp422
(I01
g334
tp423
a(I00
g338
tp424
asg25
V[ +anterior -coronal ]
p425
sba(irule
FeatureMatrix
p426
(dp427
g23
(lp428
(I00
g344
tp429
asg25
V[ -nasal ]
p430
sbasg35
I00
sg25
V[ -nasal ] [ +anterior -coronal ]
p431
sg37
I00
sg38
S'L'
sbsg39
(irule
ConstantPhoneme
p432
(dp433
S'p'
Vb
sbsg43
(irule
Guard
p434
(dp435
g18
I00
sg19
(lp436
sg35
I00
sg25
V
sg37
I00
sg38
S'R'
sbsg47
(irule
FeatureMatrix
p437
(dp438
g23
(lp439
(I00
S'sibilant'
p440
tp441
asg25
V[ -sibilant ]
p442
sbsg25
V[ -sibilant ] ---> b / [ -nasal ] [ +anterior -coronal ] _ 
p443
sba(irule
Rule
p444
(dp445
g15
(irule
Guard
p446
(dp447
g18
I00
sg19
(lp448
(irule
FeatureMatrix
p449
(dp450
g23
(lp451
(I01
g334
tp452
a(I00
g338
tp453
asg25
V[ +anterior -coronal ]
p454
sba(irule
FeatureMatrix
p455
(dp456
g23
(lp457
(I00
g344
tp458
asg25
V[ -nasal ]
p459
sbasg35
I00
sg25
V[ -nasal ] [ +anterior -coronal ]
p460
sg37
I00
sg38
S'L'
sbsg39
(irule
ConstantPhoneme
p461
(dp462
S'p'
Vb
sbsg43
(irule
Guard
p463
(dp464
g18
I00
sg19
(lp465
sg35
I00
sg25
V
sg37
I00
sg38
S'R'
sbsg47
(irule
FeatureMatrix
p466
(dp467
g23
(lp468
(I00
S'rounded'
p469
tp470
asg25
V[ -rounded ]
p471
sbsg25
V[ -rounded ] ---> b / [ -nasal ] [ +anterior -coronal ] _ 
p472
sba(irule
Rule
p473
(dp474
g15
(irule
Guard
p475
(dp476
g18
I00
sg19
(lp477
(irule
FeatureMatrix
p478
(dp479
g23
(lp480
(I01
g334
tp481
a(I00
g338
tp482
asg25
V[ +anterior -coronal ]
p483
sba(irule
FeatureMatrix
p484
(dp485
g23
(lp486
(I00
g469
tp487
a(I00
g344
tp488
asg25
V[ -nasal -rounded ]
p489
sbasg35
I00
sg25
V[ -nasal -rounded ] [ +anterior -coronal ]
p490
sg37
I00
sg38
S'L'
sbsg39
(irule
ConstantPhoneme
p491
(dp492
S'p'
Vb
sbsg43
(irule
Guard
p493
(dp494
g18
I00
sg19
(lp495
sg35
I00
sg25
V
sg37
I00
sg38
S'R'
sbsg47
(irule
FeatureMatrix
p496
(dp497
g23
(lp498
sg25
V[  ]
p499
sbsg25
V[  ] ---> b / [ -nasal -rounded ] [ +anterior -coronal ] _ 
p500
sba(irule
Rule
p501
(dp502
g15
(irule
Guard
p503
(dp504
g18
I00
sg19
(lp505
(irule
FeatureMatrix
p506
(dp507
g23
(lp508
(I01
g334
tp509
a(I00
g338
tp510
a(I00
g440
tp511
asg25
V[ +anterior -coronal -sibilant ]
p512
sba(irule
FeatureMatrix
p513
(dp514
g23
(lp515
(I00
g344
tp516
asg25
V[ -nasal ]
p517
sbasg35
I00
sg25
V[ -nasal ] [ +anterior -coronal -sibilant ]
p518
sg37
I00
sg38
S'L'
sbsg39
(irule
ConstantPhoneme
p519
(dp520
S'p'
Vb
sbsg43
(irule
Guard
p521
(dp522
g18
I00
sg19
(lp523
sg35
I00
sg25
V
sg37
I00
sg38
S'R'
sbsg47
(irule
FeatureMatrix
p524
(dp525
g23
(lp526
sg25
V[  ]
p527
sbsg25
V[  ] ---> b / [ -nasal ] [ +anterior -coronal -sibilant ] _ 
p528
sba(irule
Rule
p529
(dp530
g15
(irule
Guard
p531
(dp532
g18
I00
sg19
(lp533
(irule
FeatureMatrix
p534
(dp535
g23
(lp536
(I01
g334
tp537
a(I00
g338
tp538
asg25
V[ +anterior -coronal ]
p539
sba(irule
FeatureMatrix
p540
(dp541
g23
(lp542
(I00
S'lateral'
p543
tp544
a(I00
g344
tp545
asg25
V[ -lateral -nasal ]
p546
sbasg35
I00
sg25
V[ -lateral -nasal ] [ +anterior -coronal ]
p547
sg37
I00
sg38
S'L'
sbsg39
(irule
ConstantPhoneme
p548
(dp549
S'p'
Vb
sbsg43
(irule
Guard
p550
(dp551
g18
I00
sg19
(lp552
sg35
I00
sg25
V
sg37
I00
sg38
S'R'
sbsg47
(irule
FeatureMatrix
p553
(dp554
g23
(lp555
sg25
V[  ]
p556
sbsg25
V[  ] ---> b / [ -lateral -nasal ] [ +anterior -coronal ] _ 
p557
sba(irule
Rule
p558
(dp559
g15
(irule
Guard
p560
(dp561
g18
I00
sg19
(lp562
(irule
FeatureMatrix
p563
(dp564
g23
(lp565
(I01
g334
tp566
a(I00
g338
tp567
asg25
V[ +anterior -coronal ]
p568
sba(irule
FeatureMatrix
p569
(dp570
g23
(lp571
(I00
S'liquid'
p572
tp573
a(I00
g344
tp574
asg25
V[ -liquid -nasal ]
p575
sbasg35
I00
sg25
V[ -liquid -nasal ] [ +anterior -coronal ]
p576
sg37
I00
sg38
S'L'
sbsg39
(irule
ConstantPhoneme
p577
(dp578
S'p'
Vb
sbsg43
(irule
Guard
p579
(dp580
g18
I00
sg19
(lp581
sg35
I00
sg25
V
sg37
I00
sg38
S'R'
sbsg47
(irule
FeatureMatrix
p582
(dp583
g23
(lp584
sg25
V[  ]
p585
sbsg25
V[  ] ---> b / [ -liquid -nasal ] [ +anterior -coronal ] _ 
p586
sba(irule
Rule
p587
(dp588
g15
(irule
Guard
p589
(dp590
g18
I00
sg19
(lp591
(irule
FeatureMatrix
p592
(dp593
g23
(lp594
(I01
g334
tp595
a(I00
g469
tp596
a(I00
g338
tp597
asg25
V[ +anterior -coronal -rounded ]
p598
sba(irule
FeatureMatrix
p599
(dp600
g23
(lp601
(I00
g344
tp602
asg25
V[ -nasal ]
p603
sbasg35
I00
sg25
V[ -nasal ] [ +anterior -coronal -rounded ]
p604
sg37
I00
sg38
S'L'
sbsg39
(irule
ConstantPhoneme
p605
(dp606
S'p'
Vb
sbsg43
(irule
Guard
p607
(dp608
g18
I00
sg19
(lp609
sg35
I00
sg25
V
sg37
I00
sg38
S'R'
sbsg47
(irule
FeatureMatrix
p610
(dp611
g23
(lp612
sg25
V[  ]
p613
sbsg25
V[  ] ---> b / [ -nasal ] [ +anterior -coronal -rounded ] _ 
p614
sba(irule
Rule
p615
(dp616
g15
(irule
Guard
p617
(dp618
g18
I00
sg19
(lp619
(irule
FeatureMatrix
p620
(dp621
g23
(lp622
(I01
g334
tp623
a(I00
g338
tp624
asg25
V[ +anterior -coronal ]
p625
sba(irule
FeatureMatrix
p626
(dp627
g23
(lp628
(I00
g344
tp629
asg25
V[ -nasal ]
p630
sbasg35
I00
sg25
V[ -nasal ] [ +anterior -coronal ]
p631
sg37
I00
sg38
S'L'
sbsg39
(irule
ConstantPhoneme
p632
(dp633
S'p'
Vb
sbsg43
(irule
Guard
p634
(dp635
g18
I00
sg19
(lp636
sg35
I00
sg25
V
sg37
I00
sg38
S'R'
sbsg47
(irule
FeatureMatrix
p637
(dp638
g23
(lp639
(I00
g572
tp640
asg25
V[ -liquid ]
p641
sbsg25
V[ -liquid ] ---> b / [ -nasal ] [ +anterior -coronal ] _ 
p642
sba(irule
Rule
p643
(dp644
g15
(irule
Guard
p645
(dp646
g18
I00
sg19
(lp647
(irule
FeatureMatrix
p648
(dp649
g23
(lp650
(I01
g334
tp651
a(I00
g338
tp652
asg25
V[ +anterior -coronal ]
p653
sba(irule
FeatureMatrix
p654
(dp655
g23
(lp656
(I00
g344
tp657
asg25
V[ -nasal ]
p658
sbasg35
I00
sg25
V[ -nasal ] [ +anterior -coronal ]
p659
sg37
I00
sg38
S'L'
sbsg39
(irule
ConstantPhoneme
p660
(dp661
S'p'
Vb
sbsg43
(irule
Guard
p662
(dp663
g18
I00
sg19
(lp664
sg35
I00
sg25
V
sg37
I00
sg38
S'R'
sbsg47
(irule
FeatureMatrix
p665
(dp666
g23
(lp667
(I00
g543
tp668
asg25
V[ -lateral ]
p669
sbsg25
V[ -lateral ] ---> b / [ -nasal ] [ +anterior -coronal ] _ 
p670
sba(irule
Rule
p671
(dp672
g15
(irule
Guard
p673
(dp674
g18
I00
sg19
(lp675
(irule
FeatureMatrix
p676
(dp677
g23
(lp678
(I01
g334
tp679
a(I00
g338
tp680
asg25
V[ +anterior -coronal ]
p681
sba(irule
FeatureMatrix
p682
(dp683
g23
(lp684
(I00
g344
tp685
asg25
V[ -nasal ]
p686
sbasg35
I00
sg25
V[ -nasal ] [ +anterior -coronal ]
p687
sg37
I00
sg38
S'L'
sbsg39
(irule
ConstantPhoneme
p688
(dp689
S'p'
Vb
sbsg43
(irule
Guard
p690
(dp691
g18
I00
sg19
(lp692
sg35
I00
sg25
V
sg37
I00
sg38
S'R'
sbsg47
(irule
FeatureMatrix
p693
(dp694
g23
(lp695
(I00
g368
tp696
asg25
V[ -low ]
p697
sbsg25
V[ -low ] ---> b / [ -nasal ] [ +anterior -coronal ] _ 
p698
sba(irule
Rule
p699
(dp700
g15
(irule
Guard
p701
(dp702
g18
I00
sg19
(lp703
(irule
FeatureMatrix
p704
(dp705
g23
(lp706
(I01
g334
tp707
a(I00
g338
tp708
a(I00
S'vowel'
p709
tp710
asg25
V[ +anterior -coronal -vowel ]
p711
sba(irule
FeatureMatrix
p712
(dp713
g23
(lp714
(I00
g344
tp715
asg25
V[ -nasal ]
p716
sbasg35
I00
sg25
V[ -nasal ] [ +anterior -coronal -vowel ]
p717
sg37
I00
sg38
S'L'
sbsg39
(irule
ConstantPhoneme
p718
(dp719
S'p'
Vb
sbsg43
(irule
Guard
p720
(dp721
g18
I00
sg19
(lp722
sg35
I00
sg25
V
sg37
I00
sg38
S'R'
sbsg47
(irule
FeatureMatrix
p723
(dp724
g23
(lp725
sg25
V[  ]
p726
sbsg25
V[  ] ---> b / [ -nasal ] [ +anterior -coronal -vowel ] _ 
p727
sba(irule
Rule
p728
(dp729
g15
(irule
Guard
p730
(dp731
g18
I00
sg19
(lp732
(irule
FeatureMatrix
p733
(dp734
g23
(lp735
(I01
g334
tp736
a(I00
g338
tp737
asg25
V[ +anterior -coronal ]
p738
sba(irule
FeatureMatrix
p739
(dp740
g23
(lp741
(I00
S'delayedRelease'
p742
tp743
a(I00
g344
tp744
asg25
V[ -delayedRelease -nasal ]
p745
sbasg35
I00
sg25
V[ -delayedRelease -nasal ] [ +anterior -coronal ]
p746
sg37
I00
sg38
S'L'
sbsg39
(irule
ConstantPhoneme
p747
(dp748
S'p'
Vb
sbsg43
(irule
Guard
p749
(dp750
g18
I00
sg19
(lp751
sg35
I00
sg25
V
sg37
I00
sg38
S'R'
sbsg47
(irule
FeatureMatrix
p752
(dp753
g23
(lp754
sg25
V[  ]
p755
sbsg25
V[  ] ---> b / [ -delayedRelease -nasal ] [ +anterior -coronal ] _ 
p756
sba(irule
Rule
p757
(dp758
g15
(irule
Guard
p759
(dp760
g18
I00
sg19
(lp761
(irule
FeatureMatrix
p762
(dp763
g23
(lp764
(I01
g334
tp765
a(I00
g338
tp766
asg25
V[ +anterior -coronal ]
p767
sba(irule
FeatureMatrix
p768
(dp769
g23
(lp770
(I00
g344
tp771
asg25
V[ -nasal ]
p772
sbasg35
I00
sg25
V[ -nasal ] [ +anterior -coronal ]
p773
sg37
I00
sg38
S'L'
sbsg39
(irule
ConstantPhoneme
p774
(dp775
S'p'
Vb
sbsg43
(irule
Guard
p776
(dp777
g18
I00
sg19
(lp778
sg35
I00
sg25
V
sg37
I00
sg38
S'R'
sbsg47
(irule
FeatureMatrix
p779
(dp780
g23
(lp781
(I00
g742
tp782
asg25
V[ -delayedRelease ]
p783
sbsg25
V[ -delayedRelease ] ---> b / [ -nasal ] [ +anterior -coronal ] _ 
p784
sba(irule
Rule
p785
(dp786
g15
(irule
Guard
p787
(dp788
g18
I00
sg19
(lp789
(irule
FeatureMatrix
p790
(dp791
g23
(lp792
(I01
g334
tp793
a(I00
g338
tp794
a(I00
S'tense'
p795
tp796
asg25
V[ +anterior -coronal -tense ]
p797
sba(irule
FeatureMatrix
p798
(dp799
g23
(lp800
(I00
g344
tp801
asg25
V[ -nasal ]
p802
sbasg35
I00
sg25
V[ -nasal ] [ +anterior -coronal -tense ]
p803
sg37
I00
sg38
S'L'
sbsg39
(irule
ConstantPhoneme
p804
(dp805
S'p'
Vb
sbsg43
(irule
Guard
p806
(dp807
g18
I00
sg19
(lp808
sg35
I00
sg25
V
sg37
I00
sg38
S'R'
sbsg47
(irule
FeatureMatrix
p809
(dp810
g23
(lp811
sg25
V[  ]
p812
sbsg25
V[  ] ---> b / [ -nasal ] [ +anterior -coronal -tense ] _ 
p813
sba(irule
Rule
p814
(dp815
g15
(irule
Guard
p816
(dp817
g18
I00
sg19
(lp818
(irule
FeatureMatrix
p819
(dp820
g23
(lp821
(I01
g334
tp822
a(I00
g572
tp823
a(I00
g338
tp824
asg25
V[ +anterior -coronal -liquid ]
p825
sba(irule
FeatureMatrix
p826
(dp827
g23
(lp828
(I00
g344
tp829
asg25
V[ -nasal ]
p830
sbasg35
I00
sg25
V[ -nasal ] [ +anterior -coronal -liquid ]
p831
sg37
I00
sg38
S'L'
sbsg39
(irule
ConstantPhoneme
p832
(dp833
S'p'
Vb
sbsg43
(irule
Guard
p834
(dp835
g18
I00
sg19
(lp836
sg35
I00
sg25
V
sg37
I00
sg38
S'R'
sbsg47
(irule
FeatureMatrix
p837
(dp838
g23
(lp839
sg25
V[  ]
p840
sbsg25
V[  ] ---> b / [ -nasal ] [ +anterior -coronal -liquid ] _ 
p841
sba(irule
Rule
p842
(dp843
g15
(irule
Guard
p844
(dp845
g18
I00
sg19
(lp846
(irule
FeatureMatrix
p847
(dp848
g23
(lp849
(I01
g334
tp850
a(I00
g543
tp851
a(I00
g338
tp852
asg25
V[ +anterior -coronal -lateral ]
p853
sba(irule
FeatureMatrix
p854
(dp855
g23
(lp856
(I00
g344
tp857
asg25
V[ -nasal ]
p858
sbasg35
I00
sg25
V[ -nasal ] [ +anterior -coronal -lateral ]
p859
sg37
I00
sg38
S'L'
sbsg39
(irule
ConstantPhoneme
p860
(dp861
S'p'
Vb
sbsg43
(irule
Guard
p862
(dp863
g18
I00
sg19
(lp864
sg35
I00
sg25
V
sg37
I00
sg38
S'R'
sbsg47
(irule
FeatureMatrix
p865
(dp866
g23
(lp867
sg25
V[  ]
p868
sbsg25
V[  ] ---> b / [ -nasal ] [ +anterior -coronal -lateral ] _ 
p869
sba(irule
Rule
p870
(dp871
g15
(irule
Guard
p872
(dp873
g18
I00
sg19
(lp874
(irule
FeatureMatrix
p875
(dp876
g23
(lp877
(I01
g334
tp878
a(I00
g742
tp879
a(I00
g338
tp880
asg25
V[ +anterior -coronal -delayedRelease ]
p881
sba(irule
FeatureMatrix
p882
(dp883
g23
(lp884
(I00
g344
tp885
asg25
V[ -nasal ]
p886
sbasg35
I00
sg25
V[ -nasal ] [ +anterior -coronal -delayedRelease ]
p887
sg37
I00
sg38
S'L'
sbsg39
(irule
ConstantPhoneme
p888
(dp889
S'p'
Vb
sbsg43
(irule
Guard
p890
(dp891
g18
I00
sg19
(lp892
sg35
I00
sg25
V
sg37
I00
sg38
S'R'
sbsg47
(irule
FeatureMatrix
p893
(dp894
g23
(lp895
sg25
V[  ]
p896
sbsg25
V[  ] ---> b / [ -nasal ] [ +anterior -coronal -delayedRelease ] _ 
p897
sba(irule
Rule
p898
(dp899
g15
(irule
Guard
p900
(dp901
g18
I00
sg19
(lp902
(irule
FeatureMatrix
p903
(dp904
g23
(lp905
(I01
g334
tp906
a(I00
g338
tp907
asg25
V[ +anterior -coronal ]
p908
sba(irule
FeatureMatrix
p909
(dp910
g23
(lp911
(I00
g344
tp912
asg25
V[ -nasal ]
p913
sbasg35
I00
sg25
V[ -nasal ] [ +anterior -coronal ]
p914
sg37
I00
sg38
S'L'
sbsg39
(irule
ConstantPhoneme
p915
(dp916
S'p'
Vb
sbsg43
(irule
Guard
p917
(dp918
g18
I00
sg19
(lp919
sg35
I00
sg25
V
sg37
I00
sg38
S'R'
sbsg47
(irule
FeatureMatrix
p920
(dp921
g23
(lp922
(I00
S'back'
p923
tp924
asg25
V[ -back ]
p925
sbsg25
V[ -back ] ---> b / [ -nasal ] [ +anterior -coronal ] _ 
p926
sba(irule
Rule
p927
(dp928
g15
(irule
Guard
p929
(dp930
g18
I00
sg19
(lp931
(irule
FeatureMatrix
p932
(dp933
g23
(lp934
(I01
g334
tp935
a(I00
g338
tp936
asg25
V[ +anterior -coronal ]
p937
sba(irule
FeatureMatrix
p938
(dp939
g23
(lp940
(I00
g344
tp941
asg25
V[ -nasal ]
p942
sbasg35
I00
sg25
V[ -nasal ] [ +anterior -coronal ]
p943
sg37
I00
sg38
S'L'
sbsg39
(irule
ConstantPhoneme
p944
(dp945
S'p'
Vb
sbsg43
(irule
Guard
p946
(dp947
g18
I00
sg19
(lp948
sg35
I00
sg25
V
sg37
I00
sg38
S'R'
sbsg47
(irule
FeatureMatrix
p949
(dp950
g23
(lp951
(I00
g344
tp952
asg25
V[ -nasal ]
p953
sbsg25
V[ -nasal ] ---> b / [ -nasal ] [ +anterior -coronal ] _ 
p954
sba(irule
Rule
p955
(dp956
g15
(irule
Guard
p957
(dp958
g18
I00
sg19
(lp959
(irule
FeatureMatrix
p960
(dp961
g23
(lp962
(I00
g336
tp963
a(I00
g923
tp964
a(I00
g338
tp965
asg25
V[ -back -continuant -coronal ]
p966
sba(irule
FeatureMatrix
p967
(dp968
g23
(lp969
(I00
g344
tp970
asg25
V[ -nasal ]
p971
sbasg35
I00
sg25
V[ -nasal ] [ -back -continuant -coronal ]
p972
sg37
I00
sg38
S'L'
sbsg39
(irule
ConstantPhoneme
p973
(dp974
S'p'
Vb
sbsg43
(irule
Guard
p975
(dp976
g18
I00
sg19
(lp977
sg35
I00
sg25
V
sg37
I00
sg38
S'R'
sbsg47
(irule
FeatureMatrix
p978
(dp979
g23
(lp980
sg25
V[  ]
p981
sbsg25
V[  ] ---> b / [ -nasal ] [ -back -continuant -coronal ] _ 
p982
sba(irule
Rule
p983
(dp984
g15
(irule
Guard
p985
(dp986
g18
I00
sg19
(lp987
(irule
FeatureMatrix
p988
(dp989
g23
(lp990
(I01
g334
tp991
a(I00
g923
tp992
a(I00
g338
tp993
asg25
V[ +anterior -back -coronal ]
p994
sba(irule
FeatureMatrix
p995
(dp996
g23
(lp997
(I00
g344
tp998
asg25
V[ -nasal ]
p999
sbasg35
I00
sg25
V[ -nasal ] [ +anterior -back -coronal ]
p1000
sg37
I00
sg38
S'L'
sbsg39
(irule
ConstantPhoneme
p1001
(dp1002
S'p'
Vb
sbsg43
(irule
Guard
p1003
(dp1004
g18
I00
sg19
(lp1005
sg35
I00
sg25
V
sg37
I00
sg38
S'R'
sbsg47
(irule
FeatureMatrix
p1006
(dp1007
g23
(lp1008
sg25
V[  ]
p1009
sbsg25
V[  ] ---> b / [ -nasal ] [ +anterior -back -coronal ] _ 
p1010
sba(irule
Rule
p1011
(dp1012
g15
(irule
Guard
p1013
(dp1014
g18
I00
sg19
(lp1015
(irule
FeatureMatrix
p1016
(dp1017
g23
(lp1018
(I00
g923
tp1019
a(I00
g338
tp1020
asg25
V[ -back -coronal ]
p1021
sba(irule
FeatureMatrix
p1022
(dp1023
g23
(lp1024
(I00
g344
tp1025
asg25
V[ -nasal ]
p1026
sbasg35
I00
sg25
V[ -nasal ] [ -back -coronal ]
p1027
sg37
I00
sg38
S'L'
sbsg39
(irule
ConstantPhoneme
p1028
(dp1029
S'p'
Vb
sbsg43
(irule
Guard
p1030
(dp1031
g18
I00
sg19
(lp1032
sg35
I00
sg25
V
sg37
I00
sg38
S'R'
sbsg47
(irule
FeatureMatrix
p1033
(dp1034
g23
(lp1035
(I00
g338
tp1036
asg25
V[ -coronal ]
p1037
sbsg25
V[ -coronal ] ---> b / [ -nasal ] [ -back -coronal ] _ 
p1038
sba(irule
Rule
p1039
(dp1040
g15
(irule
Guard
p1041
(dp1042
g18
I00
sg19
(lp1043
(irule
FeatureMatrix
p1044
(dp1045
g23
(lp1046
(I00
g923
tp1047
a(I00
g338
tp1048
a(I00
g795
tp1049
asg25
V[ -back -coronal -tense ]
p1050
sba(irule
FeatureMatrix
p1051
(dp1052
g23
(lp1053
(I00
g344
tp1054
asg25
V[ -nasal ]
p1055
sbasg35
I00
sg25
V[ -nasal ] [ -back -coronal -tense ]
p1056
sg37
I00
sg38
S'L'
sbsg39
(irule
ConstantPhoneme
p1057
(dp1058
S'p'
Vb
sbsg43
(irule
Guard
p1059
(dp1060
g18
I00
sg19
(lp1061
sg35
I00
sg25
V
sg37
I00
sg38
S'R'
sbsg47
(irule
FeatureMatrix
p1062
(dp1063
g23
(lp1064
sg25
V[  ]
p1065
sbsg25
V[  ] ---> b / [ -nasal ] [ -back -coronal -tense ] _ 
p1066
sba(irule
Rule
p1067
(dp1068
g15
(irule
Guard
p1069
(dp1070
g18
I00
sg19
(lp1071
(irule
FeatureMatrix
p1072
(dp1073
g23
(lp1074
(I01
g334
tp1075
a(I00
S'high'
p1076
tp1077
a(I00
g338
tp1078
asg25
V[ +anterior -coronal -high ]
p1079
sba(irule
FeatureMatrix
p1080
(dp1081
g23
(lp1082
(I00
g344
tp1083
asg25
V[ -nasal ]
p1084
sbasg35
I00
sg25
V[ -nasal ] [ +anterior -coronal -high ]
p1085
sg37
I00
sg38
S'L'
sbsg39
(irule
ConstantPhoneme
p1086
(dp1087
S'p'
Vb
sbsg43
(irule
Guard
p1088
(dp1089
g18
I00
sg19
(lp1090
sg35
I00
sg25
V
sg37
I00
sg38
S'R'
sbsg47
(irule
FeatureMatrix
p1091
(dp1092
g23
(lp1093
sg25
V[  ]
p1094
sbsg25
V[  ] ---> b / [ -nasal ] [ +anterior -coronal -high ] _ 
p1095
sba(irule
Rule
p1096
(dp1097
g15
(irule
Guard
p1098
(dp1099
g18
I00
sg19
(lp1100
(irule
FeatureMatrix
p1101
(dp1102
g23
(lp1103
(I00
g336
tp1104
a(I00
g1076
tp1105
a(I00
g338
tp1106
asg25
V[ -continuant -coronal -high ]
p1107
sba(irule
FeatureMatrix
p1108
(dp1109
g23
(lp1110
(I00
g344
tp1111
asg25
V[ -nasal ]
p1112
sbasg35
I00
sg25
V[ -nasal ] [ -continuant -coronal -high ]
p1113
sg37
I00
sg38
S'L'
sbsg39
(irule
ConstantPhoneme
p1114
(dp1115
S'p'
Vb
sbsg43
(irule
Guard
p1116
(dp1117
g18
I00
sg19
(lp1118
sg35
I00
sg25
V
sg37
I00
sg38
S'R'
sbsg47
(irule
FeatureMatrix
p1119
(dp1120
g23
(lp1121
sg25
V[  ]
p1122
sbsg25
V[  ] ---> b / [ -nasal ] [ -continuant -coronal -high ] _ 
p1123
sba(irule
Rule
p1124
(dp1125
g15
(irule
Guard
p1126
(dp1127
g18
I00
sg19
(lp1128
(irule
FeatureMatrix
p1129
(dp1130
g23
(lp1131
(I00
g1076
tp1132
a(I00
g338
tp1133
asg25
V[ -coronal -high ]
p1134
sba(irule
FeatureMatrix
p1135
(dp1136
g23
(lp1137
(I00
g344
tp1138
asg25
V[ -nasal ]
p1139
sbasg35
I00
sg25
V[ -nasal ] [ -coronal -high ]
p1140
sg37
I00
sg38
S'L'
sbsg39
(irule
ConstantPhoneme
p1141
(dp1142
S'p'
Vb
sbsg43
(irule
Guard
p1143
(dp1144
g18
I00
sg19
(lp1145
sg35
I00
sg25
V
sg37
I00
sg38
S'R'
sbsg47
(irule
FeatureMatrix
p1146
(dp1147
g23
(lp1148
(I00
g344
tp1149
asg25
V[ -nasal ]
p1150
sbsg25
V[ -nasal ] ---> b / [ -nasal ] [ -coronal -high ] _ 
p1151
sba(irule
Rule
p1152
(dp1153
g15
(irule
Guard
p1154
(dp1155
g18
I00
sg19
(lp1156
(irule
FeatureMatrix
p1157
(dp1158
g23
(lp1159
(I00
g923
tp1160
a(I00
g1076
tp1161
a(I00
g338
tp1162
asg25
V[ -back -coronal -high ]
p1163
sba(irule
FeatureMatrix
p1164
(dp1165
g23
(lp1166
(I00
g344
tp1167
asg25
V[ -nasal ]
p1168
sbasg35
I00
sg25
V[ -nasal ] [ -back -coronal -high ]
p1169
sg37
I00
sg38
S'L'
sbsg39
(irule
ConstantPhoneme
p1170
(dp1171
S'p'
Vb
sbsg43
(irule
Guard
p1172
(dp1173
g18
I00
sg19
(lp1174
sg35
I00
sg25
V
sg37
I00
sg38
S'R'
sbsg47
(irule
FeatureMatrix
p1175
(dp1176
g23
(lp1177
sg25
V[  ]
p1178
sbsg25
V[  ] ---> b / [ -nasal ] [ -back -coronal -high ] _ 
p1179
sba(irule
Rule
p1180
(dp1181
g15
(irule
Guard
p1182
(dp1183
g18
I00
sg19
(lp1184
(irule
FeatureMatrix
p1185
(dp1186
g23
(lp1187
(I00
g1076
tp1188
a(I00
g338
tp1189
a(I00
g368
tp1190
asg25
V[ -coronal -high -low ]
p1191
sba(irule
FeatureMatrix
p1192
(dp1193
g23
(lp1194
(I00
g344
tp1195
asg25
V[ -nasal ]
p1196
sbasg35
I00
sg25
V[ -nasal ] [ -coronal -high -low ]
p1197
sg37
I00
sg38
S'L'
sbsg39
(irule
ConstantPhoneme
p1198
(dp1199
S'p'
Vb
sbsg43
(irule
Guard
p1200
(dp1201
g18
I00
sg19
(lp1202
sg35
I00
sg25
V
sg37
I00
sg38
S'R'
sbsg47
(irule
FeatureMatrix
p1203
(dp1204
g23
(lp1205
sg25
V[  ]
p1206
sbsg25
V[  ] ---> b / [ -nasal ] [ -coronal -high -low ] _ 
p1207
sba(irule
Rule
p1208
(dp1209
g15
(irule
Guard
p1210
(dp1211
g18
I00
sg19
(lp1212
(irule
FeatureMatrix
p1213
(dp1214
g23
(lp1215
(I00
g1076
tp1216
a(I00
g338
tp1217
a(I00
g709
tp1218
asg25
V[ -coronal -high -vowel ]
p1219
sba(irule
FeatureMatrix
p1220
(dp1221
g23
(lp1222
(I00
g344
tp1223
asg25
V[ -nasal ]
p1224
sbasg35
I00
sg25
V[ -nasal ] [ -coronal -high -vowel ]
p1225
sg37
I00
sg38
S'L'
sbsg39
(irule
ConstantPhoneme
p1226
(dp1227
S'p'
Vb
sbsg43
(irule
Guard
p1228
(dp1229
g18
I00
sg19
(lp1230
sg35
I00
sg25
V
sg37
I00
sg38
S'R'
sbsg47
(irule
FeatureMatrix
p1231
(dp1232
g23
(lp1233
sg25
V[  ]
p1234
sbsg25
V[  ] ---> b / [ -nasal ] [ -coronal -high -vowel ] _ 
p1235
sba(irule
Rule
p1236
(dp1237
g15
(irule
Guard
p1238
(dp1239
g18
I00
sg19
(lp1240
(irule
FeatureMatrix
p1241
(dp1242
g23
(lp1243
(I00
g923
tp1244
a(I00
g338
tp1245
a(I00
g709
tp1246
asg25
V[ -back -coronal -vowel ]
p1247
sba(irule
FeatureMatrix
p1248
(dp1249
g23
(lp1250
(I00
g344
tp1251
asg25
V[ -nasal ]
p1252
sbasg35
I00
sg25
V[ -nasal ] [ -back -coronal -vowel ]
p1253
sg37
I00
sg38
S'L'
sbsg39
(irule
ConstantPhoneme
p1254
(dp1255
S'p'
Vb
sbsg43
(irule
Guard
p1256
(dp1257
g18
I00
sg19
(lp1258
sg35
I00
sg25
V
sg37
I00
sg38
S'R'
sbsg47
(irule
FeatureMatrix
p1259
(dp1260
g23
(lp1261
sg25
V[  ]
p1262
sbsg25
V[  ] ---> b / [ -nasal ] [ -back -coronal -vowel ] _ 
p1263
sba(irule
Rule
p1264
(dp1265
g15
(irule
Guard
p1266
(dp1267
g18
I00
sg19
(lp1268
(irule
FeatureMatrix
p1269
(dp1270
g23
(lp1271
(I00
g1076
tp1272
a(I00
g338
tp1273
a(I00
g795
tp1274
asg25
V[ -coronal -high -tense ]
p1275
sba(irule
FeatureMatrix
p1276
(dp1277
g23
(lp1278
(I00
g344
tp1279
asg25
V[ -nasal ]
p1280
sbasg35
I00
sg25
V[ -nasal ] [ -coronal -high -tense ]
p1281
sg37
I00
sg38
S'L'
sbsg39
(irule
ConstantPhoneme
p1282
(dp1283
S'p'
Vb
sbsg43
(irule
Guard
p1284
(dp1285
g18
I00
sg19
(lp1286
sg35
I00
sg25
V
sg37
I00
sg38
S'R'
sbsg47
(irule
FeatureMatrix
p1287
(dp1288
g23
(lp1289
sg25
V[  ]
p1290
sbsg25
V[  ] ---> b / [ -nasal ] [ -coronal -high -tense ] _ 
p1291
sba(irule
Rule
p1292
(dp1293
g15
(irule
Guard
p1294
(dp1295
g18
I00
sg19
(lp1296
(irule
FeatureMatrix
p1297
(dp1298
g23
(lp1299
(I01
g334
tp1300
a(I00
g338
tp1301
asg25
V[ +anterior -coronal ]
p1302
sba(irule
FeatureMatrix
p1303
(dp1304
g23
(lp1305
(I00
g543
tp1306
a(I00
g344
tp1307
asg25
V[ -lateral -nasal ]
p1308
sbasg35
I00
sg25
V[ -lateral -nasal ] [ +anterior -coronal ]
p1309
sg37
I00
sg38
S'L'
sbsg39
(irule
ConstantPhoneme
p1310
(dp1311
S'p'
Vb
sbsg43
(irule
Guard
p1312
(dp1313
g18
I00
sg19
(lp1314
sg35
I00
sg25
V
sg37
I00
sg38
S'R'
sbsg47
(irule
FeatureMatrix
p1315
(dp1316
g23
(lp1317
(I00
g338
tp1318
asg25
V[ -coronal ]
p1319
sbsg25
V[ -coronal ] ---> b / [ -lateral -nasal ] [ +anterior -coronal ] _ 
p1320
sba(irule
Rule
p1321
(dp1322
g15
(irule
Guard
p1323
(dp1324
g18
I00
sg19
(lp1325
(irule
FeatureMatrix
p1326
(dp1327
g23
(lp1328
(I01
g334
tp1329
a(I00
g338
tp1330
asg25
V[ +anterior -coronal ]
p1331
sba(irule
FeatureMatrix
p1332
(dp1333
g23
(lp1334
(I00
g469
tp1335
a(I00
g543
tp1336
a(I00
g344
tp1337
asg25
V[ -lateral -nasal -rounded ]
p1338
sbasg35
I00
sg25
V[ -lateral -nasal -rounded ] [ +anterior -coronal ]
p1339
sg37
I00
sg38
S'L'
sbsg39
(irule
ConstantPhoneme
p1340
(dp1341
S'p'
Vb
sbsg43
(irule
Guard
p1342
(dp1343
g18
I00
sg19
(lp1344
sg35
I00
sg25
V
sg37
I00
sg38
S'R'
sbsg47
(irule
FeatureMatrix
p1345
(dp1346
g23
(lp1347
sg25
V[  ]
p1348
sbsg25
V[  ] ---> b / [ -lateral -nasal -rounded ] [ +anterior -coronal ] _ 
p1349
sba(irule
Rule
p1350
(dp1351
g15
(irule
Guard
p1352
(dp1353
g18
I00
sg19
(lp1354
(irule
FeatureMatrix
p1355
(dp1356
g23
(lp1357
(I01
g334
tp1358
a(I00
g338
tp1359
asg25
V[ +anterior -coronal ]
p1360
sba(irule
FeatureMatrix
p1361
(dp1362
g23
(lp1363
(I00
g572
tp1364
a(I00
g543
tp1365
a(I00
g344
tp1366
asg25
V[ -lateral -liquid -nasal ]
p1367
sbasg35
I00
sg25
V[ -lateral -liquid -nasal ] [ +anterior -coronal ]
p1368
sg37
I00
sg38
S'L'
sbsg39
(irule
ConstantPhoneme
p1369
(dp1370
S'p'
Vb
sbsg43
(irule
Guard
p1371
(dp1372
g18
I00
sg19
(lp1373
sg35
I00
sg25
V
sg37
I00
sg38
S'R'
sbsg47
(irule
FeatureMatrix
p1374
(dp1375
g23
(lp1376
sg25
V[  ]
p1377
sbsg25
V[  ] ---> b / [ -lateral -liquid -nasal ] [ +anterior -coronal ] _ 
p1378
sba(irule
Rule
p1379
(dp1380
g15
(irule
Guard
p1381
(dp1382
g18
I00
sg19
(lp1383
(irule
FeatureMatrix
p1384
(dp1385
g23
(lp1386
(I01
g334
tp1387
a(I00
g336
tp1388
a(I00
g338
tp1389
asg25
V[ +anterior -continuant -coronal ]
p1390
sba(irule
FeatureMatrix
p1391
(dp1392
g23
(lp1393
(I00
g742
tp1394
a(I00
g344
tp1395
asg25
V[ -delayedRelease -nasal ]
p1396
sbasg35
I00
sg25
V[ -delayedRelease -nasal ] [ +anterior -continuant -coronal ]
p1397
sg37
I00
sg38
S'L'
sbsg39
(irule
ConstantPhoneme
p1398
(dp1399
S'p'
Vb
sbsg43
(irule
Guard
p1400
(dp1401
g18
I00
sg19
(lp1402
sg35
I00
sg25
V
sg37
I00
sg38
S'R'
sbsg47
(irule
FeatureMatrix
p1403
(dp1404
g23
(lp1405
sg25
V[  ]
p1406
sbsg25
V[  ] ---> b / [ -delayedRelease -nasal ] [ +anterior -continuant -coronal ] _ 
p1407
sba(irule
Rule
p1408
(dp1409
g15
(irule
Guard
p1410
(dp1411
g18
I00
sg19
(lp1412
(irule
FeatureMatrix
p1413
(dp1414
g23
(lp1415
(I01
g334
tp1416
a(I00
g338
tp1417
asg25
V[ +anterior -coronal ]
p1418
sba(irule
FeatureMatrix
p1419
(dp1420
g23
(lp1421
(I00
g469
tp1422
a(I00
g572
tp1423
a(I00
g344
tp1424
asg25
V[ -liquid -nasal -rounded ]
p1425
sbasg35
I00
sg25
V[ -liquid -nasal -rounded ] [ +anterior -coronal ]
p1426
sg37
I00
sg38
S'L'
sbsg39
(irule
ConstantPhoneme
p1427
(dp1428
S'p'
Vb
sbsg43
(irule
Guard
p1429
(dp1430
g18
I00
sg19
(lp1431
sg35
I00
sg25
V
sg37
I00
sg38
S'R'
sbsg47
(irule
FeatureMatrix
p1432
(dp1433
g23
(lp1434
sg25
V[  ]
p1435
sbsg25
V[  ] ---> b / [ -liquid -nasal -rounded ] [ +anterior -coronal ] _ 
p1436
sba(irule
Rule
p1437
(dp1438
g15
(irule
Guard
p1439
(dp1440
g18
I00
sg19
(lp1441
(irule
FeatureMatrix
p1442
(dp1443
g23
(lp1444
(I01
g334
tp1445
a(I00
g338
tp1446
a(I00
g440
tp1447
asg25
V[ +anterior -coronal -sibilant ]
p1448
sba(irule
FeatureMatrix
p1449
(dp1450
g23
(lp1451
(I00
g543
tp1452
a(I00
g344
tp1453
asg25
V[ -lateral -nasal ]
p1454
sbasg35
I00
sg25
V[ -lateral -nasal ] [ +anterior -coronal -sibilant ]
p1455
sg37
I00
sg38
S'L'
sbsg39
(irule
ConstantPhoneme
p1456
(dp1457
S'p'
Vb
sbsg43
(irule
Guard
p1458
(dp1459
g18
I00
sg19
(lp1460
sg35
I00
sg25
V
sg37
I00
sg38
S'R'
sbsg47
(irule
FeatureMatrix
p1461
(dp1462
g23
(lp1463
sg25
V[  ]
p1464
sbsg25
V[  ] ---> b / [ -lateral -nasal ] [ +anterior -coronal -sibilant ] _ 
p1465
sba(irule
Rule
p1466
(dp1467
g15
(irule
Guard
p1468
(dp1469
g18
I00
sg19
(lp1470
(irule
FeatureMatrix
p1471
(dp1472
g23
(lp1473
(I01
g334
tp1474
a(I00
g338
tp1475
asg25
V[ +anterior -coronal ]
p1476
sba(irule
FeatureMatrix
p1477
(dp1478
g23
(lp1479
(I00
g344
tp1480
asg25
V[ -nasal ]
p1481
sbasg35
I00
sg25
V[ -nasal ] [ +anterior -coronal ]
p1482
sg37
I00
sg38
S'L'
sbsg39
(irule
ConstantPhoneme
p1483
(dp1484
S'p'
Vb
sbsg43
(irule
Guard
p1485
(dp1486
g18
I00
sg19
(lp1487
sg35
I00
sg25
V
sg37
I00
sg38
S'R'
sbsg47
(irule
FeatureMatrix
p1488
(dp1489
g23
(lp1490
(I00
g742
tp1491
a(I00
g344
tp1492
asg25
V[ -delayedRelease -nasal ]
p1493
sbsg25
V[ -delayedRelease -nasal ] ---> b / [ -nasal ] [ +anterior -coronal ] _ 
p1494
sba(irule
Rule
p1495
(dp1496
g15
(irule
Guard
p1497
(dp1498
g18
I00
sg19
(lp1499
(irule
FeatureMatrix
p1500
(dp1501
g23
(lp1502
(I01
g334
tp1503
a(I00
g338
tp1504
asg25
V[ +anterior -coronal ]
p1505
sba(irule
FeatureMatrix
p1506
(dp1507
g23
(lp1508
(I00
g742
tp1509
a(I00
g543
tp1510
a(I00
g344
tp1511
asg25
V[ -delayedRelease -lateral -nasal ]
p1512
sbasg35
I00
sg25
V[ -delayedRelease -lateral -nasal ] [ +anterior -coronal ]
p1513
sg37
I00
sg38
S'L'
sbsg39
(irule
ConstantPhoneme
p1514
(dp1515
S'p'
Vb
sbsg43
(irule
Guard
p1516
(dp1517
g18
I00
sg19
(lp1518
sg35
I00
sg25
V
sg37
I00
sg38
S'R'
sbsg47
(irule
FeatureMatrix
p1519
(dp1520
g23
(lp1521
sg25
V[  ]
p1522
sbsg25
V[  ] ---> b / [ -delayedRelease -lateral -nasal ] [ +anterior -coronal ] _ 
p1523
sba(irule
Rule
p1524
(dp1525
g15
(irule
Guard
p1526
(dp1527
g18
I00
sg19
(lp1528
(irule
FeatureMatrix
p1529
(dp1530
g23
(lp1531
(I01
g334
tp1532
a(I00
g338
tp1533
a(I00
g709
tp1534
asg25
V[ +anterior -coronal -vowel ]
p1535
sba(irule
FeatureMatrix
p1536
(dp1537
g23
(lp1538
(I00
g572
tp1539
a(I00
g344
tp1540
asg25
V[ -liquid -nasal ]
p1541
sbasg35
I00
sg25
V[ -liquid -nasal ] [ +anterior -coronal -vowel ]
p1542
sg37
I00
sg38
S'L'
sbsg39
(irule
ConstantPhoneme
p1543
(dp1544
S'p'
Vb
sbsg43
(irule
Guard
p1545
(dp1546
g18
I00
sg19
(lp1547
sg35
I00
sg25
V
sg37
I00
sg38
S'R'
sbsg47
(irule
FeatureMatrix
p1548
(dp1549
g23
(lp1550
sg25
V[  ]
p1551
sbsg25
V[  ] ---> b / [ -liquid -nasal ] [ +anterior -coronal -vowel ] _ 
p1552
sba(irule
Rule
p1553
(dp1554
g15
(irule
Guard
p1555
(dp1556
g18
I00
sg19
(lp1557
(irule
FeatureMatrix
p1558
(dp1559
g23
(lp1560
(I01
g334
tp1561
a(I00
g336
tp1562
a(I00
g338
tp1563
asg25
V[ +anterior -continuant -coronal ]
p1564
sba(irule
FeatureMatrix
p1565
(dp1566
g23
(lp1567
(I00
g469
tp1568
a(I00
g344
tp1569
asg25
V[ -nasal -rounded ]
p1570
sbasg35
I00
sg25
V[ -nasal -rounded ] [ +anterior -continuant -coronal ]
p1571
sg37
I00
sg38
S'L'
sbsg39
(irule
ConstantPhoneme
p1572
(dp1573
S'p'
Vb
sbsg43
(irule
Guard
p1574
(dp1575
g18
I00
sg19
(lp1576
sg35
I00
sg25
V
sg37
I00
sg38
S'R'
sbsg47
(irule
FeatureMatrix
p1577
(dp1578
g23
(lp1579
sg25
V[  ]
p1580
sbsg25
V[  ] ---> b / [ -nasal -rounded ] [ +anterior -continuant -coronal ] _ 
p1581
sba(irule
Rule
p1582
(dp1583
g15
(irule
Guard
p1584
(dp1585
g18
I00
sg19
(lp1586
(irule
FeatureMatrix
p1587
(dp1588
g23
(lp1589
(I01
g334
tp1590
a(I00
g338
tp1591
asg25
V[ +anterior -coronal ]
p1592
sba(irule
FeatureMatrix
p1593
(dp1594
g23
(lp1595
(I00
g344
tp1596
asg25
V[ -nasal ]
p1597
sbasg35
I00
sg25
V[ -nasal ] [ +anterior -coronal ]
p1598
sg37
I00
sg38
S'L'
sbsg39
(irule
ConstantPhoneme
p1599
(dp1600
S'p'
Vb
sbsg43
(irule
Guard
p1601
(dp1602
g18
I00
sg19
(lp1603
sg35
I00
sg25
V
sg37
I00
sg38
S'R'
sbsg47
(irule
FeatureMatrix
p1604
(dp1605
g23
(lp1606
(I00
g368
tp1607
a(I00
g440
tp1608
asg25
V[ -low -sibilant ]
p1609
sbsg25
V[ -low -sibilant ] ---> b / [ -nasal ] [ +anterior -coronal ] _ 
p1610
sba(irule
Rule
p1611
(dp1612
g15
(irule
Guard
p1613
(dp1614
g18
I00
sg19
(lp1615
(irule
FeatureMatrix
p1616
(dp1617
g23
(lp1618
(I01
g334
tp1619
a(I00
g742
tp1620
a(I00
g338
tp1621
asg25
V[ +anterior -coronal -delayedRelease ]
p1622
sba(irule
FeatureMatrix
p1623
(dp1624
g23
(lp1625
(I00
g344
tp1626
asg25
V[ -nasal ]
p1627
sbasg35
I00
sg25
V[ -nasal ] [ +anterior -coronal -delayedRelease ]
p1628
sg37
I00
sg38
S'L'
sbsg39
(irule
ConstantPhoneme
p1629
(dp1630
S'p'
Vb
sbsg43
(irule
Guard
p1631
(dp1632
g18
I00
sg19
(lp1633
sg35
I00
sg25
V
sg37
I00
sg38
S'R'
sbsg47
(irule
FeatureMatrix
p1634
(dp1635
g23
(lp1636
(I00
g338
tp1637
asg25
V[ -coronal ]
p1638
sbsg25
V[ -coronal ] ---> b / [ -nasal ] [ +anterior -coronal -delayedRelease ] _ 
p1639
sba(irule
Rule
p1640
(dp1641
g15
(irule
Guard
p1642
(dp1643
g18
I00
sg19
(lp1644
(irule
FeatureMatrix
p1645
(dp1646
g23
(lp1647
(I01
g334
tp1648
a(I00
g338
tp1649
a(I00
g368
tp1650
asg25
V[ +anterior -coronal -low ]
p1651
sba(irule
FeatureMatrix
p1652
(dp1653
g23
(lp1654
(I00
g469
tp1655
a(I00
g344
tp1656
asg25
V[ -nasal -rounded ]
p1657
sbasg35
I00
sg25
V[ -nasal -rounded ] [ +anterior -coronal -low ]
p1658
sg37
I00
sg38
S'L'
sbsg39
(irule
ConstantPhoneme
p1659
(dp1660
S'p'
Vb
sbsg43
(irule
Guard
p1661
(dp1662
g18
I00
sg19
(lp1663
sg35
I00
sg25
V
sg37
I00
sg38
S'R'
sbsg47
(irule
FeatureMatrix
p1664
(dp1665
g23
(lp1666
sg25
V[  ]
p1667
sbsg25
V[  ] ---> b / [ -nasal -rounded ] [ +anterior -coronal -low ] _ 
p1668
sba(irule
Rule
p1669
(dp1670
g15
(irule
Guard
p1671
(dp1672
g18
I00
sg19
(lp1673
(irule
FeatureMatrix
p1674
(dp1675
g23
(lp1676
(I01
g334
tp1677
a(I00
g338
tp1678
asg25
V[ +anterior -coronal ]
p1679
sba(irule
FeatureMatrix
p1680
(dp1681
g23
(lp1682
(I00
g344
tp1683
asg25
V[ -nasal ]
p1684
sbasg35
I00
sg25
V[ -nasal ] [ +anterior -coronal ]
p1685
sg37
I00
sg38
S'L'
sbsg39
(irule
ConstantPhoneme
p1686
(dp1687
S'p'
Vb
sbsg43
(irule
Guard
p1688
(dp1689
g18
I00
sg19
(lp1690
sg35
I00
sg25
V
sg37
I00
sg38
S'R'
sbsg47
(irule
FeatureMatrix
p1691
(dp1692
g23
(lp1693
(I00
g338
tp1694
a(I00
g440
tp1695
asg25
V[ -coronal -sibilant ]
p1696
sbsg25
V[ -coronal -sibilant ] ---> b / [ -nasal ] [ +anterior -coronal ] _ 
p1697
sba(irule
Rule
p1698
(dp1699
g15
(irule
Guard
p1700
(dp1701
g18
I00
sg19
(lp1702
(irule
FeatureMatrix
p1703
(dp1704
g23
(lp1705
(I01
g334
tp1706
a(I00
g336
tp1707
a(I00
g338
tp1708
asg25
V[ +anterior -continuant -coronal ]
p1709
sba(irule
FeatureMatrix
p1710
(dp1711
g23
(lp1712
(I00
g344
tp1713
asg25
V[ -nasal ]
p1714
sbasg35
I00
sg25
V[ -nasal ] [ +anterior -continuant -coronal ]
p1715
sg37
I00
sg38
S'L'
sbsg39
(irule
ConstantPhoneme
p1716
(dp1717
S'p'
Vb
sbsg43
(irule
Guard
p1718
(dp1719
g18
I00
sg19
(lp1720
sg35
I00
sg25
V
sg37
I00
sg38
S'R'
sbsg47
(irule
FeatureMatrix
p1721
(dp1722
g23
(lp1723
(I00
g344
tp1724
asg25
V[ -nasal ]
p1725
sbsg25
V[ -nasal ] ---> b / [ -nasal ] [ +anterior -continuant -coronal ] _ 
p1726
sba(irule
Rule
p1727
(dp1728
g15
(irule
Guard
p1729
(dp1730
g18
I00
sg19
(lp1731
(irule
FeatureMatrix
p1732
(dp1733
g23
(lp1734
(I01
g334
tp1735
a(I00
g338
tp1736
asg25
V[ +anterior -coronal ]
p1737
sba(irule
FeatureMatrix
p1738
(dp1739
g23
(lp1740
(I00
g742
tp1741
a(I00
g469
tp1742
a(I00
g344
tp1743
asg25
V[ -delayedRelease -nasal -rounded ]
p1744
sbasg35
I00
sg25
V[ -delayedRelease -nasal -rounded ] [ +anterior -coronal ]
p1745
sg37
I00
sg38
S'L'
sbsg39
(irule
ConstantPhoneme
p1746
(dp1747
S'p'
Vb
sbsg43
(irule
Guard
p1748
(dp1749
g18
I00
sg19
(lp1750
sg35
I00
sg25
V
sg37
I00
sg38
S'R'
sbsg47
(irule
FeatureMatrix
p1751
(dp1752
g23
(lp1753
sg25
V[  ]
p1754
sbsg25
V[  ] ---> b / [ -delayedRelease -nasal -rounded ] [ +anterior -coronal ] _ 
p1755
sba(irule
Rule
p1756
(dp1757
g15
(irule
Guard
p1758
(dp1759
g18
I00
sg19
(lp1760
(irule
FeatureMatrix
p1761
(dp1762
g23
(lp1763
(I01
g334
tp1764
a(I00
g572
tp1765
a(I00
g338
tp1766
asg25
V[ +anterior -coronal -liquid ]
p1767
sba(irule
FeatureMatrix
p1768
(dp1769
g23
(lp1770
(I00
g543
tp1771
a(I00
g344
tp1772
asg25
V[ -lateral -nasal ]
p1773
sbasg35
I00
sg25
V[ -lateral -nasal ] [ +anterior -coronal -liquid ]
p1774
sg37
I00
sg38
S'L'
sbsg39
(irule
ConstantPhoneme
p1775
(dp1776
S'p'
Vb
sbsg43
(irule
Guard
p1777
(dp1778
g18
I00
sg19
(lp1779
sg35
I00
sg25
V
sg37
I00
sg38
S'R'
sbsg47
(irule
FeatureMatrix
p1780
(dp1781
g23
(lp1782
sg25
V[  ]
p1783
sbsg25
V[  ] ---> b / [ -lateral -nasal ] [ +anterior -coronal -liquid ] _ 
p1784
sba(irule
Rule
p1785
(dp1786
g15
(irule
Guard
p1787
(dp1788
g18
I00
sg19
(lp1789
(irule
FeatureMatrix
p1790
(dp1791
g23
(lp1792
(I01
g334
tp1793
a(I00
g338
tp1794
asg25
V[ +anterior -coronal ]
p1795
sba(irule
FeatureMatrix
p1796
(dp1797
g23
(lp1798
(I00
g742
tp1799
a(I00
g572
tp1800
a(I00
g344
tp1801
asg25
V[ -delayedRelease -liquid -nasal ]
p1802
sbasg35
I00
sg25
V[ -delayedRelease -liquid -nasal ] [ +anterior -coronal ]
p1803
sg37
I00
sg38
S'L'
sbsg39
(irule
ConstantPhoneme
p1804
(dp1805
S'p'
Vb
sbsg43
(irule
Guard
p1806
(dp1807
g18
I00
sg19
(lp1808
sg35
I00
sg25
V
sg37
I00
sg38
S'R'
sbsg47
(irule
FeatureMatrix
p1809
(dp1810
g23
(lp1811
sg25
V[  ]
p1812
sbsg25
V[  ] ---> b / [ -delayedRelease -liquid -nasal ] [ +anterior -coronal ] _ 
p1813
sba(irule
Rule
p1814
(dp1815
g15
(irule
Guard
p1816
(dp1817
g18
I00
sg19
(lp1818
(irule
FeatureMatrix
p1819
(dp1820
g23
(lp1821
(I01
g334
tp1822
a(I00
g338
tp1823
a(I00
g368
tp1824
asg25
V[ +anterior -coronal -low ]
p1825
sba(irule
FeatureMatrix
p1826
(dp1827
g23
(lp1828
(I00
g543
tp1829
a(I00
g344
tp1830
asg25
V[ -lateral -nasal ]
p1831
sbasg35
I00
sg25
V[ -lateral -nasal ] [ +anterior -coronal -low ]
p1832
sg37
I00
sg38
S'L'
sbsg39
(irule
ConstantPhoneme
p1833
(dp1834
S'p'
Vb
sbsg43
(irule
Guard
p1835
(dp1836
g18
I00
sg19
(lp1837
sg35
I00
sg25
V
sg37
I00
sg38
S'R'
sbsg47
(irule
FeatureMatrix
p1838
(dp1839
g23
(lp1840
sg25
V[  ]
p1841
sbsg25
V[  ] ---> b / [ -lateral -nasal ] [ +anterior -coronal -low ] _ 
p1842
sba(irule
Rule
p1843
(dp1844
g15
(irule
Guard
p1845
(dp1846
g18
I00
sg19
(lp1847
(irule
FeatureMatrix
p1848
(dp1849
g23
(lp1850
(I01
g334
tp1851
a(I00
g338
tp1852
a(I00
g709
tp1853
asg25
V[ +anterior -coronal -vowel ]
p1854
sba(irule
FeatureMatrix
p1855
(dp1856
g23
(lp1857
(I00
g543
tp1858
a(I00
g344
tp1859
asg25
V[ -lateral -nasal ]
p1860
sbasg35
I00
sg25
V[ -lateral -nasal ] [ +anterior -coronal -vowel ]
p1861
sg37
I00
sg38
S'L'
sbsg39
(irule
ConstantPhoneme
p1862
(dp1863
S'p'
Vb
sbsg43
(irule
Guard
p1864
(dp1865
g18
I00
sg19
(lp1866
sg35
I00
sg25
V
sg37
I00
sg38
S'R'
sbsg47
(irule
FeatureMatrix
p1867
(dp1868
g23
(lp1869
sg25
V[  ]
p1870
sbsg25
V[  ] ---> b / [ -lateral -nasal ] [ +anterior -coronal -vowel ] _ 
p1871
sba(irule
Rule
p1872
(dp1873
g15
(irule
Guard
p1874
(dp1875
g18
I00
sg19
(lp1876
(irule
FeatureMatrix
p1877
(dp1878
g23
(lp1879
(I01
g334
tp1880
a(I00
g338
tp1881
asg25
V[ +anterior -coronal ]
p1882
sba(irule
FeatureMatrix
p1883
(dp1884
g23
(lp1885
(I00
g344
tp1886
asg25
V[ -nasal ]
p1887
sbasg35
I00
sg25
V[ -nasal ] [ +anterior -coronal ]
p1888
sg37
I00
sg38
S'L'
sbsg39
(irule
ConstantPhoneme
p1889
(dp1890
S'p'
Vb
sbsg43
(irule
Guard
p1891
(dp1892
g18
I00
sg19
(lp1893
sg35
I00
sg25
V
sg37
I00
sg38
S'R'
sbsg47
(irule
FeatureMatrix
p1894
(dp1895
g23
(lp1896
(I00
g742
tp1897
a(I00
g338
tp1898
asg25
V[ -coronal -delayedRelease ]
p1899
sbsg25
V[ -coronal -delayedRelease ] ---> b / [ -nasal ] [ +anterior -coronal ] _ 
p1900
sba(irule
Rule
p1901
(dp1902
g15
(irule
Guard
p1903
(dp1904
g18
I00
sg19
(lp1905
(irule
FeatureMatrix
p1906
(dp1907
g23
(lp1908
(I01
g334
tp1909
a(I00
g338
tp1910
a(I00
g440
tp1911
asg25
V[ +anterior -coronal -sibilant ]
p1912
sba(irule
FeatureMatrix
p1913
(dp1914
g23
(lp1915
(I00
g742
tp1916
a(I00
g344
tp1917
asg25
V[ -delayedRelease -nasal ]
p1918
sbasg35
I00
sg25
V[ -delayedRelease -nasal ] [ +anterior -coronal -sibilant ]
p1919
sg37
I00
sg38
S'L'
sbsg39
(irule
ConstantPhoneme
p1920
(dp1921
S'p'
Vb
sbsg43
(irule
Guard
p1922
(dp1923
g18
I00
sg19
(lp1924
sg35
I00
sg25
V
sg37
I00
sg38
S'R'
sbsg47
(irule
FeatureMatrix
p1925
(dp1926
g23
(lp1927
sg25
V[  ]
p1928
sbsg25
V[  ] ---> b / [ -delayedRelease -nasal ] [ +anterior -coronal -sibilant ] _ 
p1929
sba(irule
Rule
p1930
(dp1931
g15
(irule
Guard
p1932
(dp1933
g18
I00
sg19
(lp1934
(irule
FeatureMatrix
p1935
(dp1936
g23
(lp1937
(I01
g334
tp1938
a(I00
g338
tp1939
asg25
V[ +anterior -coronal ]
p1940
sba(irule
FeatureMatrix
p1941
(dp1942
g23
(lp1943
(I00
g543
tp1944
a(I00
g344
tp1945
asg25
V[ -lateral -nasal ]
p1946
sbasg35
I00
sg25
V[ -lateral -nasal ] [ +anterior -coronal ]
p1947
sg37
I00
sg38
S'L'
sbsg39
(irule
ConstantPhoneme
p1948
(dp1949
S'p'
Vb
sbsg43
(irule
Guard
p1950
(dp1951
g18
I00
sg19
(lp1952
sg35
I00
sg25
V
sg37
I00
sg38
S'R'
sbsg47
(irule
FeatureMatrix
p1953
(dp1954
g23
(lp1955
(I00
g440
tp1956
asg25
V[ -sibilant ]
p1957
sbsg25
V[ -sibilant ] ---> b / [ -lateral -nasal ] [ +anterior -coronal ] _ 
p1958
sba(irule
Rule
p1959
(dp1960
g15
(irule
Guard
p1961
(dp1962
g18
I00
sg19
(lp1963
(irule
FeatureMatrix
p1964
(dp1965
g23
(lp1966
(I01
g334
tp1967
a(I00
g338
tp1968
asg25
V[ +anterior -coronal ]
p1969
sba(irule
FeatureMatrix
p1970
(dp1971
g23
(lp1972
(I00
g344
tp1973
asg25
V[ -nasal ]
p1974
sbasg35
I00
sg25
V[ -nasal ] [ +anterior -coronal ]
p1975
sg37
I00
sg38
S'L'
sbsg39
(irule
ConstantPhoneme
p1976
(dp1977
S'p'
Vb
sbsg43
(irule
Guard
p1978
(dp1979
g18
I00
sg19
(lp1980
sg35
I00
sg25
V
sg37
I00
sg38
S'R'
sbsg47
(irule
FeatureMatrix
p1981
(dp1982
g23
(lp1983
(I00
g923
tp1984
a(I00
g338
tp1985
asg25
V[ -back -coronal ]
p1986
sbsg25
V[ -back -coronal ] ---> b / [ -nasal ] [ +anterior -coronal ] _ 
p1987
sba(irule
Rule
p1988
(dp1989
g15
(irule
Guard
p1990
(dp1991
g18
I00
sg19
(lp1992
(irule
FeatureMatrix
p1993
(dp1994
g23
(lp1995
(I00
g1076
tp1996
a(I00
g338
tp1997
asg25
V[ -coronal -high ]
p1998
sba(irule
FeatureMatrix
p1999
(dp2000
g23
(lp2001
(I00
g344
tp2002
asg25
V[ -nasal ]
p2003
sbasg35
I00
sg25
V[ -nasal ] [ -coronal -high ]
p2004
sg37
I00
sg38
S'L'
sbsg39
(irule
ConstantPhoneme
p2005
(dp2006
S'p'
Vb
sbsg43
(irule
Guard
p2007
(dp2008
g18
I00
sg19
(lp2009
sg35
I00
sg25
V
sg37
I00
sg38
S'R'
sbsg47
(irule
FeatureMatrix
p2010
(dp2011
g23
(lp2012
(I00
g742
tp2013
a(I00
g344
tp2014
asg25
V[ -delayedRelease -nasal ]
p2015
sbsg25
V[ -delayedRelease -nasal ] ---> b / [ -nasal ] [ -coronal -high ] _ 
p2016
sba(irule
Rule
p2017
(dp2018
g15
(irule
Guard
p2019
(dp2020
g18
I00
sg19
(lp2021
(irule
FeatureMatrix
p2022
(dp2023
g23
(lp2024
(I00
g336
tp2025
a(I00
g1076
tp2026
a(I00
g338
tp2027
asg25
V[ -continuant -coronal -high ]
p2028
sba(irule
FeatureMatrix
p2029
(dp2030
g23
(lp2031
(I00
g742
tp2032
a(I00
g344
tp2033
asg25
V[ -delayedRelease -nasal ]
p2034
sbasg35
I00
sg25
V[ -delayedRelease -nasal ] [ -continuant -coronal -high ]
p2035
sg37
I00
sg38
S'L'
sbsg39
(irule
ConstantPhoneme
p2036
(dp2037
S'p'
Vb
sbsg43
(irule
Guard
p2038
(dp2039
g18
I00
sg19
(lp2040
sg35
I00
sg25
V
sg37
I00
sg38
S'R'
sbsg47
(irule
FeatureMatrix
p2041
(dp2042
g23
(lp2043
sg25
V[  ]
p2044
sbsg25
V[  ] ---> b / [ -delayedRelease -nasal ] [ -continuant -coronal -high ] _ 
p2045
sba(irule
Rule
p2046
(dp2047
g15
(irule
Guard
p2048
(dp2049
g18
I00
sg19
(lp2050
(irule
FeatureMatrix
p2051
(dp2052
g23
(lp2053
(I01
g334
tp2054
a(I00
g742
tp2055
a(I00
g338
tp2056
asg25
V[ +anterior -coronal -delayedRelease ]
p2057
sba(irule
FeatureMatrix
p2058
(dp2059
g23
(lp2060
(I00
g742
tp2061
a(I00
g344
tp2062
asg25
V[ -delayedRelease -nasal ]
p2063
sbasg35
I00
sg25
V[ -delayedRelease -nasal ] [ +anterior -coronal -delayedRelease ]
p2064
sg37
I00
sg38
S'L'
sbsg39
(irule
ConstantPhoneme
p2065
(dp2066
S'p'
Vb
sbsg43
(irule
Guard
p2067
(dp2068
g18
I00
sg19
(lp2069
sg35
I00
sg25
V
sg37
I00
sg38
S'R'
sbsg47
(irule
FeatureMatrix
p2070
(dp2071
g23
(lp2072
sg25
V[  ]
p2073
sbsg25
V[  ] ---> b / [ -delayedRelease -nasal ] [ +anterior -coronal -delayedRelease ] _ 
p2074
sba(irule
Rule
p2075
(dp2076
g15
(irule
Guard
p2077
(dp2078
g18
I00
sg19
(lp2079
(irule
FeatureMatrix
p2080
(dp2081
g23
(lp2082
(I01
g334
tp2083
a(I00
g338
tp2084
a(I00
g368
tp2085
asg25
V[ +anterior -coronal -low ]
p2086
sba(irule
FeatureMatrix
p2087
(dp2088
g23
(lp2089
(I00
g344
tp2090
asg25
V[ -nasal ]
p2091
sbasg35
I00
sg25
V[ -nasal ] [ +anterior -coronal -low ]
p2092
sg37
I00
sg38
S'L'
sbsg39
(irule
ConstantPhoneme
p2093
(dp2094
S'p'
Vb
sbsg43
(irule
Guard
p2095
(dp2096
g18
I00
sg19
(lp2097
sg35
I00
sg25
V
sg37
I00
sg38
S'R'
sbsg47
(irule
FeatureMatrix
p2098
(dp2099
g23
(lp2100
(I00
g440
tp2101
asg25
V[ -sibilant ]
p2102
sbsg25
V[ -sibilant ] ---> b / [ -nasal ] [ +anterior -coronal -low ] _ 
p2103
sba(irule
Rule
p2104
(dp2105
g15
(irule
Guard
p2106
(dp2107
g18
I00
sg19
(lp2108
(irule
FeatureMatrix
p2109
(dp2110
g23
(lp2111
(I01
g334
tp2112
a(I00
g338
tp2113
a(I00
g709
tp2114
asg25
V[ +anterior -coronal -vowel ]
p2115
sba(irule
FeatureMatrix
p2116
(dp2117
g23
(lp2118
(I00
g344
tp2119
asg25
V[ -nasal ]
p2120
sbasg35
I00
sg25
V[ -nasal ] [ +anterior -coronal -vowel ]
p2121
sg37
I00
sg38
S'L'
sbsg39
(irule
ConstantPhoneme
p2122
(dp2123
S'p'
Vb
sbsg43
(irule
Guard
p2124
(dp2125
g18
I00
sg19
(lp2126
sg35
I00
sg25
V
sg37
I00
sg38
S'R'
sbsg47
(irule
FeatureMatrix
p2127
(dp2128
g23
(lp2129
(I00
g440
tp2130
asg25
V[ -sibilant ]
p2131
sbsg25
V[ -sibilant ] ---> b / [ -nasal ] [ +anterior -coronal -vowel ] _ 
p2132
sba(irule
Rule
p2133
(dp2134
g15
(irule
Guard
p2135
(dp2136
g18
I00
sg19
(lp2137
(irule
FeatureMatrix
p2138
(dp2139
g23
(lp2140
(I01
g334
tp2141
a(I00
g338
tp2142
asg25
V[ +anterior -coronal ]
p2143
sba(irule
FeatureMatrix
p2144
(dp2145
g23
(lp2146
(I00
g344
tp2147
asg25
V[ -nasal ]
p2148
sbasg35
I00
sg25
V[ -nasal ] [ +anterior -coronal ]
p2149
sg37
I00
sg38
S'L'
sbsg39
(irule
ConstantPhoneme
p2150
(dp2151
S'p'
Vb
sbsg43
(irule
Guard
p2152
(dp2153
g18
I00
sg19
(lp2154
sg35
I00
sg25
V
sg37
I00
sg38
S'R'
sbsg47
(irule
FeatureMatrix
p2155
(dp2156
g23
(lp2157
(I00
g469
tp2158
a(I00
g923
tp2159
asg25
V[ -back -rounded ]
p2160
sbsg25
V[ -back -rounded ] ---> b / [ -nasal ] [ +anterior -coronal ] _ 
p2161
sba(irule
Rule
p2162
(dp2163
g15
(irule
Guard
p2164
(dp2165
g18
I00
sg19
(lp2166
(irule
FeatureMatrix
p2167
(dp2168
g23
(lp2169
(I01
g334
tp2170
a(I00
g338
tp2171
asg25
V[ +anterior -coronal ]
p2172
sba(irule
FeatureMatrix
p2173
(dp2174
g23
(lp2175
(I00
g344
tp2176
asg25
V[ -nasal ]
p2177
sbasg35
I00
sg25
V[ -nasal ] [ +anterior -coronal ]
p2178
sg37
I00
sg38
S'L'
sbsg39
(irule
ConstantPhoneme
p2179
(dp2180
S'p'
Vb
sbsg43
(irule
Guard
p2181
(dp2182
g18
I00
sg19
(lp2183
sg35
I00
sg25
V
sg37
I00
sg38
S'R'
sbsg47
(irule
FeatureMatrix
p2184
(dp2185
g23
(lp2186
(I00
g923
tp2187
a(I00
g440
tp2188
asg25
V[ -back -sibilant ]
p2189
sbsg25
V[ -back -sibilant ] ---> b / [ -nasal ] [ +anterior -coronal ] _ 
p2190
sba(irule
Rule
p2191
(dp2192
g15
(irule
Guard
p2193
(dp2194
g18
I00
sg19
(lp2195
(irule
FeatureMatrix
p2196
(dp2197
g23
(lp2198
(I01
g334
tp2199
a(I00
g338
tp2200
asg25
V[ +anterior -coronal ]
p2201
sba(irule
FeatureMatrix
p2202
(dp2203
g23
(lp2204
(I00
g344
tp2205
asg25
V[ -nasal ]
p2206
sbasg35
I00
sg25
V[ -nasal ] [ +anterior -coronal ]
p2207
sg37
I00
sg38
S'L'
sbsg39
(irule
ConstantPhoneme
p2208
(dp2209
S'p'
Vb
sbsg43
(irule
Guard
p2210
(dp2211
g18
I00
sg19
(lp2212
sg35
I00
sg25
V
sg37
I00
sg38
S'R'
sbsg47
(irule
FeatureMatrix
p2213
(dp2214
g23
(lp2215
(I00
g338
tp2216
a(I00
g368
tp2217
asg25
V[ -coronal -low ]
p2218
sbsg25
V[ -coronal -low ] ---> b / [ -nasal ] [ +anterior -coronal ] _ 
p2219
sba(irule
Rule
p2220
(dp2221
g15
(irule
Guard
p2222
(dp2223
g18
I00
sg19
(lp2224
(irule
FeatureMatrix
p2225
(dp2226
g23
(lp2227
(I01
g334
tp2228
a(I00
g572
tp2229
a(I00
g338
tp2230
asg25
V[ +anterior -coronal -liquid ]
p2231
sba(irule
FeatureMatrix
p2232
(dp2233
g23
(lp2234
(I00
g742
tp2235
a(I00
g344
tp2236
asg25
V[ -delayedRelease -nasal ]
p2237
sbasg35
I00
sg25
V[ -delayedRelease -nasal ] [ +anterior -coronal -liquid ]
p2238
sg37
I00
sg38
S'L'
sbsg39
(irule
ConstantPhoneme
p2239
(dp2240
S'p'
Vb
sbsg43
(irule
Guard
p2241
(dp2242
g18
I00
sg19
(lp2243
sg35
I00
sg25
V
sg37
I00
sg38
S'R'
sbsg47
(irule
FeatureMatrix
p2244
(dp2245
g23
(lp2246
sg25
V[  ]
p2247
sbsg25
V[  ] ---> b / [ -delayedRelease -nasal ] [ +anterior -coronal -liquid ] _ 
p2248
sba(irule
Rule
p2249
(dp2250
g15
(irule
Guard
p2251
(dp2252
g18
I00
sg19
(lp2253
(irule
FeatureMatrix
p2254
(dp2255
g23
(lp2256
(I01
g334
tp2257
a(I00
g543
tp2258
a(I00
g338
tp2259
asg25
V[ +anterior -coronal -lateral ]
p2260
sba(irule
FeatureMatrix
p2261
(dp2262
g23
(lp2263
(I00
g543
tp2264
a(I00
g344
tp2265
asg25
V[ -lateral -nasal ]
p2266
sbasg35
I00
sg25
V[ -lateral -nasal ] [ +anterior -coronal -lateral ]
p2267
sg37
I00
sg38
S'L'
sbsg39
(irule
ConstantPhoneme
p2268
(dp2269
S'p'
Vb
sbsg43
(irule
Guard
p2270
(dp2271
g18
I00
sg19
(lp2272
sg35
I00
sg25
V
sg37
I00
sg38
S'R'
sbsg47
(irule
FeatureMatrix
p2273
(dp2274
g23
(lp2275
sg25
V[  ]
p2276
sbsg25
V[  ] ---> b / [ -lateral -nasal ] [ +anterior -coronal -lateral ] _ 
p2277
sba(irule
Rule
p2278
(dp2279
g15
(irule
Guard
p2280
(dp2281
g18
I00
sg19
(lp2282
(irule
FeatureMatrix
p2283
(dp2284
g23
(lp2285
(I01
g334
tp2286
a(I00
g338
tp2287
a(I00
g709
tp2288
asg25
V[ +anterior -coronal -vowel ]
p2289
sba(irule
FeatureMatrix
p2290
(dp2291
g23
(lp2292
(I00
g344
tp2293
asg25
V[ -nasal ]
p2294
sbasg35
I00
sg25
V[ -nasal ] [ +anterior -coronal -vowel ]
p2295
sg37
I00
sg38
S'L'
sbsg39
(irule
ConstantPhoneme
p2296
(dp2297
S'p'
Vb
sbsg43
(irule
Guard
p2298
(dp2299
g18
I00
sg19
(lp2300
sg35
I00
sg25
V
sg37
I00
sg38
S'R'
sbsg47
(irule
FeatureMatrix
p2301
(dp2302
g23
(lp2303
(I00
g469
tp2304
asg25
V[ -rounded ]
p2305
sbsg25
V[ -rounded ] ---> b / [ -nasal ] [ +anterior -coronal -vowel ] _ 
p2306
sba(irule
Rule
p2307
(dp2308
g15
(irule
Guard
p2309
(dp2310
g18
I00
sg19
(lp2311
(irule
FeatureMatrix
p2312
(dp2313
g23
(lp2314
(I01
g334
tp2315
a(I00
g742
tp2316
a(I00
g338
tp2317
asg25
V[ +anterior -coronal -delayedRelease ]
p2318
sba(irule
FeatureMatrix
p2319
(dp2320
g23
(lp2321
(I00
g543
tp2322
a(I00
g344
tp2323
asg25
V[ -lateral -nasal ]
p2324
sbasg35
I00
sg25
V[ -lateral -nasal ] [ +anterior -coronal -delayedRelease ]
p2325
sg37
I00
sg38
S'L'
sbsg39
(irule
ConstantPhoneme
p2326
(dp2327
S'p'
Vb
sbsg43
(irule
Guard
p2328
(dp2329
g18
I00
sg19
(lp2330
sg35
I00
sg25
V
sg37
I00
sg38
S'R'
sbsg47
(irule
FeatureMatrix
p2331
(dp2332
g23
(lp2333
sg25
V[  ]
p2334
sbsg25
V[  ] ---> b / [ -lateral -nasal ] [ +anterior -coronal -delayedRelease ] _ 
p2335
sba(irule
Rule
p2336
(dp2337
g15
(irule
Guard
p2338
(dp2339
g18
I00
sg19
(lp2340
(irule
FeatureMatrix
p2341
(dp2342
g23
(lp2343
(I00
g923
tp2344
a(I00
g338
tp2345
asg25
V[ -back -coronal ]
p2346
sba(irule
FeatureMatrix
p2347
(dp2348
g23
(lp2349
(I00
g344
tp2350
asg25
V[ -nasal ]
p2351
sbasg35
I00
sg25
V[ -nasal ] [ -back -coronal ]
p2352
sg37
I00
sg38
S'L'
sbsg39
(irule
ConstantPhoneme
p2353
(dp2354
S'p'
Vb
sbsg43
(irule
Guard
p2355
(dp2356
g18
I00
sg19
(lp2357
sg35
I00
sg25
V
sg37
I00
sg38
S'R'
sbsg47
(irule
FeatureMatrix
p2358
(dp2359
g23
(lp2360
(I00
g338
tp2361
a(I00
g368
tp2362
asg25
V[ -coronal -low ]
p2363
sbsg25
V[ -coronal -low ] ---> b / [ -nasal ] [ -back -coronal ] _ 
p2364
sba(irule
Rule
p2365
(dp2366
g15
(irule
Guard
p2367
(dp2368
g18
I00
sg19
(lp2369
(irule
FeatureMatrix
p2370
(dp2371
g23
(lp2372
(I01
g334
tp2373
a(I00
g338
tp2374
asg25
V[ +anterior -coronal ]
p2375
sba(irule
FeatureMatrix
p2376
(dp2377
g23
(lp2378
(I00
g344
tp2379
asg25
V[ -nasal ]
p2380
sbasg35
I00
sg25
V[ -nasal ] [ +anterior -coronal ]
p2381
sg37
I00
sg38
S'L'
sbsg39
(irule
ConstantPhoneme
p2382
(dp2383
S'p'
Vb
sbsg43
(irule
Guard
p2384
(dp2385
g18
I00
sg19
(lp2386
sg35
I00
sg25
V
sg37
I00
sg38
S'R'
sbsg47
(irule
FeatureMatrix
p2387
(dp2388
g23
(lp2389
(I00
g469
tp2390
a(I00
g344
tp2391
asg25
V[ -nasal -rounded ]
p2392
sbsg25
V[ -nasal -rounded ] ---> b / [ -nasal ] [ +anterior -coronal ] _ 
p2393
sba(irule
Rule
p2394
(dp2395
g15
(irule
Guard
p2396
(dp2397
g18
I00
sg19
(lp2398
(irule
FeatureMatrix
p2399
(dp2400
g23
(lp2401
(I01
g334
tp2402
a(I00
g336
tp2403
a(I00
g338
tp2404
asg25
V[ +anterior -continuant -coronal ]
p2405
sba(irule
FeatureMatrix
p2406
(dp2407
g23
(lp2408
(I00
g543
tp2409
a(I00
g344
tp2410
asg25
V[ -lateral -nasal ]
p2411
sbasg35
I00
sg25
V[ -lateral -nasal ] [ +anterior -continuant -coronal ]
p2412
sg37
I00
sg38
S'L'
sbsg39
(irule
ConstantPhoneme
p2413
(dp2414
S'p'
Vb
sbsg43
(irule
Guard
p2415
(dp2416
g18
I00
sg19
(lp2417
sg35
I00
sg25
V
sg37
I00
sg38
S'R'
sbsg47
(irule
FeatureMatrix
p2418
(dp2419
g23
(lp2420
sg25
V[  ]
p2421
sbsg25
V[  ] ---> b / [ -lateral -nasal ] [ +anterior -continuant -coronal ] _ 
p2422
sba(irule
Rule
p2423
(dp2424
g15
(irule
Guard
p2425
(dp2426
g18
I00
sg19
(lp2427
(irule
FeatureMatrix
p2428
(dp2429
g23
(lp2430
(I01
g334
tp2431
a(I00
g338
tp2432
a(I00
g440
tp2433
asg25
V[ +anterior -coronal -sibilant ]
p2434
sba(irule
FeatureMatrix
p2435
(dp2436
g23
(lp2437
(I00
g344
tp2438
asg25
V[ -nasal ]
p2439
sbasg35
I00
sg25
V[ -nasal ] [ +anterior -coronal -sibilant ]
p2440
sg37
I00
sg38
S'L'
sbsg39
(irule
ConstantPhoneme
p2441
(dp2442
S'p'
Vb
sbsg43
(irule
Guard
p2443
(dp2444
g18
I00
sg19
(lp2445
sg35
I00
sg25
V
sg37
I00
sg38
S'R'
sbsg47
(irule
FeatureMatrix
p2446
(dp2447
g23
(lp2448
(I00
g338
tp2449
asg25
V[ -coronal ]
p2450
sbsg25
V[ -coronal ] ---> b / [ -nasal ] [ +anterior -coronal -sibilant ] _ 
p2451
sba(irule
Rule
p2452
(dp2453
g15
(irule
Guard
p2454
(dp2455
g18
I00
sg19
(lp2456
(irule
FeatureMatrix
p2457
(dp2458
g23
(lp2459
(I01
g334
tp2460
a(I00
g338
tp2461
a(I00
g795
tp2462
asg25
V[ +anterior -coronal -tense ]
p2463
sba(irule
FeatureMatrix
p2464
(dp2465
g23
(lp2466
(I00
g543
tp2467
a(I00
g344
tp2468
asg25
V[ -lateral -nasal ]
p2469
sbasg35
I00
sg25
V[ -lateral -nasal ] [ +anterior -coronal -tense ]
p2470
sg37
I00
sg38
S'L'
sbsg39
(irule
ConstantPhoneme
p2471
(dp2472
S'p'
Vb
sbsg43
(irule
Guard
p2473
(dp2474
g18
I00
sg19
(lp2475
sg35
I00
sg25
V
sg37
I00
sg38
S'R'
sbsg47
(irule
FeatureMatrix
p2476
(dp2477
g23
(lp2478
sg25
V[  ]
p2479
sbsg25
V[  ] ---> b / [ -lateral -nasal ] [ +anterior -coronal -tense ] _ 
p2480
sba(irule
Rule
p2481
(dp2482
g15
(irule
Guard
p2483
(dp2484
g18
I00
sg19
(lp2485
(irule
FeatureMatrix
p2486
(dp2487
g23
(lp2488
(I01
g334
tp2489
a(I00
g572
tp2490
a(I00
g338
tp2491
asg25
V[ +anterior -coronal -liquid ]
p2492
sba(irule
FeatureMatrix
p2493
(dp2494
g23
(lp2495
(I00
g344
tp2496
asg25
V[ -nasal ]
p2497
sbasg35
I00
sg25
V[ -nasal ] [ +anterior -coronal -liquid ]
p2498
sg37
I00
sg38
S'L'
sbsg39
(irule
ConstantPhoneme
p2499
(dp2500
S'p'
Vb
sbsg43
(irule
Guard
p2501
(dp2502
g18
I00
sg19
(lp2503
sg35
I00
sg25
V
sg37
I00
sg38
S'R'
sbsg47
(irule
FeatureMatrix
p2504
(dp2505
g23
(lp2506
(I00
g923
tp2507
asg25
V[ -back ]
p2508
sbsg25
V[ -back ] ---> b / [ -nasal ] [ +anterior -coronal -liquid ] _ 
p2509
sba(irule
Rule
p2510
(dp2511
g15
(irule
Guard
p2512
(dp2513
g18
I00
sg19
(lp2514
(irule
FeatureMatrix
p2515
(dp2516
g23
(lp2517
(I01
g334
tp2518
a(I00
g469
tp2519
a(I00
g338
tp2520
asg25
V[ +anterior -coronal -rounded ]
p2521
sba(irule
FeatureMatrix
p2522
(dp2523
g23
(lp2524
(I00
g543
tp2525
a(I00
g344
tp2526
asg25
V[ -lateral -nasal ]
p2527
sbasg35
I00
sg25
V[ -lateral -nasal ] [ +anterior -coronal -rounded ]
p2528
sg37
I00
sg38
S'L'
sbsg39
(irule
ConstantPhoneme
p2529
(dp2530
S'p'
Vb
sbsg43
(irule
Guard
p2531
(dp2532
g18
I00
sg19
(lp2533
sg35
I00
sg25
V
sg37
I00
sg38
S'R'
sbsg47
(irule
FeatureMatrix
p2534
(dp2535
g23
(lp2536
sg25
V[  ]
p2537
sbsg25
V[  ] ---> b / [ -lateral -nasal ] [ +anterior -coronal -rounded ] _ 
p2538
sba(irule
Rule
p2539
(dp2540
g15
(irule
Guard
p2541
(dp2542
g18
I00
sg19
(lp2543
(irule
FeatureMatrix
p2544
(dp2545
g23
(lp2546
(I01
g334
tp2547
a(I00
g469
tp2548
a(I00
g338
tp2549
asg25
V[ +anterior -coronal -rounded ]
p2550
sba(irule
FeatureMatrix
p2551
(dp2552
g23
(lp2553
(I00
g469
tp2554
a(I00
g344
tp2555
asg25
V[ -nasal -rounded ]
p2556
sbasg35
I00
sg25
V[ -nasal -rounded ] [ +anterior -coronal -rounded ]
p2557
sg37
I00
sg38
S'L'
sbsg39
(irule
ConstantPhoneme
p2558
(dp2559
S'p'
Vb
sbsg43
(irule
Guard
p2560
(dp2561
g18
I00
sg19
(lp2562
sg35
I00
sg25
V
sg37
I00
sg38
S'R'
sbsg47
(irule
FeatureMatrix
p2563
(dp2564
g23
(lp2565
sg25
V[  ]
p2566
sbsg25
V[  ] ---> b / [ -nasal -rounded ] [ +anterior -coronal -rounded ] _ 
p2567
sba(irule
Rule
p2568
(dp2569
g15
(irule
Guard
p2570
(dp2571
g18
I00
sg19
(lp2572
(irule
FeatureMatrix
p2573
(dp2574
g23
(lp2575
(I01
g334
tp2576
a(I00
g336
tp2577
a(I00
g338
tp2578
asg25
V[ +anterior -continuant -coronal ]
p2579
sba(irule
FeatureMatrix
p2580
(dp2581
g23
(lp2582
(I00
g572
tp2583
a(I00
g344
tp2584
asg25
V[ -liquid -nasal ]
p2585
sbasg35
I00
sg25
V[ -liquid -nasal ] [ +anterior -continuant -coronal ]
p2586
sg37
I00
sg38
S'L'
sbsg39
(irule
ConstantPhoneme
p2587
(dp2588
S'p'
Vb
sbsg43
(irule
Guard
p2589
(dp2590
g18
I00
sg19
(lp2591
sg35
I00
sg25
V
sg37
I00
sg38
S'R'
sbsg47
(irule
FeatureMatrix
p2592
(dp2593
g23
(lp2594
sg25
V[  ]
p2595
sbsg25
V[  ] ---> b / [ -liquid -nasal ] [ +anterior -continuant -coronal ] _ 
p2596
sba(irule
Rule
p2597
(dp2598
g15
(irule
Guard
p2599
(dp2600
g18
I00
sg19
(lp2601
(irule
FeatureMatrix
p2602
(dp2603
g23
(lp2604
(I00
g923
tp2605
a(I00
g338
tp2606
asg25
V[ -back -coronal ]
p2607
sba(irule
FeatureMatrix
p2608
(dp2609
g23
(lp2610
(I00
g344
tp2611
asg25
V[ -nasal ]
p2612
sbasg35
I00
sg25
V[ -nasal ] [ -back -coronal ]
p2613
sg37
I00
sg38
S'L'
sbsg39
(irule
ConstantPhoneme
p2614
(dp2615
S'p'
Vb
sbsg43
(irule
Guard
p2616
(dp2617
g18
I00
sg19
(lp2618
sg35
I00
sg25
V
sg37
I00
sg38
S'R'
sbsg47
(irule
FeatureMatrix
p2619
(dp2620
g23
(lp2621
(I00
g923
tp2622
a(I00
g338
tp2623
asg25
V[ -back -coronal ]
p2624
sbsg25
V[ -back -coronal ] ---> b / [ -nasal ] [ -back -coronal ] _ 
p2625
sba(irule
Rule
p2626
(dp2627
g15
(irule
Guard
p2628
(dp2629
g18
I00
sg19
(lp2630
(irule
FeatureMatrix
p2631
(dp2632
g23
(lp2633
(I00
g336
tp2634
a(I00
g923
tp2635
a(I00
g338
tp2636
asg25
V[ -back -continuant -coronal ]
p2637
sba(irule
FeatureMatrix
p2638
(dp2639
g23
(lp2640
(I00
g742
tp2641
a(I00
g344
tp2642
asg25
V[ -delayedRelease -nasal ]
p2643
sbasg35
I00
sg25
V[ -delayedRelease -nasal ] [ -back -continuant -coronal ]
p2644
sg37
I00
sg38
S'L'
sbsg39
(irule
ConstantPhoneme
p2645
(dp2646
S'p'
Vb
sbsg43
(irule
Guard
p2647
(dp2648
g18
I00
sg19
(lp2649
sg35
I00
sg25
V
sg37
I00
sg38
S'R'
sbsg47
(irule
FeatureMatrix
p2650
(dp2651
g23
(lp2652
sg25
V[  ]
p2653
sbsg25
V[  ] ---> b / [ -delayedRelease -nasal ] [ -back -continuant -coronal ] _ 
p2654
sba(irule
Rule
p2655
(dp2656
g15
(irule
Guard
p2657
(dp2658
g18
I00
sg19
(lp2659
(irule
FeatureMatrix
p2660
(dp2661
g23
(lp2662
(I01
g334
tp2663
a(I00
g338
tp2664
asg25
V[ +anterior -coronal ]
p2665
sba(irule
FeatureMatrix
p2666
(dp2667
g23
(lp2668
(I00
g543
tp2669
a(I00
g344
tp2670
asg25
V[ -lateral -nasal ]
p2671
sbasg35
I00
sg25
V[ -lateral -nasal ] [ +anterior -coronal ]
p2672
sg37
I00
sg38
S'L'
sbsg39
(irule
ConstantPhoneme
p2673
(dp2674
S'p'
Vb
sbsg43
(irule
Guard
p2675
(dp2676
g18
I00
sg19
(lp2677
sg35
I00
sg25
V
sg37
I00
sg38
S'R'
sbsg47
(irule
FeatureMatrix
p2678
(dp2679
g23
(lp2680
(I00
g469
tp2681
asg25
V[ -rounded ]
p2682
sbsg25
V[ -rounded ] ---> b / [ -lateral -nasal ] [ +anterior -coronal ] _ 
p2683
sba(irule
Rule
p2684
(dp2685
g15
(irule
Guard
p2686
(dp2687
g18
I00
sg19
(lp2688
(irule
FeatureMatrix
p2689
(dp2690
g23
(lp2691
(I01
g334
tp2692
a(I00
g338
tp2693
a(I00
g440
tp2694
asg25
V[ +anterior -coronal -sibilant ]
p2695
sba(irule
FeatureMatrix
p2696
(dp2697
g23
(lp2698
(I00
g469
tp2699
a(I00
g344
tp2700
asg25
V[ -nasal -rounded ]
p2701
sbasg35
I00
sg25
V[ -nasal -rounded ] [ +anterior -coronal -sibilant ]
p2702
sg37
I00
sg38
S'L'
sbsg39
(irule
ConstantPhoneme
p2703
(dp2704
S'p'
Vb
sbsg43
(irule
Guard
p2705
(dp2706
g18
I00
sg19
(lp2707
sg35
I00
sg25
V
sg37
I00
sg38
S'R'
sbsg47
(irule
FeatureMatrix
p2708
(dp2709
g23
(lp2710
sg25
V[  ]
p2711
sbsg25
V[  ] ---> b / [ -nasal -rounded ] [ +anterior -coronal -sibilant ] _ 
p2712
sba(irule
Rule
p2713
(dp2714
g15
(irule
Guard
p2715
(dp2716
g18
I00
sg19
(lp2717
(irule
FeatureMatrix
p2718
(dp2719
g23
(lp2720
(I01
g334
tp2721
a(I00
g338
tp2722
asg25
V[ +anterior -coronal ]
p2723
sba(irule
FeatureMatrix
p2724
(dp2725
g23
(lp2726
(I00
g742
tp2727
a(I00
g344
tp2728
asg25
V[ -delayedRelease -nasal ]
p2729
sbasg35
I00
sg25
V[ -delayedRelease -nasal ] [ +anterior -coronal ]
p2730
sg37
I00
sg38
S'L'
sbsg39
(irule
ConstantPhoneme
p2731
(dp2732
S'p'
Vb
sbsg43
(irule
Guard
p2733
(dp2734
g18
I00
sg19
(lp2735
sg35
I00
sg25
V
sg37
I00
sg38
S'R'
sbsg47
(irule
FeatureMatrix
p2736
(dp2737
g23
(lp2738
(I00
g440
tp2739
asg25
V[ -sibilant ]
p2740
sbsg25
V[ -sibilant ] ---> b / [ -delayedRelease -nasal ] [ +anterior -coronal ] _ 
p2741
sba(irule
Rule
p2742
(dp2743
g15
(irule
Guard
p2744
(dp2745
g18
I00
sg19
(lp2746
(irule
FeatureMatrix
p2747
(dp2748
g23
(lp2749
(I00
g923
tp2750
a(I00
g338
tp2751
asg25
V[ -back -coronal ]
p2752
sba(irule
FeatureMatrix
p2753
(dp2754
g23
(lp2755
(I00
g344
tp2756
asg25
V[ -nasal ]
p2757
sbasg35
I00
sg25
V[ -nasal ] [ -back -coronal ]
p2758
sg37
I00
sg38
S'L'
sbsg39
(irule
ConstantPhoneme
p2759
(dp2760
S'p'
Vb
sbsg43
(irule
Guard
p2761
(dp2762
g18
I00
sg19
(lp2763
sg35
I00
sg25
V
sg37
I00
sg38
S'R'
sbsg47
(irule
FeatureMatrix
p2764
(dp2765
g23
(lp2766
(I00
g742
tp2767
a(I00
g338
tp2768
asg25
V[ -coronal -delayedRelease ]
p2769
sbsg25
V[ -coronal -delayedRelease ] ---> b / [ -nasal ] [ -back -coronal ] _ 
p2770
sba(irule
Rule
p2771
(dp2772
g15
(irule
Guard
p2773
(dp2774
g18
I00
sg19
(lp2775
(irule
FeatureMatrix
p2776
(dp2777
g23
(lp2778
(I00
g923
tp2779
a(I00
g338
tp2780
asg25
V[ -back -coronal ]
p2781
sba(irule
FeatureMatrix
p2782
(dp2783
g23
(lp2784
(I00
g344
tp2785
asg25
V[ -nasal ]
p2786
sbasg35
I00
sg25
V[ -nasal ] [ -back -coronal ]
p2787
sg37
I00
sg38
S'L'
sbsg39
(irule
ConstantPhoneme
p2788
(dp2789
S'p'
Vb
sbsg43
(irule
Guard
p2790
(dp2791
g18
I00
sg19
(lp2792
sg35
I00
sg25
V
sg37
I00
sg38
S'R'
sbsg47
(irule
FeatureMatrix
p2793
(dp2794
g23
(lp2795
(I00
g338
tp2796
a(I00
g440
tp2797
asg25
V[ -coronal -sibilant ]
p2798
sbsg25
V[ -coronal -sibilant ] ---> b / [ -nasal ] [ -back -coronal ] _ 
p2799
sba(irule
Rule
p2800
(dp2801
g15
(irule
Guard
p2802
(dp2803
g18
I00
sg19
(lp2804
(irule
FeatureMatrix
p2805
(dp2806
g23
(lp2807
(I01
g334
tp2808
a(I00
g338
tp2809
asg25
V[ +anterior -coronal ]
p2810
sba(irule
FeatureMatrix
p2811
(dp2812
g23
(lp2813
(I00
g543
tp2814
a(I00
g344
tp2815
asg25
V[ -lateral -nasal ]
p2816
sbasg35
I00
sg25
V[ -lateral -nasal ] [ +anterior -coronal ]
p2817
sg37
I00
sg38
S'L'
sbsg39
(irule
ConstantPhoneme
p2818
(dp2819
S'p'
Vb
sbsg43
(irule
Guard
p2820
(dp2821
g18
I00
sg19
(lp2822
sg35
I00
sg25
V
sg37
I00
sg38
S'R'
sbsg47
(irule
FeatureMatrix
p2823
(dp2824
g23
(lp2825
(I00
g543
tp2826
asg25
V[ -lateral ]
p2827
sbsg25
V[ -lateral ] ---> b / [ -lateral -nasal ] [ +anterior -coronal ] _ 
p2828
sba(irule
Rule
p2829
(dp2830
g15
(irule
Guard
p2831
(dp2832
g18
I00
sg19
(lp2833
(irule
FeatureMatrix
p2834
(dp2835
g23
(lp2836
(I01
g334
tp2837
a(I00
g742
tp2838
a(I00
g338
tp2839
asg25
V[ +anterior -coronal -delayedRelease ]
p2840
sba(irule
FeatureMatrix
p2841
(dp2842
g23
(lp2843
(I00
g469
tp2844
a(I00
g344
tp2845
asg25
V[ -nasal -rounded ]
p2846
sbasg35
I00
sg25
V[ -nasal -rounded ] [ +anterior -coronal -delayedRelease ]
p2847
sg37
I00
sg38
S'L'
sbsg39
(irule
ConstantPhoneme
p2848
(dp2849
S'p'
Vb
sbsg43
(irule
Guard
p2850
(dp2851
g18
I00
sg19
(lp2852
sg35
I00
sg25
V
sg37
I00
sg38
S'R'
sbsg47
(irule
FeatureMatrix
p2853
(dp2854
g23
(lp2855
sg25
V[  ]
p2856
sbsg25
V[  ] ---> b / [ -nasal -rounded ] [ +anterior -coronal -delayedRelease ] _ 
p2857
sba(irule
Rule
p2858
(dp2859
g15
(irule
Guard
p2860
(dp2861
g18
I00
sg19
(lp2862
(irule
FeatureMatrix
p2863
(dp2864
g23
(lp2865
(I01
g334
tp2866
a(I00
g338
tp2867
a(I00
g368
tp2868
asg25
V[ +anterior -coronal -low ]
p2869
sba(irule
FeatureMatrix
p2870
(dp2871
g23
(lp2872
(I00
g344
tp2873
asg25
V[ -nasal ]
p2874
sbasg35
I00
sg25
V[ -nasal ] [ +anterior -coronal -low ]
p2875
sg37
I00
sg38
S'L'
sbsg39
(irule
ConstantPhoneme
p2876
(dp2877
S'p'
Vb
sbsg43
(irule
Guard
p2878
(dp2879
g18
I00
sg19
(lp2880
sg35
I00
sg25
V
sg37
I00
sg38
S'R'
sbsg47
(irule
FeatureMatrix
p2881
(dp2882
g23
(lp2883
(I00
g469
tp2884
asg25
V[ -rounded ]
p2885
sbsg25
V[ -rounded ] ---> b / [ -nasal ] [ +anterior -coronal -low ] _ 
p2886
sba(irule
Rule
p2887
(dp2888
g15
(irule
Guard
p2889
(dp2890
g18
I00
sg19
(lp2891
(irule
FeatureMatrix
p2892
(dp2893
g23
(lp2894
(I01
g334
tp2895
a(I00
g1076
tp2896
a(I00
g338
tp2897
asg25
V[ +anterior -coronal -high ]
p2898
sba(irule
FeatureMatrix
p2899
(dp2900
g23
(lp2901
(I00
g742
tp2902
a(I00
g344
tp2903
asg25
V[ -delayedRelease -nasal ]
p2904
sbasg35
I00
sg25
V[ -delayedRelease -nasal ] [ +anterior -coronal -high ]
p2905
sg37
I00
sg38
S'L'
sbsg39
(irule
ConstantPhoneme
p2906
(dp2907
S'p'
Vb
sbsg43
(irule
Guard
p2908
(dp2909
g18
I00
sg19
(lp2910
sg35
I00
sg25
V
sg37
I00
sg38
S'R'
sbsg47
(irule
FeatureMatrix
p2911
(dp2912
g23
(lp2913
sg25
V[  ]
p2914
sbsg25
V[  ] ---> b / [ -delayedRelease -nasal ] [ +anterior -coronal -high ] _ 
p2915
sba(irule
Rule
p2916
(dp2917
g15
(irule
Guard
p2918
(dp2919
g18
I00
sg19
(lp2920
(irule
FeatureMatrix
p2921
(dp2922
g23
(lp2923
(I00
g1076
tp2924
a(I00
g338
tp2925
a(I00
g795
tp2926
asg25
V[ -coronal -high -tense ]
p2927
sba(irule
FeatureMatrix
p2928
(dp2929
g23
(lp2930
(I00
g543
tp2931
a(I00
g344
tp2932
asg25
V[ -lateral -nasal ]
p2933
sbasg35
I00
sg25
V[ -lateral -nasal ] [ -coronal -high -tense ]
p2934
sg37
I00
sg38
S'L'
sbsg39
(irule
ConstantPhoneme
p2935
(dp2936
S'p'
Vb
sbsg43
(irule
Guard
p2937
(dp2938
g18
I00
sg19
(lp2939
sg35
I00
sg25
V
sg37
I00
sg38
S'R'
sbsg47
(irule
FeatureMatrix
p2940
(dp2941
g23
(lp2942
sg25
V[  ]
p2943
sbsg25
V[  ] ---> b / [ -lateral -nasal ] [ -coronal -high -tense ] _ 
p2944
sba(irule
Rule
p2945
(dp2946
g15
(irule
Guard
p2947
(dp2948
g18
I00
sg19
(lp2949
(irule
FeatureMatrix
p2950
(dp2951
g23
(lp2952
(I01
g334
tp2953
a(I00
g338
tp2954
asg25
V[ +anterior -coronal ]
p2955
sba(irule
FeatureMatrix
p2956
(dp2957
g23
(lp2958
(I00
g572
tp2959
a(I00
g344
tp2960
asg25
V[ -liquid -nasal ]
p2961
sbasg35
I00
sg25
V[ -liquid -nasal ] [ +anterior -coronal ]
p2962
sg37
I00
sg38
S'L'
sbsg39
(irule
ConstantPhoneme
p2963
(dp2964
S'p'
Vb
sbsg43
(irule
Guard
p2965
(dp2966
g18
I00
sg19
(lp2967
sg35
I00
sg25
V
sg37
I00
sg38
S'R'
sbsg47
(irule
FeatureMatrix
p2968
(dp2969
g23
(lp2970
(I00
g440
tp2971
asg25
V[ -sibilant ]
p2972
sbsg25
V[ -sibilant ] ---> b / [ -liquid -nasal ] [ +anterior -coronal ] _ 
p2973
sba(irule
Rule
p2974
(dp2975
g15
(irule
Guard
p2976
(dp2977
g18
I00
sg19
(lp2978
(irule
FeatureMatrix
p2979
(dp2980
g23
(lp2981
(I01
g334
tp2982
a(I00
g338
tp2983
a(I00
g368
tp2984
asg25
V[ +anterior -coronal -low ]
p2985
sba(irule
FeatureMatrix
p2986
(dp2987
g23
(lp2988
(I00
g742
tp2989
a(I00
g344
tp2990
asg25
V[ -delayedRelease -nasal ]
p2991
sbasg35
I00
sg25
V[ -delayedRelease -nasal ] [ +anterior -coronal -low ]
p2992
sg37
I00
sg38
S'L'
sbsg39
(irule
ConstantPhoneme
p2993
(dp2994
S'p'
Vb
sbsg43
(irule
Guard
p2995
(dp2996
g18
I00
sg19
(lp2997
sg35
I00
sg25
V
sg37
I00
sg38
S'R'
sbsg47
(irule
FeatureMatrix
p2998
(dp2999
g23
(lp3000
sg25
V[  ]
p3001
sbsg25
V[  ] ---> b / [ -delayedRelease -nasal ] [ +anterior -coronal -low ] _ 
p3002
sba(irule
Rule
p3003
(dp3004
g15
(irule
Guard
p3005
(dp3006
g18
I00
sg19
(lp3007
(irule
FeatureMatrix
p3008
(dp3009
g23
(lp3010
(I01
g334
tp3011
a(I00
g742
tp3012
a(I00
g338
tp3013
asg25
V[ +anterior -coronal -delayedRelease ]
p3014
sba(irule
FeatureMatrix
p3015
(dp3016
g23
(lp3017
(I00
g572
tp3018
a(I00
g344
tp3019
asg25
V[ -liquid -nasal ]
p3020
sbasg35
I00
sg25
V[ -liquid -nasal ] [ +anterior -coronal -delayedRelease ]
p3021
sg37
I00
sg38
S'L'
sbsg39
(irule
ConstantPhoneme
p3022
(dp3023
S'p'
Vb
sbsg43
(irule
Guard
p3024
(dp3025
g18
I00
sg19
(lp3026
sg35
I00
sg25
V
sg37
I00
sg38
S'R'
sbsg47
(irule
FeatureMatrix
p3027
(dp3028
g23
(lp3029
sg25
V[  ]
p3030
sbsg25
V[  ] ---> b / [ -liquid -nasal ] [ +anterior -coronal -delayedRelease ] _ 
p3031
sba(irule
Rule
p3032
(dp3033
g15
(irule
Guard
p3034
(dp3035
g18
I00
sg19
(lp3036
(irule
FeatureMatrix
p3037
(dp3038
g23
(lp3039
(I01
g334
tp3040
a(I00
g338
tp3041
asg25
V[ +anterior -coronal ]
p3042
sba(irule
FeatureMatrix
p3043
(dp3044
g23
(lp3045
(I00
g344
tp3046
asg25
V[ -nasal ]
p3047
sbasg35
I00
sg25
V[ -nasal ] [ +anterior -coronal ]
p3048
sg37
I00
sg38
S'L'
sbsg39
(irule
ConstantPhoneme
p3049
(dp3050
S'p'
Vb
sbsg43
(irule
Guard
p3051
(dp3052
g18
I00
sg19
(lp3053
sg35
I00
sg25
V
sg37
I00
sg38
S'R'
sbsg47
(irule
FeatureMatrix
p3054
(dp3055
g23
(lp3056
(I00
g344
tp3057
a(I00
g338
tp3058
asg25
V[ -coronal -nasal ]
p3059
sbsg25
V[ -coronal -nasal ] ---> b / [ -nasal ] [ +anterior -coronal ] _ 
p3060
sba(irule
Rule
p3061
(dp3062
g15
(irule
Guard
p3063
(dp3064
g18
I00
sg19
(lp3065
(irule
FeatureMatrix
p3066
(dp3067
g23
(lp3068
(I01
g334
tp3069
a(I00
g338
tp3070
a(I00
g440
tp3071
asg25
V[ +anterior -coronal -sibilant ]
p3072
sba(irule
FeatureMatrix
p3073
(dp3074
g23
(lp3075
(I00
g344
tp3076
asg25
V[ -nasal ]
p3077
sbasg35
I00
sg25
V[ -nasal ] [ +anterior -coronal -sibilant ]
p3078
sg37
I00
sg38
S'L'
sbsg39
(irule
ConstantPhoneme
p3079
(dp3080
S'p'
Vb
sbsg43
(irule
Guard
p3081
(dp3082
g18
I00
sg19
(lp3083
sg35
I00
sg25
V
sg37
I00
sg38
S'R'
sbsg47
(irule
FeatureMatrix
p3084
(dp3085
g23
(lp3086
(I00
g440
tp3087
asg25
V[ -sibilant ]
p3088
sbsg25
V[ -sibilant ] ---> b / [ -nasal ] [ +anterior -coronal -sibilant ] _ 
p3089
sba(irule
Rule
p3090
(dp3091
g15
(irule
Guard
p3092
(dp3093
g18
I00
sg19
(lp3094
(irule
FeatureMatrix
p3095
(dp3096
g23
(lp3097
(I01
g334
tp3098
a(I00
g336
tp3099
a(I00
g338
tp3100
asg25
V[ +anterior -continuant -coronal ]
p3101
sba(irule
FeatureMatrix
p3102
(dp3103
g23
(lp3104
(I00
g344
tp3105
asg25
V[ -nasal ]
p3106
sbasg35
I00
sg25
V[ -nasal ] [ +anterior -continuant -coronal ]
p3107
sg37
I00
sg38
S'L'
sbsg39
(irule
ConstantPhoneme
p3108
(dp3109
S'p'
Vb
sbsg43
(irule
Guard
p3110
(dp3111
g18
I00
sg19
(lp3112
sg35
I00
sg25
V
sg37
I00
sg38
S'R'
sbsg47
(irule
FeatureMatrix
p3113
(dp3114
g23
(lp3115
(I00
g923
tp3116
asg25
V[ -back ]
p3117
sbsg25
V[ -back ] ---> b / [ -nasal ] [ +anterior -continuant -coronal ] _ 
p3118
sba(irule
Rule
p3119
(dp3120
g15
(irule
Guard
p3121
(dp3122
g18
I00
sg19
(lp3123
(irule
FeatureMatrix
p3124
(dp3125
g23
(lp3126
(I01
g334
tp3127
a(I00
g338
tp3128
a(I00
g440
tp3129
asg25
V[ +anterior -coronal -sibilant ]
p3130
sba(irule
FeatureMatrix
p3131
(dp3132
g23
(lp3133
(I00
g572
tp3134
a(I00
g344
tp3135
asg25
V[ -liquid -nasal ]
p3136
sbasg35
I00
sg25
V[ -liquid -nasal ] [ +anterior -coronal -sibilant ]
p3137
sg37
I00
sg38
S'L'
sbsg39
(irule
ConstantPhoneme
p3138
(dp3139
S'p'
Vb
sbsg43
(irule
Guard
p3140
(dp3141
g18
I00
sg19
(lp3142
sg35
I00
sg25
V
sg37
I00
sg38
S'R'
sbsg47
(irule
FeatureMatrix
p3143
(dp3144
g23
(lp3145
sg25
V[  ]
p3146
sbsg25
V[  ] ---> b / [ -liquid -nasal ] [ +anterior -coronal -sibilant ] _ 
p3147
sba(irule
Rule
p3148
(dp3149
g15
(irule
Guard
p3150
(dp3151
g18
I00
sg19
(lp3152
(irule
FeatureMatrix
p3153
(dp3154
g23
(lp3155
(I01
g334
tp3156
a(I00
g338
tp3157
asg25
V[ +anterior -coronal ]
p3158
sba(irule
FeatureMatrix
p3159
(dp3160
g23
(lp3161
(I00
g344
tp3162
asg25
V[ -nasal ]
p3163
sbasg35
I00
sg25
V[ -nasal ] [ +anterior -coronal ]
p3164
sg37
I00
sg38
S'L'
sbsg39
(irule
ConstantPhoneme
p3165
(dp3166
S'p'
Vb
sbsg43
(irule
Guard
p3167
(dp3168
g18
I00
sg19
(lp3169
sg35
I00
sg25
V
sg37
I00
sg38
S'R'
sbsg47
(irule
FeatureMatrix
p3170
(dp3171
g23
(lp3172
(I00
g742
tp3173
a(I00
g572
tp3174
asg25
V[ -delayedRelease -liquid ]
p3175
sbsg25
V[ -delayedRelease -liquid ] ---> b / [ -nasal ] [ +anterior -coronal ] _ 
p3176
sbaa(lp3177
(irule
Rule
p3178
(dp3179
g15
(irule
Guard
p3180
(dp3181
g18
I00
sg19
(lp3182
(irule
FeatureMatrix
p3183
(dp3184
g23
(lp3185
(I01
S'low'
tp3186
asg25
V[ +low ]
p3187
sba(irule
FeatureMatrix
p3188
(dp3189
g23
(lp3190
sg25
V[  ]
p3191
sbasg35
I00
sg25
V[  ] [ +low ]
p3192
sg37
I00
sg38
S'L'
sbsg39
(irule
ConstantPhoneme
p3193
(dp3194
S'p'
Vm
sbsg43
(irule
Guard
p3195
(dp3196
g18
I00
sg19
(lp3197
sg35
I00
sg25
V
sg37
I00
sg38
S'R'
sbsg47
(irule
FeatureMatrix
p3198
(dp3199
g23
(lp3200
sg25
V[  ]
p3201
sbsg25
V[  ] ---> m / [  ] [ +low ] _ 
p3202
sba(irule
Rule
p3203
(dp3204
g15
(irule
Guard
p3205
(dp3206
g18
I00
sg19
(lp3207
(irule
FeatureMatrix
p3208
(dp3209
g23
(lp3210
(I01
S'low'
p3211
tp3212
asg25
V[ +low ]
p3213
sbasg35
I00
sg25
g3213
sg37
I00
sg38
S'L'
sbsg39
(irule
ConstantPhoneme
p3214
(dp3215
S'p'
Vm
sbsg43
(irule
Guard
p3216
(dp3217
g18
I00
sg19
(lp3218
sg35
I00
sg25
V
sg37
I00
sg38
S'R'
sbsg47
(irule
FeatureMatrix
p3219
(dp3220
g23
(lp3221
(I01
S'voice'
p3222
tp3223
asg25
V[ +voice ]
p3224
sbsg25
V[ +voice ] ---> m / [ +low ] _ 
p3225
sba(irule
Rule
p3226
(dp3227
g15
(irule
Guard
p3228
(dp3229
g18
I00
sg19
(lp3230
(irule
ConstantPhoneme
p3231
(dp3232
S'p'
Va
sba(irule
FeatureMatrix
p3233
(dp3234
g23
(lp3235
sg25
V[  ]
p3236
sbasg35
I00
sg25
V[  ] a
p3237
sg37
I00
sg38
S'L'
sbsg39
(irule
ConstantPhoneme
p3238
(dp3239
S'p'
Vm
sbsg43
(irule
Guard
p3240
(dp3241
g18
I00
sg19
(lp3242
sg35
I00
sg25
V
sg37
I00
sg38
S'R'
sbsg47
(irule
FeatureMatrix
p3243
(dp3244
g23
(lp3245
sg25
V[  ]
p3246
sbsg25
V[  ] ---> m / [  ] a _ 
p3247
sba(irule
Rule
p3248
(dp3249
g15
(irule
Guard
p3250
(dp3251
g18
I00
sg19
(lp3252
(irule
FeatureMatrix
p3253
(dp3254
g23
(lp3255
(I00
S'anterior'
p3256
tp3257
asg25
V[ -anterior ]
p3258
sbasg35
I00
sg25
g3258
sg37
I00
sg38
S'L'
sbsg39
(irule
ConstantPhoneme
p3259
(dp3260
S'p'
Vm
sbsg43
(irule
Guard
p3261
(dp3262
g18
I00
sg19
(lp3263
sg35
I00
sg25
V
sg37
I00
sg38
S'R'
sbsg47
(irule
ConstantPhoneme
p3264
(dp3265
S'p'
Vb
sbsg25
Vb ---> m / [ -anterior ] _ 
p3266
sba(irule
Rule
p3267
(dp3268
g15
(irule
Guard
p3269
(dp3270
g18
I00
sg19
(lp3271
(irule
FeatureMatrix
p3272
(dp3273
g23
(lp3274
(I01
g3211
tp3275
asg25
V[ +low ]
p3276
sbasg35
I00
sg25
g3276
sg37
I00
sg38
S'L'
sbsg39
(irule
ConstantPhoneme
p3277
(dp3278
S'p'
Vm
sbsg43
(irule
Guard
p3279
(dp3280
g18
I00
sg19
(lp3281
sg35
I00
sg25
V
sg37
I00
sg38
S'R'
sbsg47
(irule
FeatureMatrix
p3282
(dp3283
g23
(lp3284
(I00
S'coronal'
p3285
tp3286
asg25
V[ -coronal ]
p3287
sbsg25
V[ -coronal ] ---> m / [ +low ] _ 
p3288
sba(irule
Rule
p3289
(dp3290
g15
(irule
Guard
p3291
(dp3292
g18
I00
sg19
(lp3293
(irule
FeatureMatrix
p3294
(dp3295
g23
(lp3296
(I01
g3211
tp3297
asg25
V[ +low ]
p3298
sbasg35
I00
sg25
g3298
sg37
I00
sg38
S'L'
sbsg39
(irule
ConstantPhoneme
p3299
(dp3300
S'p'
Vm
sbsg43
(irule
Guard
p3301
(dp3302
g18
I00
sg19
(lp3303
sg35
I00
sg25
V
sg37
I00
sg38
S'R'
sbsg47
(irule
ConstantPhoneme
p3304
(dp3305
S'p'
Vb
sbsg25
Vb ---> m / [ +low ] _ 
p3306
sba(irule
Rule
p3307
(dp3308
g15
(irule
Guard
p3309
(dp3310
g18
I00
sg19
(lp3311
(irule
FeatureMatrix
p3312
(dp3313
g23
(lp3314
(I01
S'tense'
p3315
tp3316
asg25
V[ +tense ]
p3317
sbasg35
I00
sg25
g3317
sg37
I00
sg38
S'L'
sbsg39
(irule
ConstantPhoneme
p3318
(dp3319
S'p'
Vm
sbsg43
(irule
Guard
p3320
(dp3321
g18
I00
sg19
(lp3322
sg35
I00
sg25
V
sg37
I00
sg38
S'R'
sbsg47
(irule
ConstantPhoneme
p3323
(dp3324
S'p'
Vb
sbsg25
Vb ---> m / [ +tense ] _ 
p3325
sba(irule
Rule
p3326
(dp3327
g15
(irule
Guard
p3328
(dp3329
g18
I00
sg19
(lp3330
(irule
ConstantPhoneme
p3331
(dp3332
S'p'
Va
sbasg35
I00
sg25
Va
sg37
I00
sg38
S'L'
sbsg39
(irule
ConstantPhoneme
p3333
(dp3334
S'p'
Vm
sbsg43
(irule
Guard
p3335
(dp3336
g18
I00
sg19
(lp3337
sg35
I00
sg25
V
sg37
I00
sg38
S'R'
sbsg47
(irule
FeatureMatrix
p3338
(dp3339
g23
(lp3340
(I01
g3222
tp3341
asg25
V[ +voice ]
p3342
sbsg25
V[ +voice ] ---> m / a _ 
p3343
sba(irule
Rule
p3344
(dp3345
g15
(irule
Guard
p3346
(dp3347
g18
I00
sg19
(lp3348
(irule
FeatureMatrix
p3349
(dp3350
g23
(lp3351
(I01
S'vowel'
p3352
tp3353
asg25
V[ +vowel ]
p3354
sbasg35
I00
sg25
g3354
sg37
I00
sg38
S'L'
sbsg39
(irule
ConstantPhoneme
p3355
(dp3356
S'p'
Vm
sbsg43
(irule
Guard
p3357
(dp3358
g18
I00
sg19
(lp3359
sg35
I00
sg25
V
sg37
I00
sg38
S'R'
sbsg47
(irule
ConstantPhoneme
p3360
(dp3361
S'p'
Vb
sbsg25
Vb ---> m / [ +vowel ] _ 
p3362
sba(irule
Rule
p3363
(dp3364
g15
(irule
Guard
p3365
(dp3366
g18
I00
sg19
(lp3367
(irule
FeatureMatrix
p3368
(dp3369
g23
(lp3370
(I01
g3211
tp3371
asg25
V[ +low ]
p3372
sbasg35
I00
sg25
g3372
sg37
I00
sg38
S'L'
sbsg39
(irule
FeatureMatrix
p3373
(dp3374
g23
(lp3375
(I01
S'nasal'
p3376
tp3377
asg25
V[ +nasal ]
p3378
sbsg43
(irule
Guard
p3379
(dp3380
g18
I00
sg19
(lp3381
sg35
I00
sg25
V
sg37
I00
sg38
S'R'
sbsg47
(irule
ConstantPhoneme
p3382
(dp3383
S'p'
Vb
sbsg25
Vb ---> [ +nasal ] / [ +low ] _ 
p3384
sba(irule
Rule
p3385
(dp3386
g15
(irule
Guard
p3387
(dp3388
g18
I00
sg19
(lp3389
(irule
ConstantPhoneme
p3390
(dp3391
S'p'
Va
sbasg35
I00
sg25
Va
sg37
I00
sg38
S'L'
sbsg39
(irule
ConstantPhoneme
p3392
(dp3393
S'p'
Vm
sbsg43
(irule
Guard
p3394
(dp3395
g18
I00
sg19
(lp3396
sg35
I00
sg25
V
sg37
I00
sg38
S'R'
sbsg47
(irule
FeatureMatrix
p3397
(dp3398
g23
(lp3399
(I00
g3285
tp3400
asg25
V[ -coronal ]
p3401
sbsg25
V[ -coronal ] ---> m / a _ 
p3402
sba(irule
Rule
p3403
(dp3404
g15
(irule
Guard
p3405
(dp3406
g18
I00
sg19
(lp3407
(irule
FeatureMatrix
p3408
(dp3409
g23
(lp3410
(I01
S'continuant'
p3411
tp3412
asg25
V[ +continuant ]
p3413
sbasg35
I00
sg25
g3413
sg37
I00
sg38
S'L'
sbsg39
(irule
ConstantPhoneme
p3414
(dp3415
S'p'
Vm
sbsg43
(irule
Guard
p3416
(dp3417
g18
I00
sg19
(lp3418
sg35
I00
sg25
V
sg37
I00
sg38
S'R'
sbsg47
(irule
ConstantPhoneme
p3419
(dp3420
S'p'
Vb
sbsg25
Vb ---> m / [ +continuant ] _ 
p3421
sba(irule
Rule
p3422
(dp3423
g15
(irule
Guard
p3424
(dp3425
g18
I00
sg19
(lp3426
(irule
FeatureMatrix
p3427
(dp3428
g23
(lp3429
(I01
S'back'
p3430
tp3431
asg25
V[ +back ]
p3432
sbasg35
I00
sg25
g3432
sg37
I00
sg38
S'L'
sbsg39
(irule
ConstantPhoneme
p3433
(dp3434
S'p'
Vm
sbsg43
(irule
Guard
p3435
(dp3436
g18
I00
sg19
(lp3437
sg35
I00
sg25
V
sg37
I00
sg38
S'R'
sbsg47
(irule
ConstantPhoneme
p3438
(dp3439
S'p'
Vb
sbsg25
Vb ---> m / [ +back ] _ 
p3440
sba(irule
Rule
p3441
(dp3442
g15
(irule
Guard
p3443
(dp3444
g18
I00
sg19
(lp3445
(irule
ConstantPhoneme
p3446
(dp3447
S'p'
Va
sbasg35
I00
sg25
Va
sg37
I00
sg38
S'L'
sbsg39
(irule
ConstantPhoneme
p3448
(dp3449
S'p'
Vm
sbsg43
(irule
Guard
p3450
(dp3451
g18
I00
sg19
(lp3452
sg35
I00
sg25
V
sg37
I00
sg38
S'R'
sbsg47
(irule
ConstantPhoneme
p3453
(dp3454
S'p'
Vb
sbsg25
Vb ---> m / a _ 
p3455
sba(irule
Rule
p3456
(dp3457
g15
(irule
Guard
p3458
(dp3459
g18
I00
sg19
(lp3460
(irule
FeatureMatrix
p3461
(dp3462
g23
(lp3463
(I01
g3315
tp3464
asg25
V[ +tense ]
p3465
sbasg35
I00
sg25
g3465
sg37
I00
sg38
S'L'
sbsg39
(irule
FeatureMatrix
p3466
(dp3467
g23
(lp3468
(I01
g3376
tp3469
asg25
V[ +nasal ]
p3470
sbsg43
(irule
Guard
p3471
(dp3472
g18
I00
sg19
(lp3473
sg35
I00
sg25
V
sg37
I00
sg38
S'R'
sbsg47
(irule
ConstantPhoneme
p3474
(dp3475
S'p'
Vb
sbsg25
Vb ---> [ +nasal ] / [ +tense ] _ 
p3476
sba(irule
Rule
p3477
(dp3478
g15
(irule
Guard
p3479
(dp3480
g18
I00
sg19
(lp3481
(irule
FeatureMatrix
p3482
(dp3483
g23
(lp3484
(I01
g3352
tp3485
asg25
V[ +vowel ]
p3486
sbasg35
I00
sg25
g3486
sg37
I00
sg38
S'L'
sbsg39
(irule
FeatureMatrix
p3487
(dp3488
g23
(lp3489
(I01
g3376
tp3490
asg25
V[ +nasal ]
p3491
sbsg43
(irule
Guard
p3492
(dp3493
g18
I00
sg19
(lp3494
sg35
I00
sg25
V
sg37
I00
sg38
S'R'
sbsg47
(irule
ConstantPhoneme
p3495
(dp3496
S'p'
Vb
sbsg25
Vb ---> [ +nasal ] / [ +vowel ] _ 
p3497
sba(irule
Rule
p3498
(dp3499
g15
(irule
Guard
p3500
(dp3501
g18
I00
sg19
(lp3502
(irule
FeatureMatrix
p3503
(dp3504
g23
(lp3505
(I00
g3256
tp3506
asg25
V[ -anterior ]
p3507
sbasg35
I00
sg25
g3507
sg37
I00
sg38
S'L'
sbsg39
(irule
FeatureMatrix
p3508
(dp3509
g23
(lp3510
(I01
g3376
tp3511
asg25
V[ +nasal ]
p3512
sbsg43
(irule
Guard
p3513
(dp3514
g18
I00
sg19
(lp3515
sg35
I00
sg25
V
sg37
I00
sg38
S'R'
sbsg47
(irule
ConstantPhoneme
p3516
(dp3517
S'p'
Vb
sbsg25
Vb ---> [ +nasal ] / [ -anterior ] _ 
p3518
sba(irule
Rule
p3519
(dp3520
g15
(irule
Guard
p3521
(dp3522
g18
I00
sg19
(lp3523
(irule
FeatureMatrix
p3524
(dp3525
g23
(lp3526
(I01
g3430
tp3527
asg25
V[ +back ]
p3528
sbasg35
I00
sg25
g3528
sg37
I00
sg38
S'L'
sbsg39
(irule
FeatureMatrix
p3529
(dp3530
g23
(lp3531
(I01
g3376
tp3532
asg25
V[ +nasal ]
p3533
sbsg43
(irule
Guard
p3534
(dp3535
g18
I00
sg19
(lp3536
sg35
I00
sg25
V
sg37
I00
sg38
S'R'
sbsg47
(irule
ConstantPhoneme
p3537
(dp3538
S'p'
Vb
sbsg25
Vb ---> [ +nasal ] / [ +back ] _ 
p3539
sba(irule
Rule
p3540
(dp3541
g15
(irule
Guard
p3542
(dp3543
g18
I00
sg19
(lp3544
(irule
FeatureMatrix
p3545
(dp3546
g23
(lp3547
(I01
g3411
tp3548
asg25
V[ +continuant ]
p3549
sbasg35
I00
sg25
g3549
sg37
I00
sg38
S'L'
sbsg39
(irule
FeatureMatrix
p3550
(dp3551
g23
(lp3552
(I01
g3376
tp3553
asg25
V[ +nasal ]
p3554
sbsg43
(irule
Guard
p3555
(dp3556
g18
I00
sg19
(lp3557
sg35
I00
sg25
V
sg37
I00
sg38
S'R'
sbsg47
(irule
ConstantPhoneme
p3558
(dp3559
S'p'
Vb
sbsg25
Vb ---> [ +nasal ] / [ +continuant ] _ 
p3560
sba(irule
Rule
p3561
(dp3562
g15
(irule
Guard
p3563
(dp3564
g18
I00
sg19
(lp3565
(irule
ConstantPhoneme
p3566
(dp3567
S'p'
Va
sbasg35
I00
sg25
Va
sg37
I00
sg38
S'L'
sbsg39
(irule
FeatureMatrix
p3568
(dp3569
g23
(lp3570
(I01
g3376
tp3571
asg25
V[ +nasal ]
p3572
sbsg43
(irule
Guard
p3573
(dp3574
g18
I00
sg19
(lp3575
sg35
I00
sg25
V
sg37
I00
sg38
S'R'
sbsg47
(irule
ConstantPhoneme
p3576
(dp3577
S'p'
Vb
sbsg25
Vb ---> [ +nasal ] / a _ 
p3578
sba(irule
Rule
p3579
(dp3580
g15
(irule
Guard
p3581
(dp3582
g18
I00
sg19
(lp3583
(irule
FeatureMatrix
p3584
(dp3585
g23
(lp3586
(I01
g3211
tp3587
a(I00
S'sibilant'
p3588
tp3589
asg25
V[ +low -sibilant ]
p3590
sba(irule
FeatureMatrix
p3591
(dp3592
g23
(lp3593
sg25
V[  ]
p3594
sbasg35
I00
sg25
V[  ] [ +low -sibilant ]
p3595
sg37
I00
sg38
S'L'
sbsg39
(irule
ConstantPhoneme
p3596
(dp3597
S'p'
Vm
sbsg43
(irule
Guard
p3598
(dp3599
g18
I00
sg19
(lp3600
sg35
I00
sg25
V
sg37
I00
sg38
S'R'
sbsg47
(irule
FeatureMatrix
p3601
(dp3602
g23
(lp3603
sg25
V[  ]
p3604
sbsg25
V[  ] ---> m / [  ] [ +low -sibilant ] _ 
p3605
sba(irule
Rule
p3606
(dp3607
g15
(irule
Guard
p3608
(dp3609
g18
I00
sg19
(lp3610
(irule
FeatureMatrix
p3611
(dp3612
g23
(lp3613
(I01
g3211
tp3614
asg25
V[ +low ]
p3615
sba(irule
FeatureMatrix
p3616
(dp3617
g23
(lp3618
(I00
g3352
tp3619
asg25
V[ -vowel ]
p3620
sbasg35
I00
sg25
V[ -vowel ] [ +low ]
p3621
sg37
I00
sg38
S'L'
sbsg39
(irule
ConstantPhoneme
p3622
(dp3623
S'p'
Vm
sbsg43
(irule
Guard
p3624
(dp3625
g18
I00
sg19
(lp3626
sg35
I00
sg25
V
sg37
I00
sg38
S'R'
sbsg47
(irule
FeatureMatrix
p3627
(dp3628
g23
(lp3629
sg25
V[  ]
p3630
sbsg25
V[  ] ---> m / [ -vowel ] [ +low ] _ 
p3631
sba(irule
Rule
p3632
(dp3633
g15
(irule
Guard
p3634
(dp3635
g18
I00
sg19
(lp3636
(irule
FeatureMatrix
p3637
(dp3638
g23
(lp3639
(I01
g3211
tp3640
asg25
V[ +low ]
p3641
sbasg35
I00
sg25
g3641
sg37
I00
sg38
S'L'
sbsg39
(irule
ConstantPhoneme
p3642
(dp3643
S'p'
Vm
sbsg43
(irule
Guard
p3644
(dp3645
g18
I00
sg19
(lp3646
sg35
I00
sg25
V
sg37
I00
sg38
S'R'
sbsg47
(irule
FeatureMatrix
p3647
(dp3648
g23
(lp3649
(I00
g3588
tp3650
a(I01
g3222
tp3651
asg25
V[ +voice -sibilant ]
p3652
sbsg25
V[ +voice -sibilant ] ---> m / [ +low ] _ 
p3653
sba(irule
Rule
p3654
(dp3655
g15
(irule
Guard
p3656
(dp3657
g18
I00
sg19
(lp3658
(irule
FeatureMatrix
p3659
(dp3660
g23
(lp3661
(I01
g3211
tp3662
a(I01
g3222
tp3663
asg25
V[ +low +voice ]
p3664
sbasg35
I00
sg25
g3664
sg37
I00
sg38
S'L'
sbsg39
(irule
ConstantPhoneme
p3665
(dp3666
S'p'
Vm
sbsg43
(irule
Guard
p3667
(dp3668
g18
I00
sg19
(lp3669
sg35
I00
sg25
V
sg37
I00
sg38
S'R'
sbsg47
(irule
FeatureMatrix
p3670
(dp3671
g23
(lp3672
(I01
g3222
tp3673
asg25
V[ +voice ]
p3674
sbsg25
V[ +voice ] ---> m / [ +low +voice ] _ 
p3675
sba(irule
Rule
p3676
(dp3677
g15
(irule
Guard
p3678
(dp3679
g18
I00
sg19
(lp3680
(irule
FeatureMatrix
p3681
(dp3682
g23
(lp3683
(I01
g3211
tp3684
asg25
V[ +low ]
p3685
sba(irule
FeatureMatrix
p3686
(dp3687
g23
(lp3688
sg25
V[  ]
p3689
sbasg35
I00
sg25
V[  ] [ +low ]
p3690
sg37
I00
sg38
S'L'
sbsg39
(irule
ConstantPhoneme
p3691
(dp3692
S'p'
Vm
sbsg43
(irule
Guard
p3693
(dp3694
g18
I00
sg19
(lp3695
sg35
I00
sg25
V
sg37
I00
sg38
S'R'
sbsg47
(irule
FeatureMatrix
p3696
(dp3697
g23
(lp3698
(I00
g3211
tp3699
asg25
V[ -low ]
p3700
sbsg25
V[ -low ] ---> m / [  ] [ +low ] _ 
p3701
sba(irule
Rule
p3702
(dp3703
g15
(irule
Guard
p3704
(dp3705
g18
I00
sg19
(lp3706
(irule
FeatureMatrix
p3707
(dp3708
g23
(lp3709
(I01
g3211
tp3710
asg25
V[ +low ]
p3711
sba(irule
FeatureMatrix
p3712
(dp3713
g23
(lp3714
(I00
S'liquid'
tp3715
asg25
V[ -liquid ]
p3716
sbasg35
I00
sg25
V[ -liquid ] [ +low ]
p3717
sg37
I00
sg38
S'L'
sbsg39
(irule
ConstantPhoneme
p3718
(dp3719
S'p'
Vm
sbsg43
(irule
Guard
p3720
(dp3721
g18
I00
sg19
(lp3722
sg35
I00
sg25
V
sg37
I00
sg38
S'R'
sbsg47
(irule
FeatureMatrix
p3723
(dp3724
g23
(lp3725
sg25
V[  ]
p3726
sbsg25
V[  ] ---> m / [ -liquid ] [ +low ] _ 
p3727
sba(irule
Rule
p3728
(dp3729
g15
(irule
Guard
p3730
(dp3731
g18
I00
sg19
(lp3732
(irule
FeatureMatrix
p3733
(dp3734
g23
(lp3735
(I01
g3211
tp3736
asg25
V[ +low ]
p3737
sbasg35
I00
sg25
g3737
sg37
I00
sg38
S'L'
sbsg39
(irule
ConstantPhoneme
p3738
(dp3739
S'p'
Vm
sbsg43
(irule
Guard
p3740
(dp3741
g18
I00
sg19
(lp3742
sg35
I00
sg25
V
sg37
I00
sg38
S'R'
sbsg47
(irule
FeatureMatrix
p3743
(dp3744
g23
(lp3745
(I00
g3285
tp3746
a(I00
g3352
tp3747
asg25
V[ -coronal -vowel ]
p3748
sbsg25
V[ -coronal -vowel ] ---> m / [ +low ] _ 
p3749
sba(irule
Rule
p3750
(dp3751
g15
(irule
Guard
p3752
(dp3753
g18
I00
sg19
(lp3754
(irule
FeatureMatrix
p3755
(dp3756
g23
(lp3757
(I01
g3211
tp3758
asg25
V[ +low ]
p3759
sbasg35
I00
sg25
g3759
sg37
I00
sg38
S'L'
sbsg39
(irule
ConstantPhoneme
p3760
(dp3761
S'p'
Vm
sbsg43
(irule
Guard
p3762
(dp3763
g18
I00
sg19
(lp3764
sg35
I00
sg25
V
sg37
I00
sg38
S'R'
sbsg47
(irule
FeatureMatrix
p3765
(dp3766
g23
(lp3767
(I00
g3352
tp3768
a(I01
g3222
tp3769
asg25
V[ +voice -vowel ]
p3770
sbsg25
V[ +voice -vowel ] ---> m / [ +low ] _ 
p3771
sba(irule
Rule
p3772
(dp3773
g15
(irule
Guard
p3774
(dp3775
g18
I00
sg19
(lp3776
(irule
FeatureMatrix
p3777
(dp3778
g23
(lp3779
(I01
g3211
tp3780
asg25
V[ +low ]
p3781
sbasg35
I00
sg25
g3781
sg37
I00
sg38
S'L'
sbsg39
(irule
ConstantPhoneme
p3782
(dp3783
S'p'
Vm
sbsg43
(irule
Guard
p3784
(dp3785
g18
I00
sg19
(lp3786
sg35
I00
sg25
V
sg37
I00
sg38
S'R'
sbsg47
(irule
FeatureMatrix
p3787
(dp3788
g23
(lp3789
(I00
g3315
tp3790
a(I01
g3222
tp3791
asg25
V[ +voice -tense ]
p3792
sbsg25
V[ +voice -tense ] ---> m / [ +low ] _ 
p3793
sba(irule
Rule
p3794
(dp3795
g15
(irule
Guard
p3796
(dp3797
g18
I00
sg19
(lp3798
(irule
FeatureMatrix
p3799
(dp3800
g23
(lp3801
(I00
g3256
tp3802
a(I01
g3211
tp3803
asg25
V[ +low -anterior ]
p3804
sbasg35
I00
sg25
g3804
sg37
I00
sg38
S'L'
sbsg39
(irule
ConstantPhoneme
p3805
(dp3806
S'p'
Vm
sbsg43
(irule
Guard
p3807
(dp3808
g18
I00
sg19
(lp3809
sg35
I00
sg25
V
sg37
I00
sg38
S'R'
sbsg47
(irule
FeatureMatrix
p3810
(dp3811
g23
(lp3812
(I01
g3222
tp3813
asg25
V[ +voice ]
p3814
sbsg25
V[ +voice ] ---> m / [ +low -anterior ] _ 
p3815
sba(irule
Rule
p3816
(dp3817
g15
(irule
Guard
p3818
(dp3819
g18
I00
sg19
(lp3820
(irule
FeatureMatrix
p3821
(dp3822
g23
(lp3823
(I01
g3211
tp3824
asg25
V[ +low ]
p3825
sba(irule
FeatureMatrix
p3826
(dp3827
g23
(lp3828
sg25
V[  ]
p3829
sbasg35
I00
sg25
V[  ] [ +low ]
p3830
sg37
I00
sg38
S'L'
sbsg39
(irule
ConstantPhoneme
p3831
(dp3832
S'p'
Vm
sbsg43
(irule
Guard
p3833
(dp3834
g18
I00
sg19
(lp3835
sg35
I00
sg25
V
sg37
I00
sg38
S'R'
sbsg47
(irule
FeatureMatrix
p3836
(dp3837
g23
(lp3838
(I00
g3588
tp3839
asg25
V[ -sibilant ]
p3840
sbsg25
V[ -sibilant ] ---> m / [  ] [ +low ] _ 
p3841
sba(irule
Rule
p3842
(dp3843
g15
(irule
Guard
p3844
(dp3845
g18
I00
sg19
(lp3846
(irule
FeatureMatrix
p3847
(dp3848
g23
(lp3849
(I00
g3256
tp3850
a(I01
g3211
tp3851
asg25
V[ +low -anterior ]
p3852
sba(irule
FeatureMatrix
p3853
(dp3854
g23
(lp3855
sg25
V[  ]
p3856
sbasg35
I00
sg25
V[  ] [ +low -anterior ]
p3857
sg37
I00
sg38
S'L'
sbsg39
(irule
ConstantPhoneme
p3858
(dp3859
S'p'
Vm
sbsg43
(irule
Guard
p3860
(dp3861
g18
I00
sg19
(lp3862
sg35
I00
sg25
V
sg37
I00
sg38
S'R'
sbsg47
(irule
FeatureMatrix
p3863
(dp3864
g23
(lp3865
sg25
V[  ]
p3866
sbsg25
V[  ] ---> m / [  ] [ +low -anterior ] _ 
p3867
sba(irule
Rule
p3868
(dp3869
g15
(irule
Guard
p3870
(dp3871
g18
I01
sg19
(lp3872
(irule
FeatureMatrix
p3873
(dp3874
g23
(lp3875
sg25
V[  ]
p3876
sba(irule
FeatureMatrix
p3877
(dp3878
g23
(lp3879
sg25
V[  ]
p3880
sbasg35
I00
sg25
V# [  ] [  ]
p3881
sg37
I00
sg38
S'L'
sbsg39
(irule
ConstantPhoneme
p3882
(dp3883
S'p'
Vm
sbsg43
(irule
Guard
p3884
(dp3885
g18
I00
sg19
(lp3886
sg35
I00
sg25
V
sg37
I00
sg38
S'R'
sbsg47
(irule
ConstantPhoneme
p3887
(dp3888
S'p'
Vb
sbsg25
Vb ---> m / # [  ] [  ] _ 
p3889
sba(irule
Rule
p3890
(dp3891
g15
(irule
Guard
p3892
(dp3893
g18
I00
sg19
(lp3894
(irule
FeatureMatrix
p3895
(dp3896
g23
(lp3897
(I00
g3256
tp3898
a(I01
g3222
tp3899
asg25
V[ +voice -anterior ]
p3900
sbasg35
I00
sg25
g3900
sg37
I00
sg38
S'L'
sbsg39
(irule
ConstantPhoneme
p3901
(dp3902
S'p'
Vm
sbsg43
(irule
Guard
p3903
(dp3904
g18
I00
sg19
(lp3905
sg35
I00
sg25
V
sg37
I00
sg38
S'R'
sbsg47
(irule
ConstantPhoneme
p3906
(dp3907
S'p'
Vb
sbsg25
Vb ---> m / [ +voice -anterior ] _ 
p3908
sba(irule
Rule
p3909
(dp3910
g15
(irule
Guard
p3911
(dp3912
g18
I00
sg19
(lp3913
(irule
FeatureMatrix
p3914
(dp3915
g23
(lp3916
(I01
g3211
tp3917
asg25
V[ +low ]
p3918
sba(irule
FeatureMatrix
p3919
(dp3920
g23
(lp3921
(I00
g3588
tp3922
asg25
V[ -sibilant ]
p3923
sbasg35
I00
sg25
V[ -sibilant ] [ +low ]
p3924
sg37
I00
sg38
S'L'
sbsg39
(irule
ConstantPhoneme
p3925
(dp3926
S'p'
Vm
sbsg43
(irule
Guard
p3927
(dp3928
g18
I00
sg19
(lp3929
sg35
I00
sg25
V
sg37
I00
sg38
S'R'
sbsg47
(irule
FeatureMatrix
p3930
(dp3931
g23
(lp3932
sg25
V[  ]
p3933
sbsg25
V[  ] ---> m / [ -sibilant ] [ +low ] _ 
p3934
sba(irule
Rule
p3935
(dp3936
g15
(irule
Guard
p3937
(dp3938
g18
I00
sg19
(lp3939
(irule
FeatureMatrix
p3940
(dp3941
g23
(lp3942
(I00
g3256
tp3943
asg25
V[ -anterior ]
p3944
sba(irule
ConstantPhoneme
p3945
(dp3946
S'p'
Vk
sbasg35
I00
sg25
Vk [ -anterior ]
p3947
sg37
I00
sg38
S'L'
sbsg39
(irule
ConstantPhoneme
p3948
(dp3949
S'p'
Vm
sbsg43
(irule
Guard
p3950
(dp3951
g18
I00
sg19
(lp3952
sg35
I00
sg25
V
sg37
I00
sg38
S'R'
sbsg47
(irule
FeatureMatrix
p3953
(dp3954
g23
(lp3955
sg25
V[  ]
p3956
sbsg25
V[  ] ---> m / k [ -anterior ] _ 
p3957
sba(irule
Rule
p3958
(dp3959
g15
(irule
Guard
p3960
(dp3961
g18
I00
sg19
(lp3962
(irule
FeatureMatrix
p3963
(dp3964
g23
(lp3965
(I01
g3211
tp3966
a(I01
g3222
tp3967
asg25
V[ +low +voice ]
p3968
sba(irule
FeatureMatrix
p3969
(dp3970
g23
(lp3971
sg25
V[  ]
p3972
sbasg35
I00
sg25
V[  ] [ +low +voice ]
p3973
sg37
I00
sg38
S'L'
sbsg39
(irule
ConstantPhoneme
p3974
(dp3975
S'p'
Vm
sbsg43
(irule
Guard
p3976
(dp3977
g18
I00
sg19
(lp3978
sg35
I00
sg25
V
sg37
I00
sg38
S'R'
sbsg47
(irule
FeatureMatrix
p3979
(dp3980
g23
(lp3981
sg25
V[  ]
p3982
sbsg25
V[  ] ---> m / [  ] [ +low +voice ] _ 
p3983
sba(irule
Rule
p3984
(dp3985
g15
(irule
Guard
p3986
(dp3987
g18
I00
sg19
(lp3988
(irule
FeatureMatrix
p3989
(dp3990
g23
(lp3991
(I01
g3211
tp3992
asg25
V[ +low ]
p3993
sba(irule
FeatureMatrix
p3994
(dp3995
g23
(lp3996
(I00
g3315
tp3997
asg25
V[ -tense ]
p3998
sbasg35
I00
sg25
V[ -tense ] [ +low ]
p3999
sg37
I00
sg38
S'L'
sbsg39
(irule
ConstantPhoneme
p4000
(dp4001
S'p'
Vm
sbsg43
(irule
Guard
p4002
(dp4003
g18
I00
sg19
(lp4004
sg35
I00
sg25
V
sg37
I00
sg38
S'R'
sbsg47
(irule
FeatureMatrix
p4005
(dp4006
g23
(lp4007
sg25
V[  ]
p4008
sbsg25
V[  ] ---> m / [ -tense ] [ +low ] _ 
p4009
sba(irule
Rule
p4010
(dp4011
g15
(irule
Guard
p4012
(dp4013
g18
I00
sg19
(lp4014
(irule
FeatureMatrix
p4015
(dp4016
g23
(lp4017
(I01
g3211
tp4018
a(I01
g3222
tp4019
asg25
V[ +low +voice ]
p4020
sbasg35
I00
sg25
g4020
sg37
I00
sg38
S'L'
sbsg39
(irule
ConstantPhoneme
p4021
(dp4022
S'p'
Vm
sbsg43
(irule
Guard
p4023
(dp4024
g18
I00
sg19
(lp4025
sg35
I00
sg25
V
sg37
I00
sg38
S'R'
sbsg47
(irule
FeatureMatrix
p4026
(dp4027
g23
(lp4028
(I00
g3285
tp4029
asg25
V[ -coronal ]
p4030
sbsg25
V[ -coronal ] ---> m / [ +low +voice ] _ 
p4031
sba(irule
Rule
p4032
(dp4033
g15
(irule
Guard
p4034
(dp4035
g18
I00
sg19
(lp4036
(irule
FeatureMatrix
p4037
(dp4038
g23
(lp4039
(I01
g3211
tp4040
a(I00
g3588
tp4041
asg25
V[ +low -sibilant ]
p4042
sbasg35
I00
sg25
g4042
sg37
I00
sg38
S'L'
sbsg39
(irule
ConstantPhoneme
p4043
(dp4044
S'p'
Vm
sbsg43
(irule
Guard
p4045
(dp4046
g18
I00
sg19
(lp4047
sg35
I00
sg25
V
sg37
I00
sg38
S'R'
sbsg47
(irule
FeatureMatrix
p4048
(dp4049
g23
(lp4050
(I01
g3222
tp4051
asg25
V[ +voice ]
p4052
sbsg25
V[ +voice ] ---> m / [ +low -sibilant ] _ 
p4053
sba(irule
Rule
p4054
(dp4055
g15
(irule
Guard
p4056
(dp4057
g18
I00
sg19
(lp4058
(irule
FeatureMatrix
p4059
(dp4060
g23
(lp4061
(I01
g3211
tp4062
asg25
V[ +low ]
p4063
sbasg35
I00
sg25
g4063
sg37
I00
sg38
S'L'
sbsg39
(irule
ConstantPhoneme
p4064
(dp4065
S'p'
Vm
sbsg43
(irule
Guard
p4066
(dp4067
g18
I00
sg19
(lp4068
sg35
I00
sg25
V
sg37
I00
sg38
S'R'
sbsg47
(irule
FeatureMatrix
p4069
(dp4070
g23
(lp4071
(I00
g3285
tp4072
a(I00
g3211
tp4073
asg25
V[ -coronal -low ]
p4074
sbsg25
V[ -coronal -low ] ---> m / [ +low ] _ 
p4075
sba(irule
Rule
p4076
(dp4077
g15
(irule
Guard
p4078
(dp4079
g18
I00
sg19
(lp4080
(irule
ConstantPhoneme
p4081
(dp4082
S'p'
Va
sbasg35
I00
sg25
Va
sg37
I00
sg38
S'L'
sbsg39
(irule
ConstantPhoneme
p4083
(dp4084
S'p'
Vm
sbsg43
(irule
Guard
p4085
(dp4086
g18
I00
sg19
(lp4087
sg35
I00
sg25
V
sg37
I00
sg38
S'R'
sbsg47
(irule
FeatureMatrix
p4088
(dp4089
g23
(lp4090
(I00
g3352
tp4091
a(I01
g3222
tp4092
asg25
V[ +voice -vowel ]
p4093
sbsg25
V[ +voice -vowel ] ---> m / a _ 
p4094
sba(irule
Rule
p4095
(dp4096
g15
(irule
Guard
p4097
(dp4098
g18
I00
sg19
(lp4099
(irule
FeatureMatrix
p4100
(dp4101
g23
(lp4102
(I00
g3256
tp4103
asg25
V[ -anterior ]
p4104
sbasg35
I00
sg25
g4104
sg37
I00
sg38
S'L'
sbsg39
(irule
ConstantPhoneme
p4105
(dp4106
S'p'
Vm
sbsg43
(irule
Guard
p4107
(dp4108
g18
I00
sg19
(lp4109
sg35
I00
sg25
V
sg37
I00
sg38
S'R'
sbsg47
(irule
FeatureMatrix
p4110
(dp4111
g23
(lp4112
(I00
S'sonorant'
p4113
tp4114
a(I01
g3222
tp4115
asg25
V[ +voice -sonorant ]
p4116
sbsg25
V[ +voice -sonorant ] ---> m / [ -anterior ] _ 
p4117
sba(irule
Rule
p4118
(dp4119
g15
(irule
Guard
p4120
(dp4121
g18
I00
sg19
(lp4122
(irule
FeatureMatrix
p4123
(dp4124
g23
(lp4125
(I00
g3256
tp4126
asg25
V[ -anterior ]
p4127
sba(irule
FeatureMatrix
p4128
(dp4129
g23
(lp4130
sg25
V[  ]
p4131
sbasg35
I00
sg25
V[  ] [ -anterior ]
p4132
sg37
I00
sg38
S'L'
sbsg39
(irule
ConstantPhoneme
p4133
(dp4134
S'p'
Vm
sbsg43
(irule
Guard
p4135
(dp4136
g18
I00
sg19
(lp4137
sg35
I00
sg25
V
sg37
I00
sg38
S'R'
sbsg47
(irule
ConstantPhoneme
p4138
(dp4139
S'p'
Vb
sbsg25
Vb ---> m / [  ] [ -anterior ] _ 
p4140
sba(irule
Rule
p4141
(dp4142
g15
(irule
Guard
p4143
(dp4144
g18
I00
sg19
(lp4145
(irule
FeatureMatrix
p4146
(dp4147
g23
(lp4148
(I00
g3256
tp4149
a(I00
g3285
tp4150
asg25
V[ -anterior -coronal ]
p4151
sbasg35
I00
sg25
g4151
sg37
I00
sg38
S'L'
sbsg39
(irule
ConstantPhoneme
p4152
(dp4153
S'p'
Vm
sbsg43
(irule
Guard
p4154
(dp4155
g18
I00
sg19
(lp4156
sg35
I00
sg25
V
sg37
I00
sg38
S'R'
sbsg47
(irule
ConstantPhoneme
p4157
(dp4158
S'p'
Vb
sbsg25
Vb ---> m / [ -anterior -coronal ] _ 
p4159
sba(irule
Rule
p4160
(dp4161
g15
(irule
Guard
p4162
(dp4163
g18
I00
sg19
(lp4164
(irule
FeatureMatrix
p4165
(dp4166
g23
(lp4167
(I01
g3211
tp4168
asg25
V[ +low ]
p4169
sba(irule
FeatureMatrix
p4170
(dp4171
g23
(lp4172
sg25
V[  ]
p4173
sbasg35
I00
sg25
V[  ] [ +low ]
p4174
sg37
I00
sg38
S'L'
sbsg39
(irule
ConstantPhoneme
p4175
(dp4176
S'p'
Vm
sbsg43
(irule
Guard
p4177
(dp4178
g18
I00
sg19
(lp4179
sg35
I00
sg25
V
sg37
I00
sg38
S'R'
sbsg47
(irule
FeatureMatrix
p4180
(dp4181
g23
(lp4182
(I00
g3285
tp4183
asg25
V[ -coronal ]
p4184
sbsg25
V[ -coronal ] ---> m / [  ] [ +low ] _ 
p4185
sba(irule
Rule
p4186
(dp4187
g15
(irule
Guard
p4188
(dp4189
g18
I00
sg19
(lp4190
(irule
FeatureMatrix
p4191
(dp4192
g23
(lp4193
(I00
g3256
tp4194
a(I01
g3352
tp4195
asg25
V[ +vowel -anterior ]
p4196
sbasg35
I00
sg25
g4196
sg37
I00
sg38
S'L'
sbsg39
(irule
ConstantPhoneme
p4197
(dp4198
S'p'
Vm
sbsg43
(irule
Guard
p4199
(dp4200
g18
I00
sg19
(lp4201
sg35
I00
sg25
V
sg37
I00
sg38
S'R'
sbsg47
(irule
ConstantPhoneme
p4202
(dp4203
S'p'
Vb
sbsg25
Vb ---> m / [ +vowel -anterior ] _ 
p4204
sba(irule
Rule
p4205
(dp4206
g15
(irule
Guard
p4207
(dp4208
g18
I00
sg19
(lp4209
(irule
FeatureMatrix
p4210
(dp4211
g23
(lp4212
(I00
g3256
tp4213
a(I01
g3211
tp4214
asg25
V[ +low -anterior ]
p4215
sbasg35
I00
sg25
g4215
sg37
I00
sg38
S'L'
sbsg39
(irule
ConstantPhoneme
p4216
(dp4217
S'p'
Vm
sbsg43
(irule
Guard
p4218
(dp4219
g18
I00
sg19
(lp4220
sg35
I00
sg25
V
sg37
I00
sg38
S'R'
sbsg47
(irule
FeatureMatrix
p4221
(dp4222
g23
(lp4223
(I00
g3285
tp4224
asg25
V[ -coronal ]
p4225
sbsg25
V[ -coronal ] ---> m / [ +low -anterior ] _ 
p4226
sba(irule
Rule
p4227
(dp4228
g15
(irule
Guard
p4229
(dp4230
g18
I00
sg19
(lp4231
(irule
FeatureMatrix
p4232
(dp4233
g23
(lp4234
(I00
S'delayedRelease'
p4235
tp4236
a(I01
g3211
tp4237
asg25
V[ +low -delayedRelease ]
p4238
sba(irule
FeatureMatrix
p4239
(dp4240
g23
(lp4241
sg25
V[  ]
p4242
sbasg35
I00
sg25
V[  ] [ +low -delayedRelease ]
p4243
sg37
I00
sg38
S'L'
sbsg39
(irule
ConstantPhoneme
p4244
(dp4245
S'p'
Vm
sbsg43
(irule
Guard
p4246
(dp4247
g18
I00
sg19
(lp4248
sg35
I00
sg25
V
sg37
I00
sg38
S'R'
sbsg47
(irule
FeatureMatrix
p4249
(dp4250
g23
(lp4251
sg25
V[  ]
p4252
sbsg25
V[  ] ---> m / [  ] [ +low -delayedRelease ] _ 
p4253
sba(irule
Rule
p4254
(dp4255
g15
(irule
Guard
p4256
(dp4257
g18
I00
sg19
(lp4258
(irule
FeatureMatrix
p4259
(dp4260
g23
(lp4261
(I00
S'rounded'
p4262
tp4263
a(I01
g3430
tp4264
asg25
V[ +back -rounded ]
p4265
sbasg35
I00
sg25
g4265
sg37
I00
sg38
S'L'
sbsg39
(irule
ConstantPhoneme
p4266
(dp4267
S'p'
Vm
sbsg43
(irule
Guard
p4268
(dp4269
g18
I00
sg19
(lp4270
sg35
I00
sg25
V
sg37
I00
sg38
S'R'
sbsg47
(irule
ConstantPhoneme
p4271
(dp4272
S'p'
Vb
sbsg25
Vb ---> m / [ +back -rounded ] _ 
p4273
sba(irule
Rule
p4274
(dp4275
g15
(irule
Guard
p4276
(dp4277
g18
I00
sg19
(lp4278
(irule
FeatureMatrix
p4279
(dp4280
g23
(lp4281
(I01
g3211
tp4282
asg25
V[ +low ]
p4283
sbasg35
I00
sg25
g4283
sg37
I00
sg38
S'L'
sbsg39
(irule
ConstantPhoneme
p4284
(dp4285
S'p'
Vm
sbsg43
(irule
Guard
p4286
(dp4287
g18
I00
sg19
(lp4288
sg35
I00
sg25
V
sg37
I00
sg38
S'R'
sbsg47
(irule
FeatureMatrix
p4289
(dp4290
g23
(lp4291
(I00
g3285
tp4292
a(I00
g3588
tp4293
asg25
V[ -coronal -sibilant ]
p4294
sbsg25
V[ -coronal -sibilant ] ---> m / [ +low ] _ 
p4295
sba(irule
Rule
p4296
(dp4297
g15
(irule
Guard
p4298
(dp4299
g18
I00
sg19
(lp4300
(irule
FeatureMatrix
p4301
(dp4302
g23
(lp4303
(I00
g3256
tp4304
asg25
V[ -anterior ]
p4305
sba(irule
FeatureMatrix
p4306
(dp4307
g23
(lp4308
(I01
g3430
tp4309
asg25
V[ +back ]
p4310
sbasg35
I00
sg25
V[ +back ] [ -anterior ]
p4311
sg37
I00
sg38
S'L'
sbsg39
(irule
ConstantPhoneme
p4312
(dp4313
S'p'
Vm
sbsg43
(irule
Guard
p4314
(dp4315
g18
I00
sg19
(lp4316
sg35
I00
sg25
V
sg37
I00
sg38
S'R'
sbsg47
(irule
FeatureMatrix
p4317
(dp4318
g23
(lp4319
sg25
V[  ]
p4320
sbsg25
V[  ] ---> m / [ +back ] [ -anterior ] _ 
p4321
sba(irule
Rule
p4322
(dp4323
g15
(irule
Guard
p4324
(dp4325
g18
I00
sg19
(lp4326
(irule
FeatureMatrix
p4327
(dp4328
g23
(lp4329
(I01
g3211
tp4330
a(I01
g3352
tp4331
asg25
V[ +low +vowel ]
p4332
sbasg35
I00
sg25
g4332
sg37
I00
sg38
S'L'
sbsg39
(irule
ConstantPhoneme
p4333
(dp4334
S'p'
Vm
sbsg43
(irule
Guard
p4335
(dp4336
g18
I00
sg19
(lp4337
sg35
I00
sg25
V
sg37
I00
sg38
S'R'
sbsg47
(irule
FeatureMatrix
p4338
(dp4339
g23
(lp4340
(I01
g3222
tp4341
asg25
V[ +voice ]
p4342
sbsg25
V[ +voice ] ---> m / [ +low +vowel ] _ 
p4343
sba(irule
Rule
p4344
(dp4345
g15
(irule
Guard
p4346
(dp4347
g18
I00
sg19
(lp4348
(irule
FeatureMatrix
p4349
(dp4350
g23
(lp4351
(I01
g3411
tp4352
asg25
V[ +continuant ]
p4353
sba(irule
ConstantPhoneme
p4354
(dp4355
S'p'
Vk
sbasg35
I00
sg25
Vk [ +continuant ]
p4356
sg37
I00
sg38
S'L'
sbsg39
(irule
ConstantPhoneme
p4357
(dp4358
S'p'
Vm
sbsg43
(irule
Guard
p4359
(dp4360
g18
I00
sg19
(lp4361
sg35
I00
sg25
V
sg37
I00
sg38
S'R'
sbsg47
(irule
FeatureMatrix
p4362
(dp4363
g23
(lp4364
sg25
V[  ]
p4365
sbsg25
V[  ] ---> m / k [ +continuant ] _ 
p4366
sba(irule
Rule
p4367
(dp4368
g15
(irule
Guard
p4369
(dp4370
g18
I00
sg19
(lp4371
(irule
FeatureMatrix
p4372
(dp4373
g23
(lp4374
(I00
g3256
tp4375
a(I01
g3222
tp4376
asg25
V[ +voice -anterior ]
p4377
sbasg35
I00
sg25
g4377
sg37
I00
sg38
S'L'
sbsg39
(irule
FeatureMatrix
p4378
(dp4379
g23
(lp4380
(I01
g3376
tp4381
asg25
V[ +nasal ]
p4382
sbsg43
(irule
Guard
p4383
(dp4384
g18
I00
sg19
(lp4385
sg35
I00
sg25
V
sg37
I00
sg38
S'R'
sbsg47
(irule
ConstantPhoneme
p4386
(dp4387
S'p'
Vb
sbsg25
Vb ---> [ +nasal ] / [ +voice -anterior ] _ 
p4388
sba(irule
Rule
p4389
(dp4390
g15
(irule
Guard
p4391
(dp4392
g18
I00
sg19
(lp4393
(irule
FeatureMatrix
p4394
(dp4395
g23
(lp4396
(I00
g3256
tp4397
a(I00
g3588
tp4398
asg25
V[ -anterior -sibilant ]
p4399
sbasg35
I00
sg25
g4399
sg37
I00
sg38
S'L'
sbsg39
(irule
ConstantPhoneme
p4400
(dp4401
S'p'
Vm
sbsg43
(irule
Guard
p4402
(dp4403
g18
I00
sg19
(lp4404
sg35
I00
sg25
V
sg37
I00
sg38
S'R'
sbsg47
(irule
ConstantPhoneme
p4405
(dp4406
S'p'
Vb
sbsg25
Vb ---> m / [ -anterior -sibilant ] _ 
p4407
sba(irule
Rule
p4408
(dp4409
g15
(irule
Guard
p4410
(dp4411
g18
I00
sg19
(lp4412
(irule
FeatureMatrix
p4413
(dp4414
g23
(lp4415
(I01
g3211
tp4416
asg25
V[ +low ]
p4417
sbasg35
I00
sg25
g4417
sg37
I00
sg38
S'L'
sbsg39
(irule
ConstantPhoneme
p4418
(dp4419
S'p'
Vm
sbsg43
(irule
Guard
p4420
(dp4421
g18
I00
sg19
(lp4422
sg35
I00
sg25
V
sg37
I00
sg38
S'R'
sbsg47
(irule
FeatureMatrix
p4423
(dp4424
g23
(lp4425
(I00
g3376
tp4426
a(I01
g3222
tp4427
asg25
V[ +voice -nasal ]
p4428
sbsg25
V[ +voice -nasal ] ---> m / [ +low ] _ 
p4429
sba(irule
Rule
p4430
(dp4431
g15
(irule
Guard
p4432
(dp4433
g18
I00
sg19
(lp4434
(irule
FeatureMatrix
p4435
(dp4436
g23
(lp4437
(I01
g3315
tp4438
asg25
V[ +tense ]
p4439
sbasg35
I00
sg25
g4439
sg37
I00
sg38
S'L'
sbsg39
(irule
ConstantPhoneme
p4440
(dp4441
S'p'
Vm
sbsg43
(irule
Guard
p4442
(dp4443
g18
I00
sg19
(lp4444
sg35
I00
sg25
V
sg37
I00
sg38
S'R'
sbsg47
(irule
FeatureMatrix
p4445
(dp4446
g23
(lp4447
(I00
g3285
tp4448
a(I01
g3222
tp4449
asg25
V[ +voice -coronal ]
p4450
sbsg25
V[ +voice -coronal ] ---> m / [ +tense ] _ 
p4451
sba(irule
Rule
p4452
(dp4453
g15
(irule
Guard
p4454
(dp4455
g18
I00
sg19
(lp4456
(irule
FeatureMatrix
p4457
(dp4458
g23
(lp4459
(I01
g3211
tp4460
asg25
V[ +low ]
p4461
sba(irule
FeatureMatrix
p4462
(dp4463
g23
(lp4464
(I00
g4262
tp4465
asg25
V[ -rounded ]
p4466
sbasg35
I00
sg25
V[ -rounded ] [ +low ]
p4467
sg37
I00
sg38
S'L'
sbsg39
(irule
ConstantPhoneme
p4468
(dp4469
S'p'
Vm
sbsg43
(irule
Guard
p4470
(dp4471
g18
I00
sg19
(lp4472
sg35
I00
sg25
V
sg37
I00
sg38
S'R'
sbsg47
(irule
FeatureMatrix
p4473
(dp4474
g23
(lp4475
sg25
V[  ]
p4476
sbsg25
V[  ] ---> m / [ -rounded ] [ +low ] _ 
p4477
sba(irule
Rule
p4478
(dp4479
g15
(irule
Guard
p4480
(dp4481
g18
I00
sg19
(lp4482
(irule
ConstantPhoneme
p4483
(dp4484
S'p'
Va
sbasg35
I00
sg25
Va
sg37
I00
sg38
S'L'
sbsg39
(irule
ConstantPhoneme
p4485
(dp4486
S'p'
Vm
sbsg43
(irule
Guard
p4487
(dp4488
g18
I00
sg19
(lp4489
sg35
I00
sg25
V
sg37
I00
sg38
S'R'
sbsg47
(irule
FeatureMatrix
p4490
(dp4491
g23
(lp4492
(I00
g3588
tp4493
a(I01
g3222
tp4494
asg25
V[ +voice -sibilant ]
p4495
sbsg25
V[ +voice -sibilant ] ---> m / a _ 
p4496
sba(irule
Rule
p4497
(dp4498
g15
(irule
Guard
p4499
(dp4500
g18
I00
sg19
(lp4501
(irule
FeatureMatrix
p4502
(dp4503
g23
(lp4504
(I01
g3430
tp4505
asg25
V[ +back ]
p4506
sba(irule
FeatureMatrix
p4507
(dp4508
g23
(lp4509
sg25
V[  ]
p4510
sbasg35
I00
sg25
V[  ] [ +back ]
p4511
sg37
I00
sg38
S'L'
sbsg39
(irule
ConstantPhoneme
p4512
(dp4513
S'p'
Vm
sbsg43
(irule
Guard
p4514
(dp4515
g18
I00
sg19
(lp4516
sg35
I00
sg25
V
sg37
I00
sg38
S'R'
sbsg47
(irule
ConstantPhoneme
p4517
(dp4518
S'p'
Vb
sbsg25
Vb ---> m / [  ] [ +back ] _ 
p4519
sba(irule
Rule
p4520
(dp4521
g15
(irule
Guard
p4522
(dp4523
g18
I00
sg19
(lp4524
(irule
FeatureMatrix
p4525
(dp4526
g23
(lp4527
(I00
g3285
tp4528
a(I01
g3211
tp4529
asg25
V[ +low -coronal ]
p4530
sba(irule
FeatureMatrix
p4531
(dp4532
g23
(lp4533
sg25
V[  ]
p4534
sbasg35
I00
sg25
V[  ] [ +low -coronal ]
p4535
sg37
I00
sg38
S'L'
sbsg39
(irule
ConstantPhoneme
p4536
(dp4537
S'p'
Vm
sbsg43
(irule
Guard
p4538
(dp4539
g18
I00
sg19
(lp4540
sg35
I00
sg25
V
sg37
I00
sg38
S'R'
sbsg47
(irule
FeatureMatrix
p4541
(dp4542
g23
(lp4543
sg25
V[  ]
p4544
sbsg25
V[  ] ---> m / [  ] [ +low -coronal ] _ 
p4545
sba(irule
Rule
p4546
(dp4547
g15
(irule
Guard
p4548
(dp4549
g18
I00
sg19
(lp4550
(irule
FeatureMatrix
p4551
(dp4552
g23
(lp4553
(I01
g3211
tp4554
asg25
V[ +low ]
p4555
sba(irule
FeatureMatrix
p4556
(dp4557
g23
(lp4558
sg25
V[  ]
p4559
sbasg35
I00
sg25
V[  ] [ +low ]
p4560
sg37
I00
sg38
S'L'
sbsg39
(irule
ConstantPhoneme
p4561
(dp4562
S'p'
Vm
sbsg43
(irule
Guard
p4563
(dp4564
g18
I00
sg19
(lp4565
sg35
I00
sg25
V
sg37
I00
sg38
S'R'
sbsg47
(irule
FeatureMatrix
p4566
(dp4567
g23
(lp4568
(I00
g3352
tp4569
asg25
V[ -vowel ]
p4570
sbsg25
V[ -vowel ] ---> m / [  ] [ +low ] _ 
p4571
sba(irule
Rule
p4572
(dp4573
g15
(irule
Guard
p4574
(dp4575
g18
I00
sg19
(lp4576
(irule
FeatureMatrix
p4577
(dp4578
g23
(lp4579
(I00
g3256
tp4580
asg25
V[ -anterior ]
p4581
sbasg35
I00
sg25
g4581
sg37
I00
sg38
S'L'
sbsg39
(irule
FeatureMatrix
p4582
(dp4583
g23
(lp4584
(I01
g3376
tp4585
asg25
V[ +nasal ]
p4586
sbsg43
(irule
Guard
p4587
(dp4588
g18
I00
sg19
(lp4589
sg35
I00
sg25
V
sg37
I00
sg38
S'R'
sbsg47
(irule
FeatureMatrix
p4590
(dp4591
g23
(lp4592
(I00
g4113
tp4593
a(I01
g3222
tp4594
asg25
V[ +voice -sonorant ]
p4595
sbsg25
V[ +voice -sonorant ] ---> [ +nasal ] / [ -anterior ] _ 
p4596
sba(irule
Rule
p4597
(dp4598
g15
(irule
Guard
p4599
(dp4600
g18
I00
sg19
(lp4601
(irule
FeatureMatrix
p4602
(dp4603
g23
(lp4604
(I00
g3256
tp4605
a(I01
g4113
tp4606
asg25
V[ +sonorant -anterior ]
p4607
sbasg35
I00
sg25
g4607
sg37
I00
sg38
S'L'
sbsg39
(irule
ConstantPhoneme
p4608
(dp4609
S'p'
Vm
sbsg43
(irule
Guard
p4610
(dp4611
g18
I00
sg19
(lp4612
sg35
I00
sg25
V
sg37
I00
sg38
S'R'
sbsg47
(irule
ConstantPhoneme
p4613
(dp4614
S'p'
Vb
sbsg25
Vb ---> m / [ +sonorant -anterior ] _ 
p4615
sba(irule
Rule
p4616
(dp4617
g15
(irule
Guard
p4618
(dp4619
g18
I00
sg19
(lp4620
(irule
FeatureMatrix
p4621
(dp4622
g23
(lp4623
(I01
g3211
tp4624
asg25
V[ +low ]
p4625
sba(irule
FeatureMatrix
p4626
(dp4627
g23
(lp4628
(I00
g3211
tp4629
asg25
V[ -low ]
p4630
sbasg35
I00
sg25
V[ -low ] [ +low ]
p4631
sg37
I00
sg38
S'L'
sbsg39
(irule
ConstantPhoneme
p4632
(dp4633
S'p'
Vm
sbsg43
(irule
Guard
p4634
(dp4635
g18
I00
sg19
(lp4636
sg35
I00
sg25
V
sg37
I00
sg38
S'R'
sbsg47
(irule
FeatureMatrix
p4637
(dp4638
g23
(lp4639
sg25
V[  ]
p4640
sbsg25
V[  ] ---> m / [ -low ] [ +low ] _ 
p4641
sba(irule
Rule
p4642
(dp4643
g15
(irule
Guard
p4644
(dp4645
g18
I00
sg19
(lp4646
(irule
FeatureMatrix
p4647
(dp4648
g23
(lp4649
(I01
g3211
tp4650
asg25
V[ +low ]
p4651
sbasg35
I00
sg25
g4651
sg37
I00
sg38
S'L'
sbsg39
(irule
ConstantPhoneme
p4652
(dp4653
S'p'
Vm
sbsg43
(irule
Guard
p4654
(dp4655
g18
I00
sg19
(lp4656
sg35
I00
sg25
V
sg37
I00
sg38
S'R'
sbsg47
(irule
FeatureMatrix
p4657
(dp4658
g23
(lp4659
(I00
g3285
tp4660
a(I00
g3315
tp4661
asg25
V[ -coronal -tense ]
p4662
sbsg25
V[ -coronal -tense ] ---> m / [ +low ] _ 
p4663
sba(irule
Rule
p4664
(dp4665
g15
(irule
Guard
p4666
(dp4667
g18
I00
sg19
(lp4668
(irule
FeatureMatrix
p4669
(dp4670
g23
(lp4671
(I01
g3430
tp4672
a(I01
g3352
tp4673
asg25
V[ +back +vowel ]
p4674
sbasg35
I00
sg25
g4674
sg37
I00
sg38
S'L'
sbsg39
(irule
ConstantPhoneme
p4675
(dp4676
S'p'
Vm
sbsg43
(irule
Guard
p4677
(dp4678
g18
I00
sg19
(lp4679
sg35
I00
sg25
V
sg37
I00
sg38
S'R'
sbsg47
(irule
FeatureMatrix
p4680
(dp4681
g23
(lp4682
(I00
g3285
tp4683
asg25
V[ -coronal ]
p4684
sbsg25
V[ -coronal ] ---> m / [ +back +vowel ] _ 
p4685
sba(irule
Rule
p4686
(dp4687
g15
(irule
Guard
p4688
(dp4689
g18
I00
sg19
(lp4690
(irule
ConstantPhoneme
p4691
(dp4692
S'p'
Va
sba(irule
FeatureMatrix
p4693
(dp4694
g23
(lp4695
(I00
g3588
tp4696
asg25
V[ -sibilant ]
p4697
sbasg35
I00
sg25
V[ -sibilant ] a
p4698
sg37
I00
sg38
S'L'
sbsg39
(irule
ConstantPhoneme
p4699
(dp4700
S'p'
Vm
sbsg43
(irule
Guard
p4701
(dp4702
g18
I00
sg19
(lp4703
sg35
I00
sg25
V
sg37
I00
sg38
S'R'
sbsg47
(irule
FeatureMatrix
p4704
(dp4705
g23
(lp4706
sg25
V[  ]
p4707
sbsg25
V[  ] ---> m / [ -sibilant ] a _ 
p4708
sba(irule
Rule
p4709
(dp4710
g15
(irule
Guard
p4711
(dp4712
g18
I00
sg19
(lp4713
(irule
FeatureMatrix
p4714
(dp4715
g23
(lp4716
(I01
g3211
tp4717
asg25
V[ +low ]
p4718
sba(irule
FeatureMatrix
p4719
(dp4720
g23
(lp4721
(I00
g3376
tp4722
asg25
V[ -nasal ]
p4723
sbasg35
I00
sg25
V[ -nasal ] [ +low ]
p4724
sg37
I00
sg38
S'L'
sbsg39
(irule
ConstantPhoneme
p4725
(dp4726
S'p'
Vm
sbsg43
(irule
Guard
p4727
(dp4728
g18
I00
sg19
(lp4729
sg35
I00
sg25
V
sg37
I00
sg38
S'R'
sbsg47
(irule
FeatureMatrix
p4730
(dp4731
g23
(lp4732
sg25
V[  ]
p4733
sbsg25
V[  ] ---> m / [ -nasal ] [ +low ] _ 
p4734
sba(irule
Rule
p4735
(dp4736
g15
(irule
Guard
p4737
(dp4738
g18
I00
sg19
(lp4739
(irule
FeatureMatrix
p4740
(dp4741
g23
(lp4742
(I00
g3256
tp4743
a(I00
S'lateral'
p4744
tp4745
asg25
V[ -anterior -lateral ]
p4746
sbasg35
I00
sg25
g4746
sg37
I00
sg38
S'L'
sbsg39
(irule
ConstantPhoneme
p4747
(dp4748
S'p'
Vm
sbsg43
(irule
Guard
p4749
(dp4750
g18
I00
sg19
(lp4751
sg35
I00
sg25
V
sg37
I00
sg38
S'R'
sbsg47
(irule
ConstantPhoneme
p4752
(dp4753
S'p'
Vb
sbsg25
Vb ---> m / [ -anterior -lateral ] _ 
p4754
sba(irule
Rule
p4755
(dp4756
g15
(irule
Guard
p4757
(dp4758
g18
I00
sg19
(lp4759
(irule
FeatureMatrix
p4760
(dp4761
g23
(lp4762
(I01
g3211
tp4763
asg25
V[ +low ]
p4764
sbasg35
I00
sg25
g4764
sg37
I00
sg38
S'L'
sbsg39
(irule
ConstantPhoneme
p4765
(dp4766
S'p'
Vm
sbsg43
(irule
Guard
p4767
(dp4768
g18
I00
sg19
(lp4769
sg35
I00
sg25
V
sg37
I00
sg38
S'R'
sbsg47
(irule
FeatureMatrix
p4770
(dp4771
g23
(lp4772
(I00
g4113
tp4773
a(I01
g3222
tp4774
asg25
V[ +voice -sonorant ]
p4775
sbsg25
V[ +voice -sonorant ] ---> m / [ +low ] _ 
p4776
sba(irule
Rule
p4777
(dp4778
g15
(irule
Guard
p4779
(dp4780
g18
I00
sg19
(lp4781
(irule
FeatureMatrix
p4782
(dp4783
g23
(lp4784
(I01
g3211
tp4785
asg25
V[ +low ]
p4786
sbasg35
I00
sg25
g4786
sg37
I00
sg38
S'L'
sbsg39
(irule
ConstantPhoneme
p4787
(dp4788
S'p'
Vm
sbsg43
(irule
Guard
p4789
(dp4790
g18
I00
sg19
(lp4791
sg35
I00
sg25
V
sg37
I00
sg38
S'R'
sbsg47
(irule
FeatureMatrix
p4792
(dp4793
g23
(lp4794
(I01
g3256
tp4795
a(I01
g3222
tp4796
asg25
V[ +anterior +voice ]
p4797
sbsg25
V[ +anterior +voice ] ---> m / [ +low ] _ 
p4798
sba(irule
Rule
p4799
(dp4800
g15
(irule
Guard
p4801
(dp4802
g18
I00
sg19
(lp4803
(irule
FeatureMatrix
p4804
(dp4805
g23
(lp4806
(I00
g3256
tp4807
a(I00
g3588
tp4808
asg25
V[ -anterior -sibilant ]
p4809
sbasg35
I00
sg25
g4809
sg37
I00
sg38
S'L'
sbsg39
(irule
FeatureMatrix
p4810
(dp4811
g23
(lp4812
(I01
g3376
tp4813
asg25
V[ +nasal ]
p4814
sbsg43
(irule
Guard
p4815
(dp4816
g18
I00
sg19
(lp4817
sg35
I00
sg25
V
sg37
I00
sg38
S'R'
sbsg47
(irule
ConstantPhoneme
p4818
(dp4819
S'p'
Vb
sbsg25
Vb ---> [ +nasal ] / [ -anterior -sibilant ] _ 
p4820
sba(irule
Rule
p4821
(dp4822
g15
(irule
Guard
p4823
(dp4824
g18
I00
sg19
(lp4825
(irule
FeatureMatrix
p4826
(dp4827
g23
(lp4828
(I01
g3211
tp4829
asg25
V[ +low ]
p4830
sbasg35
I00
sg25
g4830
sg37
I00
sg38
S'L'
sbsg39
(irule
ConstantPhoneme
p4831
(dp4832
S'p'
Vm
sbsg43
(irule
Guard
p4833
(dp4834
g18
I00
sg19
(lp4835
sg35
I00
sg25
V
sg37
I00
sg38
S'R'
sbsg47
(irule
FeatureMatrix
p4836
(dp4837
g23
(lp4838
(I00
g3285
tp4839
a(I01
g3222
tp4840
asg25
V[ +voice -coronal ]
p4841
sbsg25
V[ +voice -coronal ] ---> m / [ +low ] _ 
p4842
sba(irule
Rule
p4843
(dp4844
g15
(irule
Guard
p4845
(dp4846
g18
I00
sg19
(lp4847
(irule
FeatureMatrix
p4848
(dp4849
g23
(lp4850
(I01
g3352
tp4851
a(I00
g3588
tp4852
asg25
V[ +vowel -sibilant ]
p4853
sbasg35
I00
sg25
g4853
sg37
I00
sg38
S'L'
sbsg39
(irule
FeatureMatrix
p4854
(dp4855
g23
(lp4856
(I01
g3376
tp4857
asg25
V[ +nasal ]
p4858
sbsg43
(irule
Guard
p4859
(dp4860
g18
I00
sg19
(lp4861
sg35
I00
sg25
V
sg37
I00
sg38
S'R'
sbsg47
(irule
ConstantPhoneme
p4862
(dp4863
S'p'
Vb
sbsg25
Vb ---> [ +nasal ] / [ +vowel -sibilant ] _ 
p4864
sba(irule
Rule
p4865
(dp4866
g15
(irule
Guard
p4867
(dp4868
g18
I00
sg19
(lp4869
(irule
FeatureMatrix
p4870
(dp4871
g23
(lp4872
(I01
g3211
tp4873
asg25
V[ +low ]
p4874
sbasg35
I00
sg25
g4874
sg37
I00
sg38
S'L'
sbsg39
(irule
ConstantPhoneme
p4875
(dp4876
S'p'
Vm
sbsg43
(irule
Guard
p4877
(dp4878
g18
I00
sg19
(lp4879
sg35
I00
sg25
V
sg37
I00
sg38
S'R'
sbsg47
(irule
FeatureMatrix
p4880
(dp4881
g23
(lp4882
(I00
g3411
tp4883
a(I01
g3222
tp4884
asg25
V[ +voice -continuant ]
p4885
sbsg25
V[ +voice -continuant ] ---> m / [ +low ] _ 
p4886
sba(irule
Rule
p4887
(dp4888
g15
(irule
Guard
p4889
(dp4890
g18
I00
sg19
(lp4891
(irule
FeatureMatrix
p4892
(dp4893
g23
(lp4894
(I01
g3211
tp4895
asg25
V[ +low ]
p4896
sba(irule
FeatureMatrix
p4897
(dp4898
g23
(lp4899
(I00
g4235
tp4900
asg25
V[ -delayedRelease ]
p4901
sbasg35
I00
sg25
V[ -delayedRelease ] [ +low ]
p4902
sg37
I00
sg38
S'L'
sbsg39
(irule
ConstantPhoneme
p4903
(dp4904
S'p'
Vm
sbsg43
(irule
Guard
p4905
(dp4906
g18
I00
sg19
(lp4907
sg35
I00
sg25
V
sg37
I00
sg38
S'R'
sbsg47
(irule
FeatureMatrix
p4908
(dp4909
g23
(lp4910
sg25
V[  ]
p4911
sbsg25
V[  ] ---> m / [ -delayedRelease ] [ +low ] _ 
p4912
sba(irule
Rule
p4913
(dp4914
g15
(irule
Guard
p4915
(dp4916
g18
I00
sg19
(lp4917
(irule
FeatureMatrix
p4918
(dp4919
g23
(lp4920
(I01
g3211
tp4921
asg25
V[ +low ]
p4922
sba(irule
FeatureMatrix
p4923
(dp4924
g23
(lp4925
(I00
g3285
tp4926
asg25
V[ -coronal ]
p4927
sbasg35
I00
sg25
V[ -coronal ] [ +low ]
p4928
sg37
I00
sg38
S'L'
sbsg39
(irule
ConstantPhoneme
p4929
(dp4930
S'p'
Vm
sbsg43
(irule
Guard
p4931
(dp4932
g18
I00
sg19
(lp4933
sg35
I00
sg25
V
sg37
I00
sg38
S'R'
sbsg47
(irule
FeatureMatrix
p4934
(dp4935
g23
(lp4936
sg25
V[  ]
p4937
sbsg25
V[  ] ---> m / [ -coronal ] [ +low ] _ 
p4938
sba(irule
Rule
p4939
(dp4940
g15
(irule
Guard
p4941
(dp4942
g18
I00
sg19
(lp4943
(irule
FeatureMatrix
p4944
(dp4945
g23
(lp4946
(I01
g3211
tp4947
asg25
V[ +low ]
p4948
sba(irule
FeatureMatrix
p4949
(dp4950
g23
(lp4951
(I00
g3256
tp4952
asg25
V[ -anterior ]
p4953
sbasg35
I00
sg25
V[ -anterior ] [ +low ]
p4954
sg37
I00
sg38
S'L'
sbsg39
(irule
ConstantPhoneme
p4955
(dp4956
S'p'
Vm
sbsg43
(irule
Guard
p4957
(dp4958
g18
I00
sg19
(lp4959
sg35
I00
sg25
V
sg37
I00
sg38
S'R'
sbsg47
(irule
FeatureMatrix
p4960
(dp4961
g23
(lp4962
sg25
V[  ]
p4963
sbsg25
V[  ] ---> m / [ -anterior ] [ +low ] _ 
p4964
sba(irule
Rule
p4965
(dp4966
g15
(irule
Guard
p4967
(dp4968
g18
I00
sg19
(lp4969
(irule
FeatureMatrix
p4970
(dp4971
g23
(lp4972
(I01
g3211
tp4973
asg25
V[ +low ]
p4974
sbasg35
I00
sg25
g4974
sg37
I00
sg38
S'L'
sbsg39
(irule
ConstantPhoneme
p4975
(dp4976
S'p'
Vm
sbsg43
(irule
Guard
p4977
(dp4978
g18
I00
sg19
(lp4979
sg35
I00
sg25
V
sg37
I00
sg38
S'R'
sbsg47
(irule
FeatureMatrix
p4980
(dp4981
g23
(lp4982
(I00
S'high'
p4983
tp4984
a(I00
g3285
tp4985
asg25
V[ -coronal -high ]
p4986
sbsg25
V[ -coronal -high ] ---> m / [ +low ] _ 
p4987
sba(irule
Rule
p4988
(dp4989
g15
(irule
Guard
p4990
(dp4991
g18
I00
sg19
(lp4992
(irule
FeatureMatrix
p4993
(dp4994
g23
(lp4995
(I01
g3211
tp4996
a(I01
g3222
tp4997
asg25
V[ +low +voice ]
p4998
sbasg35
I00
sg25
g4998
sg37
I00
sg38
S'L'
sbsg39
(irule
ConstantPhoneme
p4999
(dp5000
S'p'
Vm
sbsg43
(irule
Guard
p5001
(dp5002
g18
I00
sg19
(lp5003
sg35
I00
sg25
V
sg37
I00
sg38
S'R'
sbsg47
(irule
ConstantPhoneme
p5004
(dp5005
S'p'
Vb
sbsg25
Vb ---> m / [ +low +voice ] _ 
p5006
sba(irule
Rule
p5007
(dp5008
g15
(irule
Guard
p5009
(dp5010
g18
I00
sg19
(lp5011
(irule
FeatureMatrix
p5012
(dp5013
g23
(lp5014
(I01
g3430
tp5015
a(I00
g4983
tp5016
asg25
V[ +back -high ]
p5017
sbasg35
I00
sg25
g5017
sg37
I00
sg38
S'L'
sbsg39
(irule
ConstantPhoneme
p5018
(dp5019
S'p'
Vm
sbsg43
(irule
Guard
p5020
(dp5021
g18
I00
sg19
(lp5022
sg35
I00
sg25
V
sg37
I00
sg38
S'R'
sbsg47
(irule
FeatureMatrix
p5023
(dp5024
g23
(lp5025
(I01
g3222
tp5026
asg25
V[ +voice ]
p5027
sbsg25
V[ +voice ] ---> m / [ +back -high ] _ 
p5028
sba(irule
Rule
p5029
(dp5030
g15
(irule
Guard
p5031
(dp5032
g18
I00
sg19
(lp5033
(irule
FeatureMatrix
p5034
(dp5035
g23
(lp5036
(I01
g3211
tp5037
asg25
V[ +low ]
p5038
sbasg35
I00
sg25
g5038
sg37
I00
sg38
S'L'
sbsg39
(irule
ConstantPhoneme
p5039
(dp5040
S'p'
Vm
sbsg43
(irule
Guard
p5041
(dp5042
g18
I00
sg19
(lp5043
sg35
I00
sg25
V
sg37
I00
sg38
S'R'
sbsg47
(irule
FeatureMatrix
p5044
(dp5045
g23
(lp5046
(I00
g3376
tp5047
a(I00
g3285
tp5048
asg25
V[ -coronal -nasal ]
p5049
sbsg25
V[ -coronal -nasal ] ---> m / [ +low ] _ 
p5050
sba(irule
Rule
p5051
(dp5052
g15
(irule
Guard
p5053
(dp5054
g18
I00
sg19
(lp5055
(irule
FeatureMatrix
p5056
(dp5057
g23
(lp5058
(I01
g3211
tp5059
a(I01
g3352
tp5060
asg25
V[ +low +vowel ]
p5061
sbasg35
I00
sg25
g5061
sg37
I00
sg38
S'L'
sbsg39
(irule
ConstantPhoneme
p5062
(dp5063
S'p'
Vm
sbsg43
(irule
Guard
p5064
(dp5065
g18
I00
sg19
(lp5066
sg35
I00
sg25
V
sg37
I00
sg38
S'R'
sbsg47
(irule
ConstantPhoneme
p5067
(dp5068
S'p'
Vb
sbsg25
Vb ---> m / [ +low +vowel ] _ 
p5069
sba(irule
Rule
p5070
(dp5071
g15
(irule
Guard
p5072
(dp5073
g18
I00
sg19
(lp5074
(irule
FeatureMatrix
p5075
(dp5076
g23
(lp5077
(I01
g3211
tp5078
asg25
V[ +low ]
p5079
sba(irule
FeatureMatrix
p5080
(dp5081
g23
(lp5082
(I00
g4744
tp5083
asg25
V[ -lateral ]
p5084
sbasg35
I00
sg25
V[ -lateral ] [ +low ]
p5085
sg37
I00
sg38
S'L'
sbsg39
(irule
ConstantPhoneme
p5086
(dp5087
S'p'
Vm
sbsg43
(irule
Guard
p5088
(dp5089
g18
I00
sg19
(lp5090
sg35
I00
sg25
V
sg37
I00
sg38
S'R'
sbsg47
(irule
FeatureMatrix
p5091
(dp5092
g23
(lp5093
sg25
V[  ]
p5094
sbsg25
V[  ] ---> m / [ -lateral ] [ +low ] _ 
p5095
sba(irule
Rule
p5096
(dp5097
g15
(irule
Guard
p5098
(dp5099
g18
I00
sg19
(lp5100
(irule
FeatureMatrix
p5101
(dp5102
g23
(lp5103
(I01
g3211
tp5104
asg25
V[ +low ]
p5105
sba(irule
FeatureMatrix
p5106
(dp5107
g23
(lp5108
sg25
V[  ]
p5109
sbasg35
I00
sg25
V[  ] [ +low ]
p5110
sg37
I00
sg38
S'L'
sbsg39
(irule
ConstantPhoneme
p5111
(dp5112
S'p'
Vm
sbsg43
(irule
Guard
p5113
(dp5114
g18
I00
sg19
(lp5115
sg35
I00
sg25
V
sg37
I00
sg38
S'R'
sbsg47
(irule
FeatureMatrix
p5116
(dp5117
g23
(lp5118
(I01
g3222
tp5119
asg25
V[ +voice ]
p5120
sbsg25
V[ +voice ] ---> m / [  ] [ +low ] _ 
p5121
sba(irule
Rule
p5122
(dp5123
g15
(irule
Guard
p5124
(dp5125
g18
I00
sg19
(lp5126
(irule
FeatureMatrix
p5127
(dp5128
g23
(lp5129
(I01
g3211
tp5130
a(I01
g3352
tp5131
asg25
V[ +low +vowel ]
p5132
sba(irule
FeatureMatrix
p5133
(dp5134
g23
(lp5135
sg25
V[  ]
p5136
sbasg35
I00
sg25
V[  ] [ +low +vowel ]
p5137
sg37
I00
sg38
S'L'
sbsg39
(irule
ConstantPhoneme
p5138
(dp5139
S'p'
Vm
sbsg43
(irule
Guard
p5140
(dp5141
g18
I00
sg19
(lp5142
sg35
I00
sg25
V
sg37
I00
sg38
S'R'
sbsg47
(irule
FeatureMatrix
p5143
(dp5144
g23
(lp5145
sg25
V[  ]
p5146
sbsg25
V[  ] ---> m / [  ] [ +low +vowel ] _ 
p5147
sba(irule
Rule
p5148
(dp5149
g15
(irule
Guard
p5150
(dp5151
g18
I00
sg19
(lp5152
(irule
FeatureMatrix
p5153
(dp5154
g23
(lp5155
(I00
g3285
tp5156
a(I01
g3352
tp5157
asg25
V[ +vowel -coronal ]
p5158
sbasg35
I00
sg25
g5158
sg37
I00
sg38
S'L'
sbsg39
(irule
FeatureMatrix
p5159
(dp5160
g23
(lp5161
(I01
g3376
tp5162
asg25
V[ +nasal ]
p5163
sbsg43
(irule
Guard
p5164
(dp5165
g18
I00
sg19
(lp5166
sg35
I00
sg25
V
sg37
I00
sg38
S'R'
sbsg47
(irule
ConstantPhoneme
p5167
(dp5168
S'p'
Vb
sbsg25
Vb ---> [ +nasal ] / [ +vowel -coronal ] _ 
p5169
sba(irule
Rule
p5170
(dp5171
g15
(irule
Guard
p5172
(dp5173
g18
I00
sg19
(lp5174
(irule
FeatureMatrix
p5175
(dp5176
g23
(lp5177
(I01
g3211
tp5178
asg25
V[ +low ]
p5179
sba(irule
FeatureMatrix
p5180
(dp5181
g23
(lp5182
(I00
g3285
tp5183
asg25
V[ -coronal ]
p5184
sbasg35
I00
sg25
V[ -coronal ] [ +low ]
p5185
sg37
I00
sg38
S'L'
sbsg39
(irule
FeatureMatrix
p5186
(dp5187
g23
(lp5188
(I01
g3376
tp5189
asg25
V[ +nasal ]
p5190
sbsg43
(irule
Guard
p5191
(dp5192
g18
I00
sg19
(lp5193
sg35
I00
sg25
V
sg37
I00
sg38
S'R'
sbsg47
(irule
FeatureMatrix
p5194
(dp5195
g23
(lp5196
sg25
V[  ]
p5197
sbsg25
V[  ] ---> [ +nasal ] / [ -coronal ] [ +low ] _ 
p5198
sba(irule
Rule
p5199
(dp5200
g15
(irule
Guard
p5201
(dp5202
g18
I00
sg19
(lp5203
(irule
FeatureMatrix
p5204
(dp5205
g23
(lp5206
(I01
g3411
tp5207
asg25
V[ +continuant ]
p5208
sba(irule
FeatureMatrix
p5209
(dp5210
g23
(lp5211
(I01
g3430
tp5212
asg25
V[ +back ]
p5213
sbasg35
I00
sg25
V[ +back ] [ +continuant ]
p5214
sg37
I00
sg38
S'L'
sbsg39
(irule
ConstantPhoneme
p5215
(dp5216
S'p'
Vm
sbsg43
(irule
Guard
p5217
(dp5218
g18
I00
sg19
(lp5219
sg35
I00
sg25
V
sg37
I00
sg38
S'R'
sbsg47
(irule
FeatureMatrix
p5220
(dp5221
g23
(lp5222
sg25
V[  ]
p5223
sbsg25
V[  ] ---> m / [ +back ] [ +continuant ] _ 
p5224
sba(irule
Rule
p5225
(dp5226
g15
(irule
Guard
p5227
(dp5228
g18
I00
sg19
(lp5229
(irule
ConstantPhoneme
p5230
(dp5231
S'p'
Va
sba(irule
FeatureMatrix
p5232
(dp5233
g23
(lp5234
(I00
g3222
tp5235
asg25
V[ -voice ]
p5236
sbasg35
I00
sg25
V[ -voice ] a
p5237
sg37
I00
sg38
S'L'
sbsg39
(irule
ConstantPhoneme
p5238
(dp5239
S'p'
Vm
sbsg43
(irule
Guard
p5240
(dp5241
g18
I00
sg19
(lp5242
sg35
I00
sg25
V
sg37
I00
sg38
S'R'
sbsg47
(irule
FeatureMatrix
p5243
(dp5244
g23
(lp5245
sg25
V[  ]
p5246
sbsg25
V[  ] ---> m / [ -voice ] a _ 
p5247
sba(irule
Rule
p5248
(dp5249
g15
(irule
Guard
p5250
(dp5251
g18
I00
sg19
(lp5252
(irule
FeatureMatrix
p5253
(dp5254
g23
(lp5255
(I00
g3256
tp5256
a(I00
g4235
tp5257
asg25
V[ -anterior -delayedRelease ]
p5258
sbasg35
I00
sg25
g5258
sg37
I00
sg38
S'L'
sbsg39
(irule
ConstantPhoneme
p5259
(dp5260
S'p'
Vm
sbsg43
(irule
Guard
p5261
(dp5262
g18
I00
sg19
(lp5263
sg35
I00
sg25
V
sg37
I00
sg38
S'R'
sbsg47
(irule
ConstantPhoneme
p5264
(dp5265
S'p'
Vb
sbsg25
Vb ---> m / [ -anterior -delayedRelease ] _ 
p5266
sba(irule
Rule
p5267
(dp5268
g15
(irule
Guard
p5269
(dp5270
g18
I00
sg19
(lp5271
(irule
FeatureMatrix
p5272
(dp5273
g23
(lp5274
(I00
g3285
tp5275
a(I01
g3211
tp5276
asg25
V[ +low -coronal ]
p5277
sbasg35
I00
sg25
g5277
sg37
I00
sg38
S'L'
sbsg39
(irule
ConstantPhoneme
p5278
(dp5279
S'p'
Vm
sbsg43
(irule
Guard
p5280
(dp5281
g18
I00
sg19
(lp5282
sg35
I00
sg25
V
sg37
I00
sg38
S'R'
sbsg47
(irule
FeatureMatrix
p5283
(dp5284
g23
(lp5285
(I01
g3222
tp5286
asg25
V[ +voice ]
p5287
sbsg25
V[ +voice ] ---> m / [ +low -coronal ] _ 
p5288
sba(irule
Rule
p5289
(dp5290
g15
(irule
Guard
p5291
(dp5292
g18
I00
sg19
(lp5293
(irule
FeatureMatrix
p5294
(dp5295
g23
(lp5296
(I01
g3411
tp5297
a(I01
g3430
tp5298
asg25
V[ +back +continuant ]
p5299
sbasg35
I00
sg25
g5299
sg37
I00
sg38
S'L'
sbsg39
(irule
ConstantPhoneme
p5300
(dp5301
S'p'
Vm
sbsg43
(irule
Guard
p5302
(dp5303
g18
I00
sg19
(lp5304
sg35
I00
sg25
V
sg37
I00
sg38
S'R'
sbsg47
(irule
FeatureMatrix
p5305
(dp5306
g23
(lp5307
(I00
g3285
tp5308
asg25
V[ -coronal ]
p5309
sbsg25
V[ -coronal ] ---> m / [ +back +continuant ] _ 
p5310
sba(irule
Rule
p5311
(dp5312
g15
(irule
Guard
p5313
(dp5314
g18
I00
sg19
(lp5315
(irule
FeatureMatrix
p5316
(dp5317
g23
(lp5318
(I00
g4983
tp5319
a(I01
g3352
tp5320
asg25
V[ +vowel -high ]
p5321
sbasg35
I00
sg25
g5321
sg37
I00
sg38
S'L'
sbsg39
(irule
ConstantPhoneme
p5322
(dp5323
S'p'
Vm
sbsg43
(irule
Guard
p5324
(dp5325
g18
I00
sg19
(lp5326
sg35
I00
sg25
V
sg37
I00
sg38
S'R'
sbsg47
(irule
FeatureMatrix
p5327
(dp5328
g23
(lp5329
(I01
g3222
tp5330
asg25
V[ +voice ]
p5331
sbsg25
V[ +voice ] ---> m / [ +vowel -high ] _ 
p5332
sba(irule
Rule
p5333
(dp5334
g15
(irule
Guard
p5335
(dp5336
g18
I00
sg19
(lp5337
(irule
ConstantPhoneme
p5338
(dp5339
S'p'
Va
sbasg35
I00
sg25
Va
sg37
I00
sg38
S'L'
sbsg39
(irule
ConstantPhoneme
p5340
(dp5341
S'p'
Vm
sbsg43
(irule
Guard
p5342
(dp5343
g18
I00
sg19
(lp5344
sg35
I00
sg25
V
sg37
I00
sg38
S'R'
sbsg47
(irule
FeatureMatrix
p5345
(dp5346
g23
(lp5347
(I00
g3315
tp5348
a(I01
g3222
tp5349
asg25
V[ +voice -tense ]
p5350
sbsg25
V[ +voice -tense ] ---> m / a _ 
p5351
sba(irule
Rule
p5352
(dp5353
g15
(irule
Guard
p5354
(dp5355
g18
I00
sg19
(lp5356
(irule
FeatureMatrix
p5357
(dp5358
g23
(lp5359
(I00
g4983
tp5360
a(I01
g3211
tp5361
asg25
V[ +low -high ]
p5362
sbasg35
I00
sg25
g5362
sg37
I00
sg38
S'L'
sbsg39
(irule
ConstantPhoneme
p5363
(dp5364
S'p'
Vm
sbsg43
(irule
Guard
p5365
(dp5366
g18
I00
sg19
(lp5367
sg35
I00
sg25
V
sg37
I00
sg38
S'R'
sbsg47
(irule
FeatureMatrix
p5368
(dp5369
g23
(lp5370
(I01
g3222
tp5371
asg25
V[ +voice ]
p5372
sbsg25
V[ +voice ] ---> m / [ +low -high ] _ 
p5373
sba(irule
Rule
p5374
(dp5375
g15
(irule
Guard
p5376
(dp5377
g18
I00
sg19
(lp5378
(irule
FeatureMatrix
p5379
(dp5380
g23
(lp5381
(I00
g4983
tp5382
a(I01
g3211
tp5383
asg25
V[ +low -high ]
p5384
sba(irule
FeatureMatrix
p5385
(dp5386
g23
(lp5387
sg25
V[  ]
p5388
sbasg35
I00
sg25
V[  ] [ +low -high ]
p5389
sg37
I00
sg38
S'L'
sbsg39
(irule
ConstantPhoneme
p5390
(dp5391
S'p'
Vm
sbsg43
(irule
Guard
p5392
(dp5393
g18
I00
sg19
(lp5394
sg35
I00
sg25
V
sg37
I00
sg38
S'R'
sbsg47
(irule
FeatureMatrix
p5395
(dp5396
g23
(lp5397
sg25
V[  ]
p5398
sbsg25
V[  ] ---> m / [  ] [ +low -high ] _ 
p5399
sba(irule
Rule
p5400
(dp5401
g15
(irule
Guard
p5402
(dp5403
g18
I00
sg19
(lp5404
(irule
FeatureMatrix
p5405
(dp5406
g23
(lp5407
(I01
g3211
tp5408
asg25
V[ +low ]
p5409
sba(irule
FeatureMatrix
p5410
(dp5411
g23
(lp5412
sg25
V[  ]
p5413
sbasg35
I00
sg25
V[  ] [ +low ]
p5414
sg37
I00
sg38
S'L'
sbsg39
(irule
ConstantPhoneme
p5415
(dp5416
S'p'
Vm
sbsg43
(irule
Guard
p5417
(dp5418
g18
I00
sg19
(lp5419
sg35
I00
sg25
V
sg37
I00
sg38
S'R'
sbsg47
(irule
ConstantPhoneme
p5420
(dp5421
S'p'
Vb
sbsg25
Vb ---> m / [  ] [ +low ] _ 
p5422
sbaa(lp5423
(irule
Rule
p5424
(dp5425
g15
(irule
Guard
p5426
(dp5427
g18
I00
sg19
(lp5428
(irule
FeatureMatrix
p5429
(dp5430
g23
(lp5431
(I00
S'sonorant'
tp5432
asg25
V[ -sonorant ]
p5433
sbasg35
I00
sg25
g5433
sg37
I00
sg38
S'L'
sbsg39
(irule
ConstantPhoneme
p5434
(dp5435
S'p'
Va
sbsg43
(irule
Guard
p5436
(dp5437
g18
I00
sg19
(lp5438
sg35
I00
sg25
V
sg37
I00
sg38
S'R'
sbsg47
(irule
FeatureMatrix
p5439
(dp5440
g23
(lp5441
(I01
S'anterior'
tp5442
a(I01
S'voice'
tp5443
asg25
V[ +anterior +voice ]
p5444
sbsg25
V[ +anterior +voice ] ---> a / [ -sonorant ] _ 
p5445
sba(irule
Rule
p5446
(dp5447
g15
(irule
Guard
p5448
(dp5449
g18
I00
sg19
(lp5450
(irule
FeatureMatrix
p5451
(dp5452
g23
(lp5453
(I00
S'sonorant'
p5454
tp5455
asg25
V[ -sonorant ]
p5456
sbasg35
I00
sg25
g5456
sg37
I00
sg38
S'L'
sbsg39
(irule
ConstantPhoneme
p5457
(dp5458
S'p'
Va
sbsg43
(irule
Guard
p5459
(dp5460
g18
I00
sg19
(lp5461
sg35
I00
sg25
V
sg37
I00
sg38
S'R'
sbsg47
(irule
FeatureMatrix
p5462
(dp5463
g23
(lp5464
(I00
S'continuant'
p5465
tp5466
a(I01
S'voice'
p5467
tp5468
asg25
V[ +voice -continuant ]
p5469
sbsg25
V[ +voice -continuant ] ---> a / [ -sonorant ] _ 
p5470
sba(irule
Rule
p5471
(dp5472
g15
(irule
Guard
p5473
(dp5474
g18
I00
sg19
(lp5475
(irule
FeatureMatrix
p5476
(dp5477
g23
(lp5478
(I00
g5454
tp5479
asg25
V[ -sonorant ]
p5480
sbasg35
I00
sg25
g5480
sg37
I00
sg38
S'L'
sbsg39
(irule
ConstantPhoneme
p5481
(dp5482
S'p'
Va
sbsg43
(irule
Guard
p5483
(dp5484
g18
I00
sg19
(lp5485
sg35
I00
sg25
V
sg37
I00
sg38
S'R'
sbsg47
(irule
FeatureMatrix
p5486
(dp5487
g23
(lp5488
(I00
S'high'
p5489
tp5490
a(I01
g5467
tp5491
asg25
V[ +voice -high ]
p5492
sbsg25
V[ +voice -high ] ---> a / [ -sonorant ] _ 
p5493
sba(irule
Rule
p5494
(dp5495
g15
(irule
Guard
p5496
(dp5497
g18
I00
sg19
(lp5498
(irule
FeatureMatrix
p5499
(dp5500
g23
(lp5501
(I00
g5454
tp5502
asg25
V[ -sonorant ]
p5503
sbasg35
I00
sg25
g5503
sg37
I00
sg38
S'L'
sbsg39
(irule
ConstantPhoneme
p5504
(dp5505
S'p'
Va
sbsg43
(irule
Guard
p5506
(dp5507
g18
I00
sg19
(lp5508
sg35
I00
sg25
V
sg37
I00
sg38
S'R'
sbsg47
(irule
FeatureMatrix
p5509
(dp5510
g23
(lp5511
(I00
S'vowel'
p5512
tp5513
a(I01
g5467
tp5514
asg25
V[ +voice -vowel ]
p5515
sbsg25
V[ +voice -vowel ] ---> a / [ -sonorant ] _ 
p5516
sba(irule
Rule
p5517
(dp5518
g15
(irule
Guard
p5519
(dp5520
g18
I00
sg19
(lp5521
(irule
FeatureMatrix
p5522
(dp5523
g23
(lp5524
(I00
g5454
tp5525
asg25
V[ -sonorant ]
p5526
sbasg35
I00
sg25
g5526
sg37
I00
sg38
S'L'
sbsg39
(irule
ConstantPhoneme
p5527
(dp5528
S'p'
Va
sbsg43
(irule
Guard
p5529
(dp5530
g18
I00
sg19
(lp5531
sg35
I00
sg25
V
sg37
I00
sg38
S'R'
sbsg47
(irule
FeatureMatrix
p5532
(dp5533
g23
(lp5534
(I00
S'tense'
p5535
tp5536
a(I01
g5467
tp5537
asg25
V[ +voice -tense ]
p5538
sbsg25
V[ +voice -tense ] ---> a / [ -sonorant ] _ 
p5539
sba(irule
Rule
p5540
(dp5541
g15
(irule
Guard
p5542
(dp5543
g18
I00
sg19
(lp5544
(irule
FeatureMatrix
p5545
(dp5546
g23
(lp5547
(I00
g5454
tp5548
asg25
V[ -sonorant ]
p5549
sbasg35
I00
sg25
g5549
sg37
I00
sg38
S'L'
sbsg39
(irule
ConstantPhoneme
p5550
(dp5551
S'p'
Va
sbsg43
(irule
Guard
p5552
(dp5553
g18
I00
sg19
(lp5554
sg35
I00
sg25
V
sg37
I00
sg38
S'R'
sbsg47
(irule
FeatureMatrix
p5555
(dp5556
g23
(lp5557
(I00
g5465
tp5558
a(I00
S'lateral'
p5559
tp5560
a(I01
g5467
tp5561
asg25
V[ +voice -continuant -lateral ]
p5562
sbsg25
V[ +voice -continuant -lateral ] ---> a / [ -sonorant ] _ 
p5563
sba(irule
Rule
p5564
(dp5565
g15
(irule
Guard
p5566
(dp5567
g18
I00
sg19
(lp5568
(irule
FeatureMatrix
p5569
(dp5570
g23
(lp5571
(I00
S'nasal'
p5572
tp5573
a(I00
g5535
tp5574
asg25
V[ -nasal -tense ]
p5575
sbasg35
I00
sg25
g5575
sg37
I00
sg38
S'L'
sbsg39
(irule
ConstantPhoneme
p5576
(dp5577
S'p'
Va
sbsg43
(irule
Guard
p5578
(dp5579
g18
I00
sg19
(lp5580
sg35
I00
sg25
V
sg37
I00
sg38
S'R'
sbsg47
(irule
FeatureMatrix
p5581
(dp5582
g23
(lp5583
(I00
g5489
tp5584
a(I01
g5467
tp5585
asg25
V[ +voice -high ]
p5586
sbsg25
V[ +voice -high ] ---> a / [ -nasal -tense ] _ 
p5587
sba(irule
Rule
p5588
(dp5589
g15
(irule
Guard
p5590
(dp5591
g18
I00
sg19
(lp5592
(irule
FeatureMatrix
p5593
(dp5594
g23
(lp5595
(I00
g5454
tp5596
asg25
V[ -sonorant ]
p5597
sbasg35
I00
sg25
g5597
sg37
I00
sg38
S'L'
sbsg39
(irule
ConstantPhoneme
p5598
(dp5599
S'p'
Va
sbsg43
(irule
Guard
p5600
(dp5601
g18
I00
sg19
(lp5602
sg35
I00
sg25
V
sg37
I00
sg38
S'R'
sbsg47
(irule
FeatureMatrix
p5603
(dp5604
g23
(lp5605
(I00
g5489
tp5606
a(I00
S'low'
p5607
tp5608
a(I01
g5467
tp5609
asg25
V[ +voice -high -low ]
p5610
sbsg25
V[ +voice -high -low ] ---> a / [ -sonorant ] _ 
p5611
sba(irule
Rule
p5612
(dp5613
g15
(irule
Guard
p5614
(dp5615
g18
I00
sg19
(lp5616
(irule
FeatureMatrix
p5617
(dp5618
g23
(lp5619
(I00
g5454
tp5620
a(I00
g5512
tp5621
asg25
V[ -sonorant -vowel ]
p5622
sbasg35
I00
sg25
g5622
sg37
I00
sg38
S'L'
sbsg39
(irule
ConstantPhoneme
p5623
(dp5624
S'p'
Va
sbsg43
(irule
Guard
p5625
(dp5626
g18
I00
sg19
(lp5627
sg35
I00
sg25
V
sg37
I00
sg38
S'R'
sbsg47
(irule
FeatureMatrix
p5628
(dp5629
g23
(lp5630
(I01
S'anterior'
p5631
tp5632
a(I01
g5467
tp5633
asg25
V[ +anterior +voice ]
p5634
sbsg25
V[ +anterior +voice ] ---> a / [ -sonorant -vowel ] _ 
p5635
sba(irule
Rule
p5636
(dp5637
g15
(irule
Guard
p5638
(dp5639
g18
I00
sg19
(lp5640
(irule
FeatureMatrix
p5641
(dp5642
g23
(lp5643
(I00
g5572
tp5644
a(I00
g5535
tp5645
asg25
V[ -nasal -tense ]
p5646
sbasg35
I00
sg25
g5646
sg37
I00
sg38
S'L'
sbsg39
(irule
ConstantPhoneme
p5647
(dp5648
S'p'
Va
sbsg43
(irule
Guard
p5649
(dp5650
g18
I00
sg19
(lp5651
sg35
I00
sg25
V
sg37
I00
sg38
S'R'
sbsg47
(irule
FeatureMatrix
p5652
(dp5653
g23
(lp5654
(I01
g5631
tp5655
a(I01
g5467
tp5656
asg25
V[ +anterior +voice ]
p5657
sbsg25
V[ +anterior +voice ] ---> a / [ -nasal -tense ] _ 
p5658
sba(irule
Rule
p5659
(dp5660
g15
(irule
Guard
p5661
(dp5662
g18
I00
sg19
(lp5663
(irule
FeatureMatrix
p5664
(dp5665
g23
(lp5666
(I00
g5572
tp5667
a(I00
g5512
tp5668
asg25
V[ -nasal -vowel ]
p5669
sbasg35
I00
sg25
g5669
sg37
I00
sg38
S'L'
sbsg39
(irule
ConstantPhoneme
p5670
(dp5671
S'p'
Va
sbsg43
(irule
Guard
p5672
(dp5673
g18
I00
sg19
(lp5674
sg35
I00
sg25
V
sg37
I00
sg38
S'R'
sbsg47
(irule
FeatureMatrix
p5675
(dp5676
g23
(lp5677
(I00
g5489
tp5678
a(I01
g5467
tp5679
asg25
V[ +voice -high ]
p5680
sbsg25
V[ +voice -high ] ---> a / [ -nasal -vowel ] _ 
p5681
sba(irule
Rule
p5682
(dp5683
g15
(irule
Guard
p5684
(dp5685
g18
I00
sg19
(lp5686
(irule
FeatureMatrix
p5687
(dp5688
g23
(lp5689
(I00
g5454
tp5690
asg25
V[ -sonorant ]
p5691
sbasg35
I00
sg25
g5691
sg37
I00
sg38
S'L'
sbsg39
(irule
ConstantPhoneme
p5692
(dp5693
S'p'
Va
sbsg43
(irule
Guard
p5694
(dp5695
g18
I00
sg19
(lp5696
sg35
I00
sg25
V
sg37
I00
sg38
S'R'
sbsg47
(irule
FeatureMatrix
p5697
(dp5698
g23
(lp5699
(I00
g5489
tp5700
a(I00
S'sibilant'
p5701
tp5702
a(I01
g5467
tp5703
asg25
V[ +voice -high -sibilant ]
p5704
sbsg25
V[ +voice -high -sibilant ] ---> a / [ -sonorant ] _ 
p5705
sba(irule
Rule
p5706
(dp5707
g15
(irule
Guard
p5708
(dp5709
g18
I00
sg19
(lp5710
(irule
FeatureMatrix
p5711
(dp5712
g23
(lp5713
(I01
g5631
tp5714
a(I00
g5572
tp5715
asg25
V[ +anterior -nasal ]
p5716
sbasg35
I00
sg25
g5716
sg37
I00
sg38
S'L'
sbsg39
(irule
ConstantPhoneme
p5717
(dp5718
S'p'
Va
sbsg43
(irule
Guard
p5719
(dp5720
g18
I00
sg19
(lp5721
sg35
I00
sg25
V
sg37
I00
sg38
S'R'
sbsg47
(irule
FeatureMatrix
p5722
(dp5723
g23
(lp5724
(I01
g5631
tp5725
a(I01
g5467
tp5726
asg25
V[ +anterior +voice ]
p5727
sbsg25
V[ +anterior +voice ] ---> a / [ +anterior -nasal ] _ 
p5728
sba(irule
Rule
p5729
(dp5730
g15
(irule
Guard
p5731
(dp5732
g18
I00
sg19
(lp5733
(irule
FeatureMatrix
p5734
(dp5735
g23
(lp5736
(I00
g5572
tp5737
a(I00
g5535
tp5738
asg25
V[ -nasal -tense ]
p5739
sbasg35
I00
sg25
g5739
sg37
I00
sg38
S'L'
sbsg39
(irule
ConstantPhoneme
p5740
(dp5741
S'p'
Va
sbsg43
(irule
Guard
p5742
(dp5743
g18
I00
sg19
(lp5744
sg35
I00
sg25
V
sg37
I00
sg38
S'R'
sbsg47
(irule
FeatureMatrix
p5745
(dp5746
g23
(lp5747
(I00
g5465
tp5748
a(I01
g5467
tp5749
asg25
V[ +voice -continuant ]
p5750
sbsg25
V[ +voice -continuant ] ---> a / [ -nasal -tense ] _ 
p5751
sba(irule
Rule
p5752
(dp5753
g15
(irule
Guard
p5754
(dp5755
g18
I00
sg19
(lp5756
(irule
FeatureMatrix
p5757
(dp5758
g23
(lp5759
(I00
g5454
tp5760
asg25
V[ -sonorant ]
p5761
sbasg35
I00
sg25
g5761
sg37
I00
sg38
S'L'
sbsg39
(irule
ConstantPhoneme
p5762
(dp5763
S'p'
Va
sbsg43
(irule
Guard
p5764
(dp5765
g18
I00
sg19
(lp5766
sg35
I00
sg25
V
sg37
I00
sg38
S'R'
sbsg47
(irule
FeatureMatrix
p5767
(dp5768
g23
(lp5769
(I00
g5489
tp5770
a(I00
g5512
tp5771
a(I01
g5467
tp5772
asg25
V[ +voice -high -vowel ]
p5773
sbsg25
V[ +voice -high -vowel ] ---> a / [ -sonorant ] _ 
p5774
sba(irule
Rule
p5775
(dp5776
g15
(irule
Guard
p5777
(dp5778
g18
I00
sg19
(lp5779
(irule
FeatureMatrix
p5780
(dp5781
g23
(lp5782
(I01
g5631
tp5783
a(I00
g5572
tp5784
asg25
V[ +anterior -nasal ]
p5785
sbasg35
I00
sg25
g5785
sg37
I00
sg38
S'L'
sbsg39
(irule
ConstantPhoneme
p5786
(dp5787
S'p'
Va
sbsg43
(irule
Guard
p5788
(dp5789
g18
I00
sg19
(lp5790
sg35
I00
sg25
V
sg37
I00
sg38
S'R'
sbsg47
(irule
FeatureMatrix
p5791
(dp5792
g23
(lp5793
(I00
g5489
tp5794
a(I01
g5467
tp5795
asg25
V[ +voice -high ]
p5796
sbsg25
V[ +voice -high ] ---> a / [ +anterior -nasal ] _ 
p5797
sba(irule
Rule
p5798
(dp5799
g15
(irule
Guard
p5800
(dp5801
g18
I00
sg19
(lp5802
(irule
FeatureMatrix
p5803
(dp5804
g23
(lp5805
(I00
g5454
tp5806
asg25
V[ -sonorant ]
p5807
sbasg35
I00
sg25
g5807
sg37
I00
sg38
S'L'
sbsg39
(irule
ConstantPhoneme
p5808
(dp5809
S'p'
Va
sbsg43
(irule
Guard
p5810
(dp5811
g18
I00
sg19
(lp5812
sg35
I00
sg25
V
sg37
I00
sg38
S'R'
sbsg47
(irule
FeatureMatrix
p5813
(dp5814
g23
(lp5815
(I00
g5489
tp5816
a(I00
g5535
tp5817
a(I01
g5467
tp5818
asg25
V[ +voice -high -tense ]
p5819
sbsg25
V[ +voice -high -tense ] ---> a / [ -sonorant ] _ 
p5820
sba(irule
Rule
p5821
(dp5822
g15
(irule
Guard
p5823
(dp5824
g18
I00
sg19
(lp5825
(irule
FeatureMatrix
p5826
(dp5827
g23
(lp5828
(I00
g5454
tp5829
asg25
V[ -sonorant ]
p5830
sbasg35
I00
sg25
g5830
sg37
I00
sg38
S'L'
sbsg39
(irule
ConstantPhoneme
p5831
(dp5832
S'p'
Va
sbsg43
(irule
Guard
p5833
(dp5834
g18
I00
sg19
(lp5835
sg35
I00
sg25
V
sg37
I00
sg38
S'R'
sbsg47
(irule
FeatureMatrix
p5836
(dp5837
g23
(lp5838
(I00
g5465
tp5839
a(I00
g5701
tp5840
a(I01
g5467
tp5841
asg25
V[ +voice -continuant -sibilant ]
p5842
sbsg25
V[ +voice -continuant -sibilant ] ---> a / [ -sonorant ] _ 
p5843
sba(irule
Rule
p5844
(dp5845
g15
(irule
Guard
p5846
(dp5847
g18
I00
sg19
(lp5848
(irule
FeatureMatrix
p5849
(dp5850
g23
(lp5851
(I01
g5631
tp5852
a(I00
g5454
tp5853
asg25
V[ +anterior -sonorant ]
p5854
sbasg35
I00
sg25
g5854
sg37
I00
sg38
S'L'
sbsg39
(irule
ConstantPhoneme
p5855
(dp5856
S'p'
Va
sbsg43
(irule
Guard
p5857
(dp5858
g18
I00
sg19
(lp5859
sg35
I00
sg25
V
sg37
I00
sg38
S'R'
sbsg47
(irule
FeatureMatrix
p5860
(dp5861
g23
(lp5862
(I00
g5489
tp5863
a(I01
g5467
tp5864
asg25
V[ +voice -high ]
p5865
sbsg25
V[ +voice -high ] ---> a / [ +anterior -sonorant ] _ 
p5866
sba(irule
Rule
p5867
(dp5868
g15
(irule
Guard
p5869
(dp5870
g18
I00
sg19
(lp5871
(irule
FeatureMatrix
p5872
(dp5873
g23
(lp5874
(I00
g5454
tp5875
asg25
V[ -sonorant ]
p5876
sbasg35
I00
sg25
g5876
sg37
I00
sg38
S'L'
sbsg39
(irule
ConstantPhoneme
p5877
(dp5878
S'p'
Va
sbsg43
(irule
Guard
p5879
(dp5880
g18
I00
sg19
(lp5881
sg35
I00
sg25
V
sg37
I00
sg38
S'R'
sbsg47
(irule
FeatureMatrix
p5882
(dp5883
g23
(lp5884
(I00
S'back'
p5885
tp5886
a(I00
g5489
tp5887
a(I01
g5467
tp5888
asg25
V[ +voice -back -high ]
p5889
sbsg25
V[ +voice -back -high ] ---> a / [ -sonorant ] _ 
p5890
sba(irule
Rule
p5891
(dp5892
g15
(irule
Guard
p5893
(dp5894
g18
I00
sg19
(lp5895
(irule
FeatureMatrix
p5896
(dp5897
g23
(lp5898
(I00
g5885
tp5899
a(I00
g5454
tp5900
asg25
V[ -back -sonorant ]
p5901
sbasg35
I00
sg25
g5901
sg37
I00
sg38
S'L'
sbsg39
(irule
ConstantPhoneme
p5902
(dp5903
S'p'
Va
sbsg43
(irule
Guard
p5904
(dp5905
g18
I00
sg19
(lp5906
sg35
I00
sg25
V
sg37
I00
sg38
S'R'
sbsg47
(irule
FeatureMatrix
p5907
(dp5908
g23
(lp5909
(I00
g5489
tp5910
a(I01
g5467
tp5911
asg25
V[ +voice -high ]
p5912
sbsg25
V[ +voice -high ] ---> a / [ -back -sonorant ] _ 
p5913
sba(irule
Rule
p5914
(dp5915
g15
(irule
Guard
p5916
(dp5917
g18
I00
sg19
(lp5918
(irule
FeatureMatrix
p5919
(dp5920
g23
(lp5921
(I00
g5454
tp5922
asg25
V[ -sonorant ]
p5923
sbasg35
I00
sg25
g5923
sg37
I00
sg38
S'L'
sbsg39
(irule
ConstantPhoneme
p5924
(dp5925
S'p'
Va
sbsg43
(irule
Guard
p5926
(dp5927
g18
I00
sg19
(lp5928
sg35
I00
sg25
V
sg37
I00
sg38
S'R'
sbsg47
(irule
FeatureMatrix
p5929
(dp5930
g23
(lp5931
(I01
g5631
tp5932
a(I00
g5701
tp5933
a(I01
g5467
tp5934
asg25
V[ +anterior +voice -sibilant ]
p5935
sbsg25
V[ +anterior +voice -sibilant ] ---> a / [ -sonorant ] _ 
p5936
sba(irule
Rule
p5937
(dp5938
g15
(irule
Guard
p5939
(dp5940
g18
I00
sg19
(lp5941
(irule
FeatureMatrix
p5942
(dp5943
g23
(lp5944
(I00
g5454
tp5945
asg25
V[ -sonorant ]
p5946
sbasg35
I00
sg25
g5946
sg37
I00
sg38
S'L'
sbsg39
(irule
ConstantPhoneme
p5947
(dp5948
S'p'
Va
sbsg43
(irule
Guard
p5949
(dp5950
g18
I00
sg19
(lp5951
sg35
I00
sg25
V
sg37
I00
sg38
S'R'
sbsg47
(irule
FeatureMatrix
p5952
(dp5953
g23
(lp5954
(I01
g5631
tp5955
a(I00
g5607
tp5956
a(I01
g5467
tp5957
asg25
V[ +anterior +voice -low ]
p5958
sbsg25
V[ +anterior +voice -low ] ---> a / [ -sonorant ] _ 
p5959
sba(irule
Rule
p5960
(dp5961
g15
(irule
Guard
p5962
(dp5963
g18
I00
sg19
(lp5964
(irule
FeatureMatrix
p5965
(dp5966
g23
(lp5967
(I00
g5454
tp5968
asg25
V[ -sonorant ]
p5969
sbasg35
I00
sg25
g5969
sg37
I00
sg38
S'L'
sbsg39
(irule
ConstantPhoneme
p5970
(dp5971
S'p'
Va
sbsg43
(irule
Guard
p5972
(dp5973
g18
I00
sg19
(lp5974
sg35
I00
sg25
V
sg37
I00
sg38
S'R'
sbsg47
(irule
FeatureMatrix
p5975
(dp5976
g23
(lp5977
(I00
g5559
tp5978
a(I00
g5489
tp5979
a(I01
g5467
tp5980
asg25
V[ +voice -high -lateral ]
p5981
sbsg25
V[ +voice -high -lateral ] ---> a / [ -sonorant ] _ 
p5982
sba(irule
Rule
p5983
(dp5984
g15
(irule
Guard
p5985
(dp5986
g18
I00
sg19
(lp5987
(irule
FeatureMatrix
p5988
(dp5989
g23
(lp5990
(I00
g5572
tp5991
a(I00
g5535
tp5992
asg25
V[ -nasal -tense ]
p5993
sbasg35
I00
sg25
g5993
sg37
I00
sg38
S'L'
sbsg39
(irule
ConstantPhoneme
p5994
(dp5995
S'p'
Va
sbsg43
(irule
Guard
p5996
(dp5997
g18
I00
sg19
(lp5998
sg35
I00
sg25
V
sg37
I00
sg38
S'R'
sbsg47
(irule
FeatureMatrix
p5999
(dp6000
g23
(lp6001
(I00
g5535
tp6002
a(I01
g5467
tp6003
asg25
V[ +voice -tense ]
p6004
sbsg25
V[ +voice -tense ] ---> a / [ -nasal -tense ] _ 
p6005
sba(irule
Rule
p6006
(dp6007
g15
(irule
Guard
p6008
(dp6009
g18
I00
sg19
(lp6010
(irule
FeatureMatrix
p6011
(dp6012
g23
(lp6013
(I00
g5454
tp6014
a(I00
g5489
tp6015
asg25
V[ -high -sonorant ]
p6016
sbasg35
I00
sg25
g6016
sg37
I00
sg38
S'L'
sbsg39
(irule
ConstantPhoneme
p6017
(dp6018
S'p'
Va
sbsg43
(irule
Guard
p6019
(dp6020
g18
I00
sg19
(lp6021
sg35
I00
sg25
V
sg37
I00
sg38
S'R'
sbsg47
(irule
FeatureMatrix
p6022
(dp6023
g23
(lp6024
(I01
g5631
tp6025
a(I01
g5467
tp6026
asg25
V[ +anterior +voice ]
p6027
sbsg25
V[ +anterior +voice ] ---> a / [ -high -sonorant ] _ 
p6028
sba(irule
Rule
p6029
(dp6030
g15
(irule
Guard
p6031
(dp6032
g18
I00
sg19
(lp6033
(irule
FeatureMatrix
p6034
(dp6035
g23
(lp6036
(I01
g5631
tp6037
a(I00
g5572
tp6038
asg25
V[ +anterior -nasal ]
p6039
sbasg35
I00
sg25
g6039
sg37
I00
sg38
S'L'
sbsg39
(irule
ConstantPhoneme
p6040
(dp6041
S'p'
Va
sbsg43
(irule
Guard
p6042
(dp6043
g18
I00
sg19
(lp6044
sg35
I00
sg25
V
sg37
I00
sg38
S'R'
sbsg47
(irule
FeatureMatrix
p6045
(dp6046
g23
(lp6047
(I00
g5465
tp6048
a(I01
g5467
tp6049
asg25
V[ +voice -continuant ]
p6050
sbsg25
V[ +voice -continuant ] ---> a / [ +anterior -nasal ] _ 
p6051
sba(irule
Rule
p6052
(dp6053
g15
(irule
Guard
p6054
(dp6055
g18
I00
sg19
(lp6056
(irule
FeatureMatrix
p6057
(dp6058
g23
(lp6059
(I01
g5631
tp6060
a(I00
g5454
tp6061
asg25
V[ +anterior -sonorant ]
p6062
sbasg35
I00
sg25
g6062
sg37
I00
sg38
S'L'
sbsg39
(irule
ConstantPhoneme
p6063
(dp6064
S'p'
Va
sbsg43
(irule
Guard
p6065
(dp6066
g18
I00
sg19
(lp6067
sg35
I00
sg25
V
sg37
I00
sg38
S'R'
sbsg47
(irule
FeatureMatrix
p6068
(dp6069
g23
(lp6070
(I01
g5631
tp6071
a(I01
g5467
tp6072
asg25
V[ +anterior +voice ]
p6073
sbsg25
V[ +anterior +voice ] ---> a / [ +anterior -sonorant ] _ 
p6074
sba(irule
Rule
p6075
(dp6076
g15
(irule
Guard
p6077
(dp6078
g18
I00
sg19
(lp6079
(irule
FeatureMatrix
p6080
(dp6081
g23
(lp6082
(I00
g5559
tp6083
a(I00
g5454
tp6084
asg25
V[ -lateral -sonorant ]
p6085
sbasg35
I00
sg25
g6085
sg37
I00
sg38
S'L'
sbsg39
(irule
ConstantPhoneme
p6086
(dp6087
S'p'
Va
sbsg43
(irule
Guard
p6088
(dp6089
g18
I00
sg19
(lp6090
sg35
I00
sg25
V
sg37
I00
sg38
S'R'
sbsg47
(irule
FeatureMatrix
p6091
(dp6092
g23
(lp6093
(I00
g5489
tp6094
a(I01
g5467
tp6095
asg25
V[ +voice -high ]
p6096
sbsg25
V[ +voice -high ] ---> a / [ -lateral -sonorant ] _ 
p6097
sba(irule
Rule
p6098
(dp6099
g15
(irule
Guard
p6100
(dp6101
g18
I00
sg19
(lp6102
(irule
FeatureMatrix
p6103
(dp6104
g23
(lp6105
(I01
g5631
tp6106
a(I00
g5572
tp6107
asg25
V[ +anterior -nasal ]
p6108
sbasg35
I00
sg25
g6108
sg37
I00
sg38
S'L'
sbsg39
(irule
ConstantPhoneme
p6109
(dp6110
S'p'
Va
sbsg43
(irule
Guard
p6111
(dp6112
g18
I00
sg19
(lp6113
sg35
I00
sg25
V
sg37
I00
sg38
S'R'
sbsg47
(irule
FeatureMatrix
p6114
(dp6115
g23
(lp6116
(I00
g5535
tp6117
a(I01
g5467
tp6118
asg25
V[ +voice -tense ]
p6119
sbsg25
V[ +voice -tense ] ---> a / [ +anterior -nasal ] _ 
p6120
sba(irule
Rule
p6121
(dp6122
g15
(irule
Guard
p6123
(dp6124
g18
I00
sg19
(lp6125
(irule
FeatureMatrix
p6126
(dp6127
g23
(lp6128
(I00
g5454
tp6129
a(I00
g5489
tp6130
asg25
V[ -high -sonorant ]
p6131
sbasg35
I00
sg25
g6131
sg37
I00
sg38
S'L'
sbsg39
(irule
ConstantPhoneme
p6132
(dp6133
S'p'
Va
sbsg43
(irule
Guard
p6134
(dp6135
g18
I00
sg19
(lp6136
sg35
I00
sg25
V
sg37
I00
sg38
S'R'
sbsg47
(irule
FeatureMatrix
p6137
(dp6138
g23
(lp6139
(I00
g5489
tp6140
a(I01
g5467
tp6141
asg25
V[ +voice -high ]
p6142
sbsg25
V[ +voice -high ] ---> a / [ -high -sonorant ] _ 
p6143
sba(irule
Rule
p6144
(dp6145
g15
(irule
Guard
p6146
(dp6147
g18
I00
sg19
(lp6148
(irule
FeatureMatrix
p6149
(dp6150
g23
(lp6151
(I00
g5572
tp6152
a(I00
g5512
tp6153
asg25
V[ -nasal -vowel ]
p6154
sbasg35
I00
sg25
g6154
sg37
I00
sg38
S'L'
sbsg39
(irule
ConstantPhoneme
p6155
(dp6156
S'p'
Va
sbsg43
(irule
Guard
p6157
(dp6158
g18
I00
sg19
(lp6159
sg35
I00
sg25
V
sg37
I00
sg38
S'R'
sbsg47
(irule
FeatureMatrix
p6160
(dp6161
g23
(lp6162
(I01
g5631
tp6163
a(I01
g5467
tp6164
asg25
V[ +anterior +voice ]
p6165
sbsg25
V[ +anterior +voice ] ---> a / [ -nasal -vowel ] _ 
p6166
sba(irule
Rule
p6167
(dp6168
g15
(irule
Guard
p6169
(dp6170
g18
I00
sg19
(lp6171
(irule
FeatureMatrix
p6172
(dp6173
g23
(lp6174
(I00
g5454
tp6175
asg25
V[ -sonorant ]
p6176
sbasg35
I00
sg25
g6176
sg37
I00
sg38
S'L'
sbsg39
(irule
ConstantPhoneme
p6177
(dp6178
S'p'
Va
sbsg43
(irule
Guard
p6179
(dp6180
g18
I00
sg19
(lp6181
sg35
I00
sg25
V
sg37
I00
sg38
S'R'
sbsg47
(irule
FeatureMatrix
p6182
(dp6183
g23
(lp6184
(I00
g5535
tp6185
a(I00
g5701
tp6186
a(I01
g5467
tp6187
asg25
V[ +voice -sibilant -tense ]
p6188
sbsg25
V[ +voice -sibilant -tense ] ---> a / [ -sonorant ] _ 
p6189
sba(irule
Rule
p6190
(dp6191
g15
(irule
Guard
p6192
(dp6193
g18
I00
sg19
(lp6194
(irule
FeatureMatrix
p6195
(dp6196
g23
(lp6197
(I00
g5454
tp6198
asg25
V[ -sonorant ]
p6199
sbasg35
I00
sg25
g6199
sg37
I00
sg38
S'L'
sbsg39
(irule
ConstantPhoneme
p6200
(dp6201
S'p'
Va
sbsg43
(irule
Guard
p6202
(dp6203
g18
I00
sg19
(lp6204
sg35
I00
sg25
V
sg37
I00
sg38
S'R'
sbsg47
(irule
FeatureMatrix
p6205
(dp6206
g23
(lp6207
(I00
g5465
tp6208
a(I00
g5607
tp6209
a(I01
g5467
tp6210
asg25
V[ +voice -continuant -low ]
p6211
sbsg25
V[ +voice -continuant -low ] ---> a / [ -sonorant ] _ 
p6212
sba(irule
Rule
p6213
(dp6214
g15
(irule
Guard
p6215
(dp6216
g18
I00
sg19
(lp6217
(irule
FeatureMatrix
p6218
(dp6219
g23
(lp6220
(I00
g5572
tp6221
a(I00
g5454
tp6222
asg25
V[ -nasal -sonorant ]
p6223
sbasg35
I00
sg25
g6223
sg37
I00
sg38
S'L'
sbsg39
(irule
ConstantPhoneme
p6224
(dp6225
S'p'
Va
sbsg43
(irule
Guard
p6226
(dp6227
g18
I00
sg19
(lp6228
sg35
I00
sg25
V
sg37
I00
sg38
S'R'
sbsg47
(irule
FeatureMatrix
p6229
(dp6230
g23
(lp6231
(I01
g5631
tp6232
a(I01
g5467
tp6233
asg25
V[ +anterior +voice ]
p6234
sbsg25
V[ +anterior +voice ] ---> a / [ -nasal -sonorant ] _ 
p6235
sba(irule
Rule
p6236
(dp6237
g15
(irule
Guard
p6238
(dp6239
g18
I00
sg19
(lp6240
(irule
FeatureMatrix
p6241
(dp6242
g23
(lp6243
(I00
g5454
tp6244
asg25
V[ -sonorant ]
p6245
sbasg35
I00
sg25
g6245
sg37
I00
sg38
S'L'
sbsg39
(irule
ConstantPhoneme
p6246
(dp6247
S'p'
Va
sbsg43
(irule
Guard
p6248
(dp6249
g18
I00
sg19
(lp6250
sg35
I00
sg25
V
sg37
I00
sg38
S'R'
sbsg47
(irule
FeatureMatrix
p6251
(dp6252
g23
(lp6253
(I00
g5535
tp6254
a(I00
g5607
tp6255
a(I01
g5467
tp6256
asg25
V[ +voice -low -tense ]
p6257
sbsg25
V[ +voice -low -tense ] ---> a / [ -sonorant ] _ 
p6258
sba(irule
Rule
p6259
(dp6260
g15
(irule
Guard
p6261
(dp6262
g18
I00
sg19
(lp6263
(irule
FeatureMatrix
p6264
(dp6265
g23
(lp6266
(I00
g5454
tp6267
asg25
V[ -sonorant ]
p6268
sbasg35
I00
sg25
g6268
sg37
I00
sg38
S'L'
sbsg39
(irule
ConstantPhoneme
p6269
(dp6270
S'p'
Va
sbsg43
(irule
Guard
p6271
(dp6272
g18
I00
sg19
(lp6273
sg35
I00
sg25
V
sg37
I00
sg38
S'R'
sbsg47
(irule
FeatureMatrix
p6274
(dp6275
g23
(lp6276
(I00
g5885
tp6277
a(I00
g5535
tp6278
a(I01
g5467
tp6279
asg25
V[ +voice -back -tense ]
p6280
sbsg25
V[ +voice -back -tense ] ---> a / [ -sonorant ] _ 
p6281
sba(irule
Rule
p6282
(dp6283
g15
(irule
Guard
p6284
(dp6285
g18
I00
sg19
(lp6286
(irule
FeatureMatrix
p6287
(dp6288
g23
(lp6289
(I00
g5572
tp6290
a(I00
g5512
tp6291
asg25
V[ -nasal -vowel ]
p6292
sbasg35
I00
sg25
g6292
sg37
I00
sg38
S'L'
sbsg39
(irule
ConstantPhoneme
p6293
(dp6294
S'p'
Va
sbsg43
(irule
Guard
p6295
(dp6296
g18
I00
sg19
(lp6297
sg35
I00
sg25
V
sg37
I00
sg38
S'R'
sbsg47
(irule
FeatureMatrix
p6298
(dp6299
g23
(lp6300
(I00
g5535
tp6301
a(I01
g5467
tp6302
asg25
V[ +voice -tense ]
p6303
sbsg25
V[ +voice -tense ] ---> a / [ -nasal -vowel ] _ 
p6304
sba(irule
Rule
p6305
(dp6306
g15
(irule
Guard
p6307
(dp6308
g18
I00
sg19
(lp6309
(irule
FeatureMatrix
p6310
(dp6311
g23
(lp6312
(I01
g5631
tp6313
a(I00
g5572
tp6314
asg25
V[ +anterior -nasal ]
p6315
sbasg35
I00
sg25
g6315
sg37
I00
sg38
S'L'
sbsg39
(irule
ConstantPhoneme
p6316
(dp6317
S'p'
Va
sbsg43
(irule
Guard
p6318
(dp6319
g18
I00
sg19
(lp6320
sg35
I00
sg25
V
sg37
I00
sg38
S'R'
sbsg47
(irule
FeatureMatrix
p6321
(dp6322
g23
(lp6323
(I00
g5512
tp6324
a(I01
g5467
tp6325
asg25
V[ +voice -vowel ]
p6326
sbsg25
V[ +voice -vowel ] ---> a / [ +anterior -nasal ] _ 
p6327
sba(irule
Rule
p6328
(dp6329
g15
(irule
Guard
p6330
(dp6331
g18
I00
sg19
(lp6332
(irule
FeatureMatrix
p6333
(dp6334
g23
(lp6335
(I00
g5454
tp6336
asg25
V[ -sonorant ]
p6337
sbasg35
I00
sg25
g6337
sg37
I00
sg38
S'L'
sbsg39
(irule
ConstantPhoneme
p6338
(dp6339
S'p'
Va
sbsg43
(irule
Guard
p6340
(dp6341
g18
I00
sg19
(lp6342
sg35
I00
sg25
V
sg37
I00
sg38
S'R'
sbsg47
(irule
FeatureMatrix
p6343
(dp6344
g23
(lp6345
(I00
S'liquid'
p6346
tp6347
a(I00
g5489
tp6348
a(I01
g5467
tp6349
asg25
V[ +voice -high -liquid ]
p6350
sbsg25
V[ +voice -high -liquid ] ---> a / [ -sonorant ] _ 
p6351
sba(irule
Rule
p6352
(dp6353
g15
(irule
Guard
p6354
(dp6355
g18
I00
sg19
(lp6356
(irule
FeatureMatrix
p6357
(dp6358
g23
(lp6359
(I00
g5572
tp6360
a(I00
g5512
tp6361
asg25
V[ -nasal -vowel ]
p6362
sbasg35
I00
sg25
g6362
sg37
I00
sg38
S'L'
sbsg39
(irule
ConstantPhoneme
p6363
(dp6364
S'p'
Va
sbsg43
(irule
Guard
p6365
(dp6366
g18
I00
sg19
(lp6367
sg35
I00
sg25
V
sg37
I00
sg38
S'R'
sbsg47
(irule
FeatureMatrix
p6368
(dp6369
g23
(lp6370
(I00
g5465
tp6371
a(I01
g5467
tp6372
asg25
V[ +voice -continuant ]
p6373
sbsg25
V[ +voice -continuant ] ---> a / [ -nasal -vowel ] _ 
p6374
sba(irule
Rule
p6375
(dp6376
g15
(irule
Guard
p6377
(dp6378
g18
I00
sg19
(lp6379
(irule
FeatureMatrix
p6380
(dp6381
g23
(lp6382
(I01
g5631
tp6383
a(I00
g5454
tp6384
asg25
V[ +anterior -sonorant ]
p6385
sbasg35
I00
sg25
g6385
sg37
I00
sg38
S'L'
sbsg39
(irule
ConstantPhoneme
p6386
(dp6387
S'p'
Va
sbsg43
(irule
Guard
p6388
(dp6389
g18
I00
sg19
(lp6390
sg35
I00
sg25
V
sg37
I00
sg38
S'R'
sbsg47
(irule
FeatureMatrix
p6391
(dp6392
g23
(lp6393
(I00
g5512
tp6394
a(I01
g5467
tp6395
asg25
V[ +voice -vowel ]
p6396
sbsg25
V[ +voice -vowel ] ---> a / [ +anterior -sonorant ] _ 
p6397
sba(irule
Rule
p6398
(dp6399
g15
(irule
Guard
p6400
(dp6401
g18
I00
sg19
(lp6402
(irule
FeatureMatrix
p6403
(dp6404
g23
(lp6405
(I00
g5454
tp6406
asg25
V[ -sonorant ]
p6407
sbasg35
I00
sg25
g6407
sg37
I00
sg38
S'L'
sbsg39
(irule
ConstantPhoneme
p6408
(dp6409
S'p'
Va
sbsg43
(irule
Guard
p6410
(dp6411
g18
I00
sg19
(lp6412
sg35
I00
sg25
V
sg37
I00
sg38
S'R'
sbsg47
(irule
FeatureMatrix
p6413
(dp6414
g23
(lp6415
(I00
g5512
tp6416
a(I00
g5701
tp6417
a(I01
g5467
tp6418
asg25
V[ +voice -sibilant -vowel ]
p6419
sbsg25
V[ +voice -sibilant -vowel ] ---> a / [ -sonorant ] _ 
p6420
sba(irule
Rule
p6421
(dp6422
g15
(irule
Guard
p6423
(dp6424
g18
I00
sg19
(lp6425
(irule
FeatureMatrix
p6426
(dp6427
g23
(lp6428
(I00
g6346
tp6429
a(I00
g5454
tp6430
asg25
V[ -liquid -sonorant ]
p6431
sbasg35
I00
sg25
g6431
sg37
I00
sg38
S'L'
sbsg39
(irule
ConstantPhoneme
p6432
(dp6433
S'p'
Va
sbsg43
(irule
Guard
p6434
(dp6435
g18
I00
sg19
(lp6436
sg35
I00
sg25
V
sg37
I00
sg38
S'R'
sbsg47
(irule
FeatureMatrix
p6437
(dp6438
g23
(lp6439
(I00
g5489
tp6440
a(I01
g5467
tp6441
asg25
V[ +voice -high ]
p6442
sbsg25
V[ +voice -high ] ---> a / [ -liquid -sonorant ] _ 
p6443
sba(irule
Rule
p6444
(dp6445
g15
(irule
Guard
p6446
(dp6447
g18
I00
sg19
(lp6448
(irule
FeatureMatrix
p6449
(dp6450
g23
(lp6451
(I00
g5454
tp6452
a(I00
g5512
tp6453
asg25
V[ -sonorant -vowel ]
p6454
sbasg35
I00
sg25
g6454
sg37
I00
sg38
S'L'
sbsg39
(irule
ConstantPhoneme
p6455
(dp6456
S'p'
Va
sbsg43
(irule
Guard
p6457
(dp6458
g18
I00
sg19
(lp6459
sg35
I00
sg25
V
sg37
I00
sg38
S'R'
sbsg47
(irule
FeatureMatrix
p6460
(dp6461
g23
(lp6462
(I00
g5489
tp6463
a(I01
g5467
tp6464
asg25
V[ +voice -high ]
p6465
sbsg25
V[ +voice -high ] ---> a / [ -sonorant -vowel ] _ 
p6466
sba(irule
Rule
p6467
(dp6468
g15
(irule
Guard
p6469
(dp6470
g18
I00
sg19
(lp6471
(irule
FeatureMatrix
p6472
(dp6473
g23
(lp6474
(I00
g5454
tp6475
asg25
V[ -sonorant ]
p6476
sbasg35
I00
sg25
g6476
sg37
I00
sg38
S'L'
sbsg39
(irule
ConstantPhoneme
p6477
(dp6478
S'p'
Va
sbsg43
(irule
Guard
p6479
(dp6480
g18
I00
sg19
(lp6481
sg35
I00
sg25
V
sg37
I00
sg38
S'R'
sbsg47
(irule
FeatureMatrix
p6482
(dp6483
g23
(lp6484
(I01
g5631
tp6485
a(I00
g5512
tp6486
a(I01
g5467
tp6487
asg25
V[ +anterior +voice -vowel ]
p6488
sbsg25
V[ +anterior +voice -vowel ] ---> a / [ -sonorant ] _ 
p6489
sba(irule
Rule
p6490
(dp6491
g15
(irule
Guard
p6492
(dp6493
g18
I00
sg19
(lp6494
(irule
FeatureMatrix
p6495
(dp6496
g23
(lp6497
(I00
g5454
tp6498
asg25
V[ -sonorant ]
p6499
sbasg35
I00
sg25
g6499
sg37
I00
sg38
S'L'
sbsg39
(irule
ConstantPhoneme
p6500
(dp6501
S'p'
Va
sbsg43
(irule
Guard
p6502
(dp6503
g18
I00
sg19
(lp6504
sg35
I00
sg25
V
sg37
I00
sg38
S'R'
sbsg47
(irule
FeatureMatrix
p6505
(dp6506
g23
(lp6507
(I00
g5535
tp6508
a(I00
g5512
tp6509
a(I01
g5467
tp6510
asg25
V[ +voice -tense -vowel ]
p6511
sbsg25
V[ +voice -tense -vowel ] ---> a / [ -sonorant ] _ 
p6512
sba(irule
Rule
p6513
(dp6514
g15
(irule
Guard
p6515
(dp6516
g18
I00
sg19
(lp6517
(irule
FeatureMatrix
p6518
(dp6519
g23
(lp6520
(I00
g5454
tp6521
asg25
V[ -sonorant ]
p6522
sbasg35
I00
sg25
g6522
sg37
I00
sg38
S'L'
sbsg39
(irule
ConstantPhoneme
p6523
(dp6524
S'p'
Va
sbsg43
(irule
Guard
p6525
(dp6526
g18
I00
sg19
(lp6527
sg35
I00
sg25
V
sg37
I00
sg38
S'R'
sbsg47
(irule
FeatureMatrix
p6528
(dp6529
g23
(lp6530
(I00
g5465
tp6531
a(I00
g5489
tp6532
a(I01
g5467
tp6533
asg25
V[ +voice -continuant -high ]
p6534
sbsg25
V[ +voice -continuant -high ] ---> a / [ -sonorant ] _ 
p6535
sba(irule
Rule
p6536
(dp6537
g15
(irule
Guard
p6538
(dp6539
g18
I00
sg19
(lp6540
(irule
FeatureMatrix
p6541
(dp6542
g23
(lp6543
(I00
g5454
tp6544
asg25
V[ -sonorant ]
p6545
sbasg35
I00
sg25
g6545
sg37
I00
sg38
S'L'
sbsg39
(irule
ConstantPhoneme
p6546
(dp6547
S'p'
Va
sbsg43
(irule
Guard
p6548
(dp6549
g18
I00
sg19
(lp6550
sg35
I00
sg25
V
sg37
I00
sg38
S'R'
sbsg47
(irule
FeatureMatrix
p6551
(dp6552
g23
(lp6553
(I00
S'rounded'
p6554
tp6555
a(I00
g5489
tp6556
a(I01
g5467
tp6557
asg25
V[ +voice -high -rounded ]
p6558
sbsg25
V[ +voice -high -rounded ] ---> a / [ -sonorant ] _ 
p6559
sba(irule
Rule
p6560
(dp6561
g15
(irule
Guard
p6562
(dp6563
g18
I00
sg19
(lp6564
(irule
FeatureMatrix
p6565
(dp6566
g23
(lp6567
(I00
g5454
tp6568
asg25
V[ -sonorant ]
p6569
sbasg35
I00
sg25
g6569
sg37
I00
sg38
S'L'
sbsg39
(irule
ConstantPhoneme
p6570
(dp6571
S'p'
Va
sbsg43
(irule
Guard
p6572
(dp6573
g18
I00
sg19
(lp6574
sg35
I00
sg25
V
sg37
I00
sg38
S'R'
sbsg47
(irule
FeatureMatrix
p6575
(dp6576
g23
(lp6577
(I01
g5631
tp6578
a(I00
g5489
tp6579
a(I01
g5467
tp6580
asg25
V[ +anterior +voice -high ]
p6581
sbsg25
V[ +anterior +voice -high ] ---> a / [ -sonorant ] _ 
p6582
sba(irule
Rule
p6583
(dp6584
g15
(irule
Guard
p6585
(dp6586
g18
I00
sg19
(lp6587
(irule
FeatureMatrix
p6588
(dp6589
g23
(lp6590
(I00
g5454
tp6591
asg25
V[ -sonorant ]
p6592
sbasg35
I00
sg25
g6592
sg37
I00
sg38
S'L'
sbsg39
(irule
ConstantPhoneme
p6593
(dp6594
S'p'
Va
sbsg43
(irule
Guard
p6595
(dp6596
g18
I00
sg19
(lp6597
sg35
I00
sg25
V
sg37
I00
sg38
S'R'
sbsg47
(irule
FeatureMatrix
p6598
(dp6599
g23
(lp6600
(I00
g6554
tp6601
a(I00
g5512
tp6602
a(I01
g5467
tp6603
asg25
V[ +voice -rounded -vowel ]
p6604
sbsg25
V[ +voice -rounded -vowel ] ---> a / [ -sonorant ] _ 
p6605
sba(irule
Rule
p6606
(dp6607
g15
(irule
Guard
p6608
(dp6609
g18
I00
sg19
(lp6610
(irule
FeatureMatrix
p6611
(dp6612
g23
(lp6613
(I00
g5454
tp6614
asg25
V[ -sonorant ]
p6615
sbasg35
I00
sg25
g6615
sg37
I00
sg38
S'L'
sbsg39
(irule
ConstantPhoneme
p6616
(dp6617
S'p'
Va
sbsg43
(irule
Guard
p6618
(dp6619
g18
I00
sg19
(lp6620
sg35
I00
sg25
V
sg37
I00
sg38
S'R'
sbsg47
(irule
FeatureMatrix
p6621
(dp6622
g23
(lp6623
(I00
g5465
tp6624
a(I00
g5885
tp6625
a(I01
g5467
tp6626
asg25
V[ +voice -back -continuant ]
p6627
sbsg25
V[ +voice -back -continuant ] ---> a / [ -sonorant ] _ 
p6628
sba(irule
Rule
p6629
(dp6630
g15
(irule
Guard
p6631
(dp6632
g18
I00
sg19
(lp6633
(irule
FeatureMatrix
p6634
(dp6635
g23
(lp6636
(I01
g5631
tp6637
a(I00
g5454
tp6638
asg25
V[ +anterior -sonorant ]
p6639
sbasg35
I00
sg25
g6639
sg37
I00
sg38
S'L'
sbsg39
(irule
ConstantPhoneme
p6640
(dp6641
S'p'
Va
sbsg43
(irule
Guard
p6642
(dp6643
g18
I00
sg19
(lp6644
sg35
I00
sg25
V
sg37
I00
sg38
S'R'
sbsg47
(irule
FeatureMatrix
p6645
(dp6646
g23
(lp6647
(I00
g5465
tp6648
a(I01
g5467
tp6649
asg25
V[ +voice -continuant ]
p6650
sbsg25
V[ +voice -continuant ] ---> a / [ +anterior -sonorant ] _ 
p6651
sba(irule
Rule
p6652
(dp6653
g15
(irule
Guard
p6654
(dp6655
g18
I00
sg19
(lp6656
(irule
FeatureMatrix
p6657
(dp6658
g23
(lp6659
(I00
g5572
tp6660
a(I00
g5512
tp6661
asg25
V[ -nasal -vowel ]
p6662
sbasg35
I00
sg25
g6662
sg37
I00
sg38
S'L'
sbsg39
(irule
ConstantPhoneme
p6663
(dp6664
S'p'
Va
sbsg43
(irule
Guard
p6665
(dp6666
g18
I00
sg19
(lp6667
sg35
I00
sg25
V
sg37
I00
sg38
S'R'
sbsg47
(irule
FeatureMatrix
p6668
(dp6669
g23
(lp6670
(I00
g5512
tp6671
a(I01
g5467
tp6672
asg25
V[ +voice -vowel ]
p6673
sbsg25
V[ +voice -vowel ] ---> a / [ -nasal -vowel ] _ 
p6674
sba(irule
Rule
p6675
(dp6676
g15
(irule
Guard
p6677
(dp6678
g18
I00
sg19
(lp6679
(irule
FeatureMatrix
p6680
(dp6681
g23
(lp6682
(I00
g5454
tp6683
a(I00
g5607
tp6684
asg25
V[ -low -sonorant ]
p6685
sbasg35
I00
sg25
g6685
sg37
I00
sg38
S'L'
sbsg39
(irule
ConstantPhoneme
p6686
(dp6687
S'p'
Va
sbsg43
(irule
Guard
p6688
(dp6689
g18
I00
sg19
(lp6690
sg35
I00
sg25
V
sg37
I00
sg38
S'R'
sbsg47
(irule
FeatureMatrix
p6691
(dp6692
g23
(lp6693
(I01
g5631
tp6694
a(I01
g5467
tp6695
asg25
V[ +anterior +voice ]
p6696
sbsg25
V[ +anterior +voice ] ---> a / [ -low -sonorant ] _ 
p6697
sba(irule
Rule
p6698
(dp6699
g15
(irule
Guard
p6700
(dp6701
g18
I00
sg19
(lp6702
(irule
FeatureMatrix
p6703
(dp6704
g23
(lp6705
(I00
g5454
tp6706
asg25
V[ -sonorant ]
p6707
sbasg35
I00
sg25
g6707
sg37
I00
sg38
S'L'
sbsg39
(irule
ConstantPhoneme
p6708
(dp6709
S'p'
Va
sbsg43
(irule
Guard
p6710
(dp6711
g18
I00
sg19
(lp6712
sg35
I00
sg25
V
sg37
I00
sg38
S'R'
sbsg47
(irule
FeatureMatrix
p6713
(dp6714
g23
(lp6715
(I00
g5559
tp6716
a(I00
g5512
tp6717
a(I01
g5467
tp6718
asg25
V[ +voice -lateral -vowel ]
p6719
sbsg25
V[ +voice -lateral -vowel ] ---> a / [ -sonorant ] _ 
p6720
sba(irule
Rule
p6721
(dp6722
g15
(irule
Guard
p6723
(dp6724
g18
I00
sg19
(lp6725
(irule
FeatureMatrix
p6726
(dp6727
g23
(lp6728
(I00
g5454
tp6729
asg25
V[ -sonorant ]
p6730
sbasg35
I00
sg25
g6730
sg37
I00
sg38
S'L'
sbsg39
(irule
ConstantPhoneme
p6731
(dp6732
S'p'
Va
sbsg43
(irule
Guard
p6733
(dp6734
g18
I00
sg19
(lp6735
sg35
I00
sg25
V
sg37
I00
sg38
S'R'
sbsg47
(irule
FeatureMatrix
p6736
(dp6737
g23
(lp6738
(I00
g5465
tp6739
a(I00
g5535
tp6740
a(I01
g5467
tp6741
asg25
V[ +voice -continuant -tense ]
p6742
sbsg25
V[ +voice -continuant -tense ] ---> a / [ -sonorant ] _ 
p6743
sba(irule
Rule
p6744
(dp6745
g15
(irule
Guard
p6746
(dp6747
g18
I00
sg19
(lp6748
(irule
FeatureMatrix
p6749
(dp6750
g23
(lp6751
(I00
g5454
tp6752
asg25
V[ -sonorant ]
p6753
sbasg35
I00
sg25
g6753
sg37
I00
sg38
S'L'
sbsg39
(irule
ConstantPhoneme
p6754
(dp6755
S'p'
Va
sbsg43
(irule
Guard
p6756
(dp6757
g18
I00
sg19
(lp6758
sg35
I00
sg25
V
sg37
I00
sg38
S'R'
sbsg47
(irule
FeatureMatrix
p6759
(dp6760
g23
(lp6761
(I01
g5631
tp6762
a(I00
g5535
tp6763
a(I01
g5467
tp6764
asg25
V[ +anterior +voice -tense ]
p6765
sbsg25
V[ +anterior +voice -tense ] ---> a / [ -sonorant ] _ 
p6766
sba(irule
Rule
p6767
(dp6768
g15
(irule
Guard
p6769
(dp6770
g18
I00
sg19
(lp6771
(irule
FeatureMatrix
p6772
(dp6773
g23
(lp6774
(I00
g5572
tp6775
a(I00
g5535
tp6776
asg25
V[ -nasal -tense ]
p6777
sbasg35
I00
sg25
g6777
sg37
I00
sg38
S'L'
sbsg39
(irule
ConstantPhoneme
p6778
(dp6779
S'p'
Va
sbsg43
(irule
Guard
p6780
(dp6781
g18
I00
sg19
(lp6782
sg35
I00
sg25
V
sg37
I00
sg38
S'R'
sbsg47
(irule
FeatureMatrix
p6783
(dp6784
g23
(lp6785
(I00
g5512
tp6786
a(I01
g5467
tp6787
asg25
V[ +voice -vowel ]
p6788
sbsg25
V[ +voice -vowel ] ---> a / [ -nasal -tense ] _ 
p6789
sba(irule
Rule
p6790
(dp6791
g15
(irule
Guard
p6792
(dp6793
g18
I00
sg19
(lp6794
(irule
FeatureMatrix
p6795
(dp6796
g23
(lp6797
(I00
g5572
tp6798
a(I00
g5454
tp6799
asg25
V[ -nasal -sonorant ]
p6800
sbasg35
I00
sg25
g6800
sg37
I00
sg38
S'L'
sbsg39
(irule
ConstantPhoneme
p6801
(dp6802
S'p'
Va
sbsg43
(irule
Guard
p6803
(dp6804
g18
I00
sg19
(lp6805
sg35
I00
sg25
V
sg37
I00
sg38
S'R'
sbsg47
(irule
FeatureMatrix
p6806
(dp6807
g23
(lp6808
(I00
g5512
tp6809
a(I01
g5467
tp6810
asg25
V[ +voice -vowel ]
p6811
sbsg25
V[ +voice -vowel ] ---> a / [ -nasal -sonorant ] _ 
p6812
sba(irule
Rule
p6813
(dp6814
g15
(irule
Guard
p6815
(dp6816
g18
I00
sg19
(lp6817
(irule
FeatureMatrix
p6818
(dp6819
g23
(lp6820
(I00
g5559
tp6821
a(I00
g5454
tp6822
asg25
V[ -lateral -sonorant ]
p6823
sbasg35
I00
sg25
g6823
sg37
I00
sg38
S'L'
sbsg39
(irule
ConstantPhoneme
p6824
(dp6825
S'p'
Va
sbsg43
(irule
Guard
p6826
(dp6827
g18
I00
sg19
(lp6828
sg35
I00
sg25
V
sg37
I00
sg38
S'R'
sbsg47
(irule
FeatureMatrix
p6829
(dp6830
g23
(lp6831
(I01
g5631
tp6832
a(I01
g5467
tp6833
asg25
V[ +anterior +voice ]
p6834
sbsg25
V[ +anterior +voice ] ---> a / [ -lateral -sonorant ] _ 
p6835
sba(irule
Rule
p6836
(dp6837
g15
(irule
Guard
p6838
(dp6839
g18
I00
sg19
(lp6840
(irule
FeatureMatrix
p6841
(dp6842
g23
(lp6843
(I00
g5885
tp6844
a(I00
g5454
tp6845
asg25
V[ -back -sonorant ]
p6846
sbasg35
I00
sg25
g6846
sg37
I00
sg38
S'L'
sbsg39
(irule
ConstantPhoneme
p6847
(dp6848
S'p'
Va
sbsg43
(irule
Guard
p6849
(dp6850
g18
I00
sg19
(lp6851
sg35
I00
sg25
V
sg37
I00
sg38
S'R'
sbsg47
(irule
FeatureMatrix
p6852
(dp6853
g23
(lp6854
(I00
g5465
tp6855
a(I01
g5467
tp6856
asg25
V[ +voice -continuant ]
p6857
sbsg25
V[ +voice -continuant ] ---> a / [ -back -sonorant ] _ 
p6858
sba(irule
Rule
p6859
(dp6860
g15
(irule
Guard
p6861
(dp6862
g18
I00
sg19
(lp6863
(irule
FeatureMatrix
p6864
(dp6865
g23
(lp6866
(I00
g6554
tp6867
a(I00
g5454
tp6868
asg25
V[ -rounded -sonorant ]
p6869
sbasg35
I00
sg25
g6869
sg37
I00
sg38
S'L'
sbsg39
(irule
ConstantPhoneme
p6870
(dp6871
S'p'
Va
sbsg43
(irule
Guard
p6872
(dp6873
g18
I00
sg19
(lp6874
sg35
I00
sg25
V
sg37
I00
sg38
S'R'
sbsg47
(irule
FeatureMatrix
p6875
(dp6876
g23
(lp6877
(I01
g5631
tp6878
a(I01
g5467
tp6879
asg25
V[ +anterior +voice ]
p6880
sbsg25
V[ +anterior +voice ] ---> a / [ -rounded -sonorant ] _ 
p6881
sba(irule
Rule
p6882
(dp6883
g15
(irule
Guard
p6884
(dp6885
g18
I00
sg19
(lp6886
(irule
FeatureMatrix
p6887
(dp6888
g23
(lp6889
(I00
g5454
tp6890
asg25
V[ -sonorant ]
p6891
sbasg35
I00
sg25
g6891
sg37
I00
sg38
S'L'
sbsg39
(irule
ConstantPhoneme
p6892
(dp6893
S'p'
Va
sbsg43
(irule
Guard
p6894
(dp6895
g18
I00
sg19
(lp6896
sg35
I00
sg25
V
sg37
I00
sg38
S'R'
sbsg47
(irule
FeatureMatrix
p6897
(dp6898
g23
(lp6899
(I01
g5631
tp6900
a(I00
g5559
tp6901
a(I01
g5467
tp6902
asg25
V[ +anterior +voice -lateral ]
p6903
sbsg25
V[ +anterior +voice -lateral ] ---> a / [ -sonorant ] _ 
p6904
sba(irule
Rule
p6905
(dp6906
g15
(irule
Guard
p6907
(dp6908
g18
I00
sg19
(lp6909
(irule
FeatureMatrix
p6910
(dp6911
g23
(lp6912
(I00
g5454
tp6913
asg25
V[ -sonorant ]
p6914
sbasg35
I00
sg25
g6914
sg37
I00
sg38
S'L'
sbsg39
(irule
ConstantPhoneme
p6915
(dp6916
S'p'
Va
sbsg43
(irule
Guard
p6917
(dp6918
g18
I00
sg19
(lp6919
sg35
I00
sg25
V
sg37
I00
sg38
S'R'
sbsg47
(irule
FeatureMatrix
p6920
(dp6921
g23
(lp6922
(I01
g5631
tp6923
a(I00
g5885
tp6924
a(I01
g5467
tp6925
asg25
V[ +anterior +voice -back ]
p6926
sbsg25
V[ +anterior +voice -back ] ---> a / [ -sonorant ] _ 
p6927
sba(irule
Rule
p6928
(dp6929
g15
(irule
Guard
p6930
(dp6931
g18
I00
sg19
(lp6932
(irule
FeatureMatrix
p6933
(dp6934
g23
(lp6935
(I00
g5572
tp6936
a(I00
g5454
tp6937
asg25
V[ -nasal -sonorant ]
p6938
sbasg35
I00
sg25
g6938
sg37
I00
sg38
S'L'
sbsg39
(irule
ConstantPhoneme
p6939
(dp6940
S'p'
Va
sbsg43
(irule
Guard
p6941
(dp6942
g18
I00
sg19
(lp6943
sg35
I00
sg25
V
sg37
I00
sg38
S'R'
sbsg47
(irule
FeatureMatrix
p6944
(dp6945
g23
(lp6946
(I00
g5489
tp6947
a(I01
g5467
tp6948
asg25
V[ +voice -high ]
p6949
sbsg25
V[ +voice -high ] ---> a / [ -nasal -sonorant ] _ 
p6950
sba(irule
Rule
p6951
(dp6952
g15
(irule
Guard
p6953
(dp6954
g18
I00
sg19
(lp6955
(irule
FeatureMatrix
p6956
(dp6957
g23
(lp6958
(I00
g5572
tp6959
a(I00
g5454
tp6960
asg25
V[ -nasal -sonorant ]
p6961
sbasg35
I00
sg25
g6961
sg37
I00
sg38
S'L'
sbsg39
(irule
ConstantPhoneme
p6962
(dp6963
S'p'
Va
sbsg43
(irule
Guard
p6964
(dp6965
g18
I00
sg19
(lp6966
sg35
I00
sg25
V
sg37
I00
sg38
S'R'
sbsg47
(irule
FeatureMatrix
p6967
(dp6968
g23
(lp6969
(I00
g5465
tp6970
a(I01
g5467
tp6971
asg25
V[ +voice -continuant ]
p6972
sbsg25
V[ +voice -continuant ] ---> a / [ -nasal -sonorant ] _ 
p6973
sba(irule
Rule
p6974
(dp6975
g15
(irule
Guard
p6976
(dp6977
g18
I00
sg19
(lp6978
(irule
FeatureMatrix
p6979
(dp6980
g23
(lp6981
(I00
g5454
tp6982
a(I00
g5607
tp6983
asg25
V[ -low -sonorant ]
p6984
sbasg35
I00
sg25
g6984
sg37
I00
sg38
S'L'
sbsg39
(irule
ConstantPhoneme
p6985
(dp6986
S'p'
Va
sbsg43
(irule
Guard
p6987
(dp6988
g18
I00
sg19
(lp6989
sg35
I00
sg25
V
sg37
I00
sg38
S'R'
sbsg47
(irule
FeatureMatrix
p6990
(dp6991
g23
(lp6992
(I00
g5489
tp6993
a(I01
g5467
tp6994
asg25
V[ +voice -high ]
p6995
sbsg25
V[ +voice -high ] ---> a / [ -low -sonorant ] _ 
p6996
sba(irule
Rule
p6997
(dp6998
g15
(irule
Guard
p6999
(dp7000
g18
I00
sg19
(lp7001
(irule
FeatureMatrix
p7002
(dp7003
g23
(lp7004
(I00
g6554
tp7005
a(I00
g5454
tp7006
asg25
V[ -rounded -sonorant ]
p7007
sbasg35
I00
sg25
g7007
sg37
I00
sg38
S'L'
sbsg39
(irule
ConstantPhoneme
p7008
(dp7009
S'p'
Va
sbsg43
(irule
Guard
p7010
(dp7011
g18
I00
sg19
(lp7012
sg35
I00
sg25
V
sg37
I00
sg38
S'R'
sbsg47
(irule
FeatureMatrix
p7013
(dp7014
g23
(lp7015
(I00
g5489
tp7016
a(I01
g5467
tp7017
asg25
V[ +voice -high ]
p7018
sbsg25
V[ +voice -high ] ---> a / [ -rounded -sonorant ] _ 
p7019
sba(irule
Rule
p7020
(dp7021
g15
(irule
Guard
p7022
(dp7023
g18
I00
sg19
(lp7024
(irule
FeatureMatrix
p7025
(dp7026
g23
(lp7027
(I00
g5454
tp7028
asg25
V[ -sonorant ]
p7029
sbasg35
I00
sg25
g7029
sg37
I00
sg38
S'L'
sbsg39
(irule
ConstantPhoneme
p7030
(dp7031
S'p'
Va
sbsg43
(irule
Guard
p7032
(dp7033
g18
I00
sg19
(lp7034
sg35
I00
sg25
V
sg37
I00
sg38
S'R'
sbsg47
(irule
FeatureMatrix
p7035
(dp7036
g23
(lp7037
(I00
g5465
tp7038
a(I00
g5512
tp7039
a(I01
g5467
tp7040
asg25
V[ +voice -continuant -vowel ]
p7041
sbsg25
V[ +voice -continuant -vowel ] ---> a / [ -sonorant ] _ 
p7042
sba(irule
Rule
p7043
(dp7044
g15
(irule
Guard
p7045
(dp7046
g18
I00
sg19
(lp7047
(irule
FeatureMatrix
p7048
(dp7049
g23
(lp7050
(I00
g5454
tp7051
asg25
V[ -sonorant ]
p7052
sbasg35
I00
sg25
g7052
sg37
I00
sg38
S'L'
sbsg39
(irule
ConstantPhoneme
p7053
(dp7054
S'p'
Va
sbsg43
(irule
Guard
p7055
(dp7056
g18
I00
sg19
(lp7057
sg35
I00
sg25
V
sg37
I00
sg38
S'R'
sbsg47
(irule
FeatureMatrix
p7058
(dp7059
g23
(lp7060
(I01
g5631
tp7061
a(I00
g6346
tp7062
a(I01
g5467
tp7063
asg25
V[ +anterior +voice -liquid ]
p7064
sbsg25
V[ +anterior +voice -liquid ] ---> a / [ -sonorant ] _ 
p7065
sba(irule
Rule
p7066
(dp7067
g15
(irule
Guard
p7068
(dp7069
g18
I00
sg19
(lp7070
(irule
FeatureMatrix
p7071
(dp7072
g23
(lp7073
(I01
g5631
tp7074
a(I00
g5454
tp7075
asg25
V[ +anterior -sonorant ]
p7076
sbasg35
I00
sg25
g7076
sg37
I00
sg38
S'L'
sbsg39
(irule
ConstantPhoneme
p7077
(dp7078
S'p'
Va
sbsg43
(irule
Guard
p7079
(dp7080
g18
I00
sg19
(lp7081
sg35
I00
sg25
V
sg37
I00
sg38
S'R'
sbsg47
(irule
FeatureMatrix
p7082
(dp7083
g23
(lp7084
(I00
g5535
tp7085
a(I01
g5467
tp7086
asg25
V[ +voice -tense ]
p7087
sbsg25
V[ +voice -tense ] ---> a / [ +anterior -sonorant ] _ 
p7088
sba(irule
Rule
p7089
(dp7090
g15
(irule
Guard
p7091
(dp7092
g18
I00
sg19
(lp7093
(irule
FeatureMatrix
p7094
(dp7095
g23
(lp7096
(I00
g6346
tp7097
a(I00
g5454
tp7098
asg25
V[ -liquid -sonorant ]
p7099
sbasg35
I00
sg25
g7099
sg37
I00
sg38
S'L'
sbsg39
(irule
ConstantPhoneme
p7100
(dp7101
S'p'
Va
sbsg43
(irule
Guard
p7102
(dp7103
g18
I00
sg19
(lp7104
sg35
I00
sg25
V
sg37
I00
sg38
S'R'
sbsg47
(irule
FeatureMatrix
p7105
(dp7106
g23
(lp7107
(I01
g5631
tp7108
a(I01
g5467
tp7109
asg25
V[ +anterior +voice ]
p7110
sbsg25
V[ +anterior +voice ] ---> a / [ -liquid -sonorant ] _ 
p7111
sba(irule
Rule
p7112
(dp7113
g15
(irule
Guard
p7114
(dp7115
g18
I00
sg19
(lp7116
(irule
FeatureMatrix
p7117
(dp7118
g23
(lp7119
(I00
g5454
tp7120
a(I00
g5535
tp7121
asg25
V[ -sonorant -tense ]
p7122
sbasg35
I00
sg25
g7122
sg37
I00
sg38
S'L'
sbsg39
(irule
ConstantPhoneme
p7123
(dp7124
S'p'
Va
sbsg43
(irule
Guard
p7125
(dp7126
g18
I00
sg19
(lp7127
sg35
I00
sg25
V
sg37
I00
sg38
S'R'
sbsg47
(irule
FeatureMatrix
p7128
(dp7129
g23
(lp7130
(I01
g5631
tp7131
a(I01
g5467
tp7132
asg25
V[ +anterior +voice ]
p7133
sbsg25
V[ +anterior +voice ] ---> a / [ -sonorant -tense ] _ 
p7134
sba(irule
Rule
p7135
(dp7136
g15
(irule
Guard
p7137
(dp7138
g18
I00
sg19
(lp7139
(irule
FeatureMatrix
p7140
(dp7141
g23
(lp7142
(I00
g5454
tp7143
asg25
V[ -sonorant ]
p7144
sbasg35
I00
sg25
g7144
sg37
I00
sg38
S'L'
sbsg39
(irule
ConstantPhoneme
p7145
(dp7146
S'p'
Va
sbsg43
(irule
Guard
p7147
(dp7148
g18
I00
sg19
(lp7149
sg35
I00
sg25
V
sg37
I00
sg38
S'R'
sbsg47
(irule
FeatureMatrix
p7150
(dp7151
g23
(lp7152
(I01
g5631
tp7153
a(I00
g6554
tp7154
a(I01
g5467
tp7155
asg25
V[ +anterior +voice -rounded ]
p7156
sbsg25
V[ +anterior +voice -rounded ] ---> a / [ -sonorant ] _ 
p7157
sba(irule
Rule
p7158
(dp7159
g15
(irule
Guard
p7160
(dp7161
g18
I00
sg19
(lp7162
(irule
FeatureMatrix
p7163
(dp7164
g23
(lp7165
(I00
g5454
tp7166
a(I00
g5535
tp7167
asg25
V[ -sonorant -tense ]
p7168
sbasg35
I00
sg25
g7168
sg37
I00
sg38
S'L'
sbsg39
(irule
ConstantPhoneme
p7169
(dp7170
S'p'
Va
sbsg43
(irule
Guard
p7171
(dp7172
g18
I00
sg19
(lp7173
sg35
I00
sg25
V
sg37
I00
sg38
S'R'
sbsg47
(irule
FeatureMatrix
p7174
(dp7175
g23
(lp7176
(I00
g5489
tp7177
a(I01
g5467
tp7178
asg25
V[ +voice -high ]
p7179
sbsg25
V[ +voice -high ] ---> a / [ -sonorant -tense ] _ 
p7180
sba(irule
Rule
p7181
(dp7182
g15
(irule
Guard
p7183
(dp7184
g18
I00
sg19
(lp7185
(irule
FeatureMatrix
p7186
(dp7187
g23
(lp7188
(I00
g5454
tp7189
asg25
V[ -sonorant ]
p7190
sbasg35
I00
sg25
g7190
sg37
I00
sg38
S'L'
sbsg39
(irule
ConstantPhoneme
p7191
(dp7192
S'p'
Va
sbsg43
(irule
Guard
p7193
(dp7194
g18
I00
sg19
(lp7195
sg35
I00
sg25
V
sg37
I00
sg38
S'R'
sbsg47
(irule
FeatureMatrix
p7196
(dp7197
g23
(lp7198
(I00
g6346
tp7199
a(I00
g5465
tp7200
a(I01
g5467
tp7201
asg25
V[ +voice -continuant -liquid ]
p7202
sbsg25
V[ +voice -continuant -liquid ] ---> a / [ -sonorant ] _ 
p7203
sba(irule
Rule
p7204
(dp7205
g15
(irule
Guard
p7206
(dp7207
g18
I00
sg19
(lp7208
(irule
FeatureMatrix
p7209
(dp7210
g23
(lp7211
(I00
g5454
tp7212
asg25
V[ -sonorant ]
p7213
sbasg35
I00
sg25
g7213
sg37
I00
sg38
S'L'
sbsg39
(irule
ConstantPhoneme
p7214
(dp7215
S'p'
Va
sbsg43
(irule
Guard
p7216
(dp7217
g18
I00
sg19
(lp7218
sg35
I00
sg25
V
sg37
I00
sg38
S'R'
sbsg47
(irule
FeatureMatrix
p7219
(dp7220
g23
(lp7221
(I01
g5631
tp7222
a(I00
g5465
tp7223
a(I01
g5467
tp7224
asg25
V[ +anterior +voice -continuant ]
p7225
sbsg25
V[ +anterior +voice -continuant ] ---> a / [ -sonorant ] _ 
p7226
sba(irule
Rule
p7227
(dp7228
g15
(irule
Guard
p7229
(dp7230
g18
I00
sg19
(lp7231
(irule
FeatureMatrix
p7232
(dp7233
g23
(lp7234
(I00
g5454
tp7235
asg25
V[ -sonorant ]
p7236
sbasg35
I00
sg25
g7236
sg37
I00
sg38
S'L'
sbsg39
(irule
ConstantPhoneme
p7237
(dp7238
S'p'
Va
sbsg43
(irule
Guard
p7239
(dp7240
g18
I00
sg19
(lp7241
sg35
I00
sg25
V
sg37
I00
sg38
S'R'
sbsg47
(irule
FeatureMatrix
p7242
(dp7243
g23
(lp7244
(I00
g5559
tp7245
a(I00
g5535
tp7246
a(I01
g5467
tp7247
asg25
V[ +voice -lateral -tense ]
p7248
sbsg25
V[ +voice -lateral -tense ] ---> a / [ -sonorant ] _ 
p7249
sba(irule
Rule
p7250
(dp7251
g15
(irule
Guard
p7252
(dp7253
g18
I00
sg19
(lp7254
(irule
FeatureMatrix
p7255
(dp7256
g23
(lp7257
(I00
g5454
tp7258
asg25
V[ -sonorant ]
p7259
sbasg35
I00
sg25
g7259
sg37
I00
sg38
S'L'
sbsg39
(irule
ConstantPhoneme
p7260
(dp7261
S'p'
Va
sbsg43
(irule
Guard
p7262
(dp7263
g18
I00
sg19
(lp7264
sg35
I00
sg25
V
sg37
I00
sg38
S'R'
sbsg47
(irule
FeatureMatrix
p7265
(dp7266
g23
(lp7267
(I00
g6346
tp7268
a(I00
g5535
tp7269
a(I01
g5467
tp7270
asg25
V[ +voice -liquid -tense ]
p7271
sbsg25
V[ +voice -liquid -tense ] ---> a / [ -sonorant ] _ 
p7272
sba(irule
Rule
p7273
(dp7274
g15
(irule
Guard
p7275
(dp7276
g18
I00
sg19
(lp7277
(irule
FeatureMatrix
p7278
(dp7279
g23
(lp7280
(I00
g5454
tp7281
a(I00
g5535
tp7282
asg25
V[ -sonorant -tense ]
p7283
sbasg35
I00
sg25
g7283
sg37
I00
sg38
S'L'
sbsg39
(irule
ConstantPhoneme
p7284
(dp7285
S'p'
Va
sbsg43
(irule
Guard
p7286
(dp7287
g18
I00
sg19
(lp7288
sg35
I00
sg25
V
sg37
I00
sg38
S'R'
sbsg47
(irule
FeatureMatrix
p7289
(dp7290
g23
(lp7291
(I00
g5465
tp7292
a(I01
g5467
tp7293
asg25
V[ +voice -continuant ]
p7294
sbsg25
V[ +voice -continuant ] ---> a / [ -sonorant -tense ] _ 
p7295
sba(irule
Rule
p7296
(dp7297
g15
(irule
Guard
p7298
(dp7299
g18
I00
sg19
(lp7300
(irule
FeatureMatrix
p7301
(dp7302
g23
(lp7303
(I00
g5454
tp7304
a(I00
g5535
tp7305
asg25
V[ -sonorant -tense ]
p7306
sbasg35
I00
sg25
g7306
sg37
I00
sg38
S'L'
sbsg39
(irule
ConstantPhoneme
p7307
(dp7308
S'p'
Va
sbsg43
(irule
Guard
p7309
(dp7310
g18
I00
sg19
(lp7311
sg35
I00
sg25
V
sg37
I00
sg38
S'R'
sbsg47
(irule
FeatureMatrix
p7312
(dp7313
g23
(lp7314
(I00
g5535
tp7315
a(I01
g5467
tp7316
asg25
V[ +voice -tense ]
p7317
sbsg25
V[ +voice -tense ] ---> a / [ -sonorant -tense ] _ 
p7318
sba(irule
Rule
p7319
(dp7320
g15
(irule
Guard
p7321
(dp7322
g18
I00
sg19
(lp7323
(irule
FeatureMatrix
p7324
(dp7325
g23
(lp7326
(I00
g5454
tp7327
asg25
V[ -sonorant ]
p7328
sbasg35
I00
sg25
g7328
sg37
I00
sg38
S'L'
sbsg39
(irule
ConstantPhoneme
p7329
(dp7330
S'p'
Va
sbsg43
(irule
Guard
p7331
(dp7332
g18
I00
sg19
(lp7333
sg35
I00
sg25
V
sg37
I00
sg38
S'R'
sbsg47
(irule
FeatureMatrix
p7334
(dp7335
g23
(lp7336
(I00
g6346
tp7337
a(I00
g5512
tp7338
a(I01
g5467
tp7339
asg25
V[ +voice -liquid -vowel ]
p7340
sbsg25
V[ +voice -liquid -vowel ] ---> a / [ -sonorant ] _ 
p7341
sba(irule
Rule
p7342
(dp7343
g15
(irule
Guard
p7344
(dp7345
g18
I00
sg19
(lp7346
(irule
FeatureMatrix
p7347
(dp7348
g23
(lp7349
(I00
g6554
tp7350
a(I00
g5454
tp7351
asg25
V[ -rounded -sonorant ]
p7352
sbasg35
I00
sg25
g7352
sg37
I00
sg38
S'L'
sbsg39
(irule
ConstantPhoneme
p7353
(dp7354
S'p'
Va
sbsg43
(irule
Guard
p7355
(dp7356
g18
I00
sg19
(lp7357
sg35
I00
sg25
V
sg37
I00
sg38
S'R'
sbsg47
(irule
FeatureMatrix
p7358
(dp7359
g23
(lp7360
(I00
g5465
tp7361
a(I01
g5467
tp7362
asg25
V[ +voice -continuant ]
p7363
sbsg25
V[ +voice -continuant ] ---> a / [ -rounded -sonorant ] _ 
p7364
sba(irule
Rule
p7365
(dp7366
g15
(irule
Guard
p7367
(dp7368
g18
I00
sg19
(lp7369
(irule
FeatureMatrix
p7370
(dp7371
g23
(lp7372
(I00
g5454
tp7373
asg25
V[ -sonorant ]
p7374
sbasg35
I00
sg25
g7374
sg37
I00
sg38
S'L'
sbsg39
(irule
ConstantPhoneme
p7375
(dp7376
S'p'
Va
sbsg43
(irule
Guard
p7377
(dp7378
g18
I00
sg19
(lp7379
sg35
I00
sg25
V
sg37
I00
sg38
S'R'
sbsg47
(irule
FeatureMatrix
p7380
(dp7381
g23
(lp7382
(I00
g6554
tp7383
a(I00
g5465
tp7384
a(I01
g5467
tp7385
asg25
V[ +voice -continuant -rounded ]
p7386
sbsg25
V[ +voice -continuant -rounded ] ---> a / [ -sonorant ] _ 
p7387
sba(irule
Rule
p7388
(dp7389
g15
(irule
Guard
p7390
(dp7391
g18
I00
sg19
(lp7392
(irule
FeatureMatrix
p7393
(dp7394
g23
(lp7395
(I00
g6554
tp7396
a(I00
g5454
tp7397
asg25
V[ -rounded -sonorant ]
p7398
sbasg35
I00
sg25
g7398
sg37
I00
sg38
S'L'
sbsg39
(irule
ConstantPhoneme
p7399
(dp7400
S'p'
Va
sbsg43
(irule
Guard
p7401
(dp7402
g18
I00
sg19
(lp7403
sg35
I00
sg25
V
sg37
I00
sg38
S'R'
sbsg47
(irule
FeatureMatrix
p7404
(dp7405
g23
(lp7406
(I00
g5535
tp7407
a(I01
g5467
tp7408
asg25
V[ +voice -tense ]
p7409
sbsg25
V[ +voice -tense ] ---> a / [ -rounded -sonorant ] _ 
p7410
sba(irule
Rule
p7411
(dp7412
g15
(irule
Guard
p7413
(dp7414
g18
I00
sg19
(lp7415
(irule
FeatureMatrix
p7416
(dp7417
g23
(lp7418
(I00
g5454
tp7419
a(I00
g5535
tp7420
asg25
V[ -sonorant -tense ]
p7421
sbasg35
I00
sg25
g7421
sg37
I00
sg38
S'L'
sbsg39
(irule
ConstantPhoneme
p7422
(dp7423
S'p'
Va
sbsg43
(irule
Guard
p7424
(dp7425
g18
I00
sg19
(lp7426
sg35
I00
sg25
V
sg37
I00
sg38
S'R'
sbsg47
(irule
FeatureMatrix
p7427
(dp7428
g23
(lp7429
(I00
g5512
tp7430
a(I01
g5467
tp7431
asg25
V[ +voice -vowel ]
p7432
sbsg25
V[ +voice -vowel ] ---> a / [ -sonorant -tense ] _ 
p7433
sba(irule
Rule
p7434
(dp7435
g15
(irule
Guard
p7436
(dp7437
g18
I00
sg19
(lp7438
(irule
FeatureMatrix
p7439
(dp7440
g23
(lp7441
(I00
g5454
tp7442
asg25
V[ -sonorant ]
p7443
sbasg35
I00
sg25
g7443
sg37
I00
sg38
S'L'
sbsg39
(irule
ConstantPhoneme
p7444
(dp7445
S'p'
Va
sbsg43
(irule
Guard
p7446
(dp7447
g18
I00
sg19
(lp7448
sg35
I00
sg25
V
sg37
I00
sg38
S'R'
sbsg47
(irule
FeatureMatrix
p7449
(dp7450
g23
(lp7451
(I00
g5885
tp7452
a(I00
g5512
tp7453
a(I01
g5467
tp7454
asg25
V[ +voice -back -vowel ]
p7455
sbsg25
V[ +voice -back -vowel ] ---> a / [ -sonorant ] _ 
p7456
sba(irule
Rule
p7457
(dp7458
g15
(irule
Guard
p7459
(dp7460
g18
I00
sg19
(lp7461
(irule
FeatureMatrix
p7462
(dp7463
g23
(lp7464
(I00
g5454
tp7465
asg25
V[ -sonorant ]
p7466
sbasg35
I00
sg25
g7466
sg37
I00
sg38
S'L'
sbsg39
(irule
ConstantPhoneme
p7467
(dp7468
S'p'
Va
sbsg43
(irule
Guard
p7469
(dp7470
g18
I00
sg19
(lp7471
sg35
I00
sg25
V
sg37
I00
sg38
S'R'
sbsg47
(irule
FeatureMatrix
p7472
(dp7473
g23
(lp7474
(I00
g6554
tp7475
a(I00
g5535
tp7476
a(I01
g5467
tp7477
asg25
V[ +voice -rounded -tense ]
p7478
sbsg25
V[ +voice -rounded -tense ] ---> a / [ -sonorant ] _ 
p7479
sba(irule
Rule
p7480
(dp7481
g15
(irule
Guard
p7482
(dp7483
g18
I00
sg19
(lp7484
(irule
FeatureMatrix
p7485
(dp7486
g23
(lp7487
(I00
g5454
tp7488
a(I00
g5607
tp7489
asg25
V[ -low -sonorant ]
p7490
sbasg35
I00
sg25
g7490
sg37
I00
sg38
S'L'
sbsg39
(irule
ConstantPhoneme
p7491
(dp7492
S'p'
Va
sbsg43
(irule
Guard
p7493
(dp7494
g18
I00
sg19
(lp7495
sg35
I00
sg25
V
sg37
I00
sg38
S'R'
sbsg47
(irule
FeatureMatrix
p7496
(dp7497
g23
(lp7498
(I00
g5535
tp7499
a(I01
g5467
tp7500
asg25
V[ +voice -tense ]
p7501
sbsg25
V[ +voice -tense ] ---> a / [ -low -sonorant ] _ 
p7502
sba(irule
Rule
p7503
(dp7504
g15
(irule
Guard
p7505
(dp7506
g18
I00
sg19
(lp7507
(irule
FeatureMatrix
p7508
(dp7509
g23
(lp7510
(I00
g5454
tp7511
a(I00
g5512
tp7512
asg25
V[ -sonorant -vowel ]
p7513
sbasg35
I00
sg25
g7513
sg37
I00
sg38
S'L'
sbsg39
(irule
ConstantPhoneme
p7514
(dp7515
S'p'
Va
sbsg43
(irule
Guard
p7516
(dp7517
g18
I00
sg19
(lp7518
sg35
I00
sg25
V
sg37
I00
sg38
S'R'
sbsg47
(irule
FeatureMatrix
p7519
(dp7520
g23
(lp7521
(I00
g5465
tp7522
a(I01
g5467
tp7523
asg25
V[ +voice -continuant ]
p7524
sbsg25
V[ +voice -continuant ] ---> a / [ -sonorant -vowel ] _ 
p7525
sba(irule
Rule
p7526
(dp7527
g15
(irule
Guard
p7528
(dp7529
g18
I00
sg19
(lp7530
(irule
FeatureMatrix
p7531
(dp7532
g23
(lp7533
(I00
g6346
tp7534
a(I00
g5454
tp7535
asg25
V[ -liquid -sonorant ]
p7536
sbasg35
I00
sg25
g7536
sg37
I00
sg38
S'L'
sbsg39
(irule
ConstantPhoneme
p7537
(dp7538
S'p'
Va
sbsg43
(irule
Guard
p7539
(dp7540
g18
I00
sg19
(lp7541
sg35
I00
sg25
V
sg37
I00
sg38
S'R'
sbsg47
(irule
FeatureMatrix
p7542
(dp7543
g23
(lp7544
(I00
g5465
tp7545
a(I01
g5467
tp7546
asg25
V[ +voice -continuant ]
p7547
sbsg25
V[ +voice -continuant ] ---> a / [ -liquid -sonorant ] _ 
p7548
sba(irule
Rule
p7549
(dp7550
g15
(irule
Guard
p7551
(dp7552
g18
I00
sg19
(lp7553
(irule
FeatureMatrix
p7554
(dp7555
g23
(lp7556
(I00
g5885
tp7557
a(I00
g5454
tp7558
asg25
V[ -back -sonorant ]
p7559
sbasg35
I00
sg25
g7559
sg37
I00
sg38
S'L'
sbsg39
(irule
ConstantPhoneme
p7560
(dp7561
S'p'
Va
sbsg43
(irule
Guard
p7562
(dp7563
g18
I00
sg19
(lp7564
sg35
I00
sg25
V
sg37
I00
sg38
S'R'
sbsg47
(irule
FeatureMatrix
p7565
(dp7566
g23
(lp7567
(I01
g5631
tp7568
a(I01
g5467
tp7569
asg25
V[ +anterior +voice ]
p7570
sbsg25
V[ +anterior +voice ] ---> a / [ -back -sonorant ] _ 
p7571
sba(irule
Rule
p7572
(dp7573
g15
(irule
Guard
p7574
(dp7575
g18
I00
sg19
(lp7576
(irule
FeatureMatrix
p7577
(dp7578
g23
(lp7579
(I00
g5572
tp7580
a(I00
g5454
tp7581
asg25
V[ -nasal -sonorant ]
p7582
sbasg35
I00
sg25
g7582
sg37
I00
sg38
S'L'
sbsg39
(irule
ConstantPhoneme
p7583
(dp7584
S'p'
Va
sbsg43
(irule
Guard
p7585
(dp7586
g18
I00
sg19
(lp7587
sg35
I00
sg25
V
sg37
I00
sg38
S'R'
sbsg47
(irule
FeatureMatrix
p7588
(dp7589
g23
(lp7590
(I00
g5535
tp7591
a(I01
g5467
tp7592
asg25
V[ +voice -tense ]
p7593
sbsg25
V[ +voice -tense ] ---> a / [ -nasal -sonorant ] _ 
p7594
sba(irule
Rule
p7595
(dp7596
g15
(irule
Guard
p7597
(dp7598
g18
I00
sg19
(lp7599
(irule
FeatureMatrix
p7600
(dp7601
g23
(lp7602
(I00
g5454
tp7603
a(I00
g5512
tp7604
asg25
V[ -sonorant -vowel ]
p7605
sbasg35
I00
sg25
g7605
sg37
I00
sg38
S'L'
sbsg39
(irule
ConstantPhoneme
p7606
(dp7607
S'p'
Va
sbsg43
(irule
Guard
p7608
(dp7609
g18
I00
sg19
(lp7610
sg35
I00
sg25
V
sg37
I00
sg38
S'R'
sbsg47
(irule
FeatureMatrix
p7611
(dp7612
g23
(lp7613
(I00
g5512
tp7614
a(I01
g5467
tp7615
asg25
V[ +voice -vowel ]
p7616
sbsg25
V[ +voice -vowel ] ---> a / [ -sonorant -vowel ] _ 
p7617
sba(irule
Rule
p7618
(dp7619
g15
(irule
Guard
p7620
(dp7621
g18
I00
sg19
(lp7622
(irule
FeatureMatrix
p7623
(dp7624
g23
(lp7625
(I00
g5454
tp7626
a(I00
g5489
tp7627
asg25
V[ -high -sonorant ]
p7628
sbasg35
I00
sg25
g7628
sg37
I00
sg38
S'L'
sbsg39
(irule
ConstantPhoneme
p7629
(dp7630
S'p'
Va
sbsg43
(irule
Guard
p7631
(dp7632
g18
I00
sg19
(lp7633
sg35
I00
sg25
V
sg37
I00
sg38
S'R'
sbsg47
(irule
FeatureMatrix
p7634
(dp7635
g23
(lp7636
(I00
g5465
tp7637
a(I01
g5467
tp7638
asg25
V[ +voice -continuant ]
p7639
sbsg25
V[ +voice -continuant ] ---> a / [ -high -sonorant ] _ 
p7640
sba(irule
Rule
p7641
(dp7642
g15
(irule
Guard
p7643
(dp7644
g18
I00
sg19
(lp7645
(irule
FeatureMatrix
p7646
(dp7647
g23
(lp7648
(I00
g5559
tp7649
a(I00
g5454
tp7650
asg25
V[ -lateral -sonorant ]
p7651
sbasg35
I00
sg25
g7651
sg37
I00
sg38
S'L'
sbsg39
(irule
ConstantPhoneme
p7652
(dp7653
S'p'
Va
sbsg43
(irule
Guard
p7654
(dp7655
g18
I00
sg19
(lp7656
sg35
I00
sg25
V
sg37
I00
sg38
S'R'
sbsg47
(irule
FeatureMatrix
p7657
(dp7658
g23
(lp7659
(I00
g5465
tp7660
a(I01
g5467
tp7661
asg25
V[ +voice -continuant ]
p7662
sbsg25
V[ +voice -continuant ] ---> a / [ -lateral -sonorant ] _ 
p7663
sba(irule
Rule
p7664
(dp7665
g15
(irule
Guard
p7666
(dp7667
g18
I00
sg19
(lp7668
(irule
FeatureMatrix
p7669
(dp7670
g23
(lp7671
(I00
g6346
tp7672
a(I00
g5454
tp7673
asg25
V[ -liquid -sonorant ]
p7674
sbasg35
I00
sg25
g7674
sg37
I00
sg38
S'L'
sbsg39
(irule
ConstantPhoneme
p7675
(dp7676
S'p'
Va
sbsg43
(irule
Guard
p7677
(dp7678
g18
I00
sg19
(lp7679
sg35
I00
sg25
V
sg37
I00
sg38
S'R'
sbsg47
(irule
FeatureMatrix
p7680
(dp7681
g23
(lp7682
(I00
g5512
tp7683
a(I01
g5467
tp7684
asg25
V[ +voice -vowel ]
p7685
sbsg25
V[ +voice -vowel ] ---> a / [ -liquid -sonorant ] _ 
p7686
sba(irule
Rule
p7687
(dp7688
g15
(irule
Guard
p7689
(dp7690
g18
I00
sg19
(lp7691
(irule
FeatureMatrix
p7692
(dp7693
g23
(lp7694
(I00
g5454
tp7695
asg25
V[ -sonorant ]
p7696
sbasg35
I00
sg25
g7696
sg37
I00
sg38
S'L'
sbsg39
(irule
ConstantPhoneme
p7697
(dp7698
S'p'
Va
sbsg43
(irule
Guard
p7699
(dp7700
g18
I00
sg19
(lp7701
sg35
I00
sg25
V
sg37
I00
sg38
S'R'
sbsg47
(irule
FeatureMatrix
p7702
(dp7703
g23
(lp7704
(I00
g5607
tp7705
a(I00
g5512
tp7706
a(I01
g5467
tp7707
asg25
V[ +voice -low -vowel ]
p7708
sbsg25
V[ +voice -low -vowel ] ---> a / [ -sonorant ] _ 
p7709
sba(irule
Rule
p7710
(dp7711
g15
(irule
Guard
p7712
(dp7713
g18
I00
sg19
(lp7714
(irule
FeatureMatrix
p7715
(dp7716
g23
(lp7717
(I00
g5454
tp7718
a(I00
g5607
tp7719
asg25
V[ -low -sonorant ]
p7720
sbasg35
I00
sg25
g7720
sg37
I00
sg38
S'L'
sbsg39
(irule
ConstantPhoneme
p7721
(dp7722
S'p'
Va
sbsg43
(irule
Guard
p7723
(dp7724
g18
I00
sg19
(lp7725
sg35
I00
sg25
V
sg37
I00
sg38
S'R'
sbsg47
(irule
FeatureMatrix
p7726
(dp7727
g23
(lp7728
(I00
g5465
tp7729
a(I01
g5467
tp7730
asg25
V[ +voice -continuant ]
p7731
sbsg25
V[ +voice -continuant ] ---> a / [ -low -sonorant ] _ 
p7732
sbaasbsS'parameters'
p7733
g6
(cargparse
Namespace
p7734
g8
NtRp7735
(dp7736
S'restore'
p7737
NsS'features'
p7738
S'sophisticated'
p7739
sS'universal'
p7740
NsS'restrict'
p7741
NsS'seed'
p7742
NsS'serial'
p7743
I00
sS'cv'
p7744
I00
sS'alignment'
p7745
I00
sS'top'
p7746
I100
sS'maximumDepth'
p7747
I3
sS'window'
p7748
NsS'minimizeBits'
p7749
I5
sS'samples'
p7750
I30
sS'save'
p7751
NsS'resume'
p7752
I00
sS'disableClean'
p7753
I00
sS'stemBaseline'
p7754
I30
sS'dummy'
p7755
I00
sS'task'
p7756
S'incremental'
p7757
sS'geometry'
p7758
I01
sS'verbosity'
p7759
I0
sS'noConstant'
p7760
I00
sS'timeout'
p7761
F24
sS'debug'
p7762
NsS'cores'
p7763
I48
sg290
S'Odden_Quechua_Saujas_3'
p7764
sS'mergeFrontiers'
p7765
I00
sbsb.