(iresult
Result
p1
(dp2
S'startTime'
p3
F1720262222.910604
sS'solutionSequence'
p4
(lp5
(ccopy_reg
_reconstructor
p6
(csolution
Solution
p7
c__builtin__
object
p8
NtRp9
(dp10
S'rules'
p11
(lp12
(irule
Rule
p13
(dp14
S'leftTriggers'
p15
(irule
Guard
p16
(dp17
S'endOfString'
p18
I00
sS'specifications'
p19
(lp20
sS'optionalEnding'
p21
I00
sS'representation'
p22
V
sS'starred'
p23
I00
sS'side'
p24
S'L'
sbsS'structuralChange'
p25
(irule
PlaceSpecification
p26
(dp27
S'offset'
p28
I1
sbsS'rightTriggers'
p29
(irule
Guard
p30
(dp31
g18
I00
sg19
(lp32
(irule
FeatureMatrix
p33
(dp34
S'featuresAndPolarities'
p35
(lp36
(I00
S'sonorant'
p37
tp38
asg22
V[ -sonorant ]
p39
sbasg21
I00
sg22
g39
sg23
I00
sg24
S'R'
sbsS'focus'
p40
(irule
FeatureMatrix
p41
(dp42
g35
(lp43
(I01
S'nasal'
p44
tp45
asg22
V[ +nasal ]
p46
sbsg22
V[ +nasal ] ---> place1 /  _ [ -sonorant ]
p47
sbasS'prefixes'
p48
(lp49
(imorph
Morph
p50
(dp51
S'phonemes'
p52
(lp53
Vm
aVa
aV\u014b
asba(imorph
Morph
p54
(dp55
g52
(lp56
Vd
aVi
asbasS'underlyingForms'
p57
(dp58
((imorph
Morph
p59
(dp60
g52
(lp61
Vm
aVa
aVn
aVd
aVe
aV\u014b
aV\u014b
aVe
aVq
asb(imorph
Morph
p62
(dp63
g52
(lp64
Vd
aVi
aVd
aVe
aV\u014b
aV\u014b
aVe
aVq
asbtp65
(imorph
Morph
p66
(dp67
g52
(lp68
Vd
aVe
aV\u014b
aV\u014b
aVe
aVq
asbs((imorph
Morph
p69
(dp70
g52
(lp71
Vm
aVa
aVm
aVb
aVa
aVt
aVt
aVa
asb(imorph
Morph
p72
(dp73
g52
(lp74
Vd
aVi
aVb
aVa
aVt
aVt
aVa
asbtp75
(imorph
Morph
p76
(dp77
g52
(lp78
Vb
aVa
aVt
aVt
aVa
asbs((imorph
Morph
p79
(dp80
g52
(lp81
Vm
aVa
aV\u014b
aVi
aVd
aVa
aV\u014b
asb(imorph
Morph
p82
(dp83
g52
(lp84
Vd
aVi
aVi
aVd
aVa
aV\u014b
asbtp85
(imorph
Morph
p86
(dp87
g52
(lp88
Vi
aVd
aVa
aV\u014b
asbssS'suffixes'
p89
(lp90
(imorph
Morph
p91
(dp92
g52
(lp93
sba(imorph
Morph
p94
(dp95
g52
(lp96
sbasbF14.886523962020874
tp97
a(g6
(g7
g8
NtRp98
(dp99
g11
(lp100
(irule
Rule
p101
(dp102
g15
(irule
Guard
p103
(dp104
g18
I01
sg19
(lp105
(irule
ConstantPhoneme
p106
(dp107
S'p'
Vd
sbasg21
I00
sg22
V# d
p108
sg23
I00
sg24
S'L'
sbsg25
(irule
ConstantPhoneme
p109
(dp110
S'p'
Vi
sbsg29
(irule
Guard
p111
(dp112
g18
I00
sg19
(lp113
sg21
I00
sg22
V
sg23
I00
sg24
S'R'
sbsg40
(irule
FeatureMatrix
p114
(dp115
g35
(lp116
sg22
V[  ]
p117
sbsg22
V[  ] ---> i / # d _ 
p118
sbasg48
(lp119
(imorph
Morph
p120
(dp121
g52
(lp122
Vm
aVa
asba(imorph
Morph
p123
(dp124
g52
(lp125
Vd
asbasg57
(dp126
((imorph
Morph
(dp127
g52
(lp128
Vm
aVa
aVs
aVs
aVi
aVr
aVa
aVq
asb(imorph
Morph
(dp129
g52
(lp130
Vd
aVi
aVs
aVi
aVr
aVa
aVq
asbtp131
(imorph
Morph
p132
(dp133
g52
(lp134
Vs
aVs
aVi
aVr
aVa
aVq
asbs((imorph
Morph
(dp135
g52
(lp136
Vm
aVa
aVm
aVb
aVa
aVt
aVt
aVa
asb(imorph
Morph
(dp137
g52
(lp138
Vd
aVi
aVb
aVa
aVt
aVt
aVa
asbtp139
(imorph
Morph
p140
(dp141
g52
(lp142
Vm
aVb
aVa
aVt
aVt
aVa
asbs((imorph
Morph
(dp143
g52
(lp144
Vm
aVa
aVp
aVp
aVa
aVs
aVu
aV\u014b
asb(imorph
Morph
(dp145
g52
(lp146
Vd
aVi
aVp
aVa
aVs
aVu
aV\u014b
asbtp147
(imorph
Morph
p148
(dp149
g52
(lp150
Vp
aVp
aVa
aVs
aVu
aV\u014b
asbs((imorph
Morph
(dp151
g52
(lp152
Vm
aVa
aVt
aVt
aVu
aVn
aVu
asb(imorph
Morph
(dp153
g52
(lp154
Vd
aVi
aVt
aVu
aVn
aVu
asbtp155
(imorph
Morph
p156
(dp157
g52
(lp158
Vt
aVt
aVu
aVn
aVu
asbs((imorph
Morph
(dp159
g52
(lp160
Vm
aVa
aVn
aVd
aVe
aV\u014b
aV\u014b
aVe
aVq
asb(imorph
Morph
(dp161
g52
(lp162
Vd
aVi
aVd
aVe
aV\u014b
aV\u014b
aVe
aVq
asbtp163
(imorph
Morph
p164
(dp165
g52
(lp166
Vn
aVd
aVe
aV\u014b
aV\u014b
aVe
aVq
asbs((imorph
Morph
(dp167
g52
(lp168
Vm
aVa
aV\u014b
aVi
aVd
aVa
aV\u014b
asb(imorph
Morph
(dp169
g52
(lp170
Vd
aVi
aVi
aVd
aVa
aV\u014b
asbtp171
(imorph
Morph
p172
(dp173
g52
(lp174
V\u014b
aVi
aVd
aVa
aV\u014b
asbssg89
(lp175
(imorph
Morph
p176
(dp177
g52
(lp178
sba(imorph
Morph
p179
(dp180
g52
(lp181
sbasbF677.97519993782043
tp182
asS'problem'
p183
S'Odden_Mandar_Saujas_1'
p184
sS'finalFrontier'
p185
g6
(csolution
Frontier
p186
g8
NtRp187
(dp188
g48
g119
sg89
g175
sg57
g126
sS'frontiers'
p189
(lp190
(lp191
(irule
Rule
p192
(dp193
g15
(irule
Guard
p194
(dp195
g18
I01
sg19
(lp196
(irule
ConstantPhoneme
p197
(dp198
S'p'
Vd
sbasg21
I00
sg22
V# d
p199
sg23
I00
sg24
S'L'
sbsg25
(irule
ConstantPhoneme
p200
(dp201
S'p'
Vi
sbsg29
(irule
Guard
p202
(dp203
g18
I00
sg19
(lp204
sg21
I00
sg22
V
sg23
I00
sg24
S'R'
sbsg40
(irule
FeatureMatrix
p205
(dp206
g35
(lp207
sg22
V[  ]
p208
sbsg22
V[  ] ---> i / # d _ 
p209
sba(irule
Rule
p210
(dp211
g15
(irule
Guard
p212
(dp213
g18
I01
sg19
(lp214
(irule
FeatureMatrix
p215
(dp216
g35
(lp217
(I00
S'sonorant'
p218
tp219
asg22
V[ -sonorant ]
p220
sbasg21
I00
sg22
V# [ -sonorant ]
p221
sg23
I00
sg24
S'L'
sbsg25
(irule
ConstantPhoneme
p222
(dp223
S'p'
Vi
sbsg29
(irule
Guard
p224
(dp225
g18
I00
sg19
(lp226
sg21
I00
sg22
V
sg23
I00
sg24
S'R'
sbsg40
(irule
FeatureMatrix
p227
(dp228
g35
(lp229
sg22
V[  ]
p230
sbsg22
V[  ] ---> i / # [ -sonorant ] _ 
p231
sba(irule
Rule
p232
(dp233
g15
(irule
Guard
p234
(dp235
g18
I01
sg19
(lp236
(irule
FeatureMatrix
p237
(dp238
g35
(lp239
(I00
S'nasal'
p240
tp241
asg22
V[ -nasal ]
p242
sbasg21
I00
sg22
V# [ -nasal ]
p243
sg23
I00
sg24
S'L'
sbsg25
(irule
ConstantPhoneme
p244
(dp245
S'p'
Vi
sbsg29
(irule
Guard
p246
(dp247
g18
I00
sg19
(lp248
sg21
I00
sg22
V
sg23
I00
sg24
S'R'
sbsg40
(irule
FeatureMatrix
p249
(dp250
g35
(lp251
sg22
V[  ]
p252
sbsg22
V[  ] ---> i / # [ -nasal ] _ 
p253
sba(irule
Rule
p254
(dp255
g15
(irule
Guard
p256
(dp257
g18
I01
sg19
(lp258
(irule
FeatureMatrix
p259
(dp260
g35
(lp261
sg22
V[  ]
p262
sbasg21
I00
sg22
V# [  ]
p263
sg23
I00
sg24
S'L'
sbsg25
(irule
ConstantPhoneme
p264
(dp265
S'p'
Vi
sbsg29
(irule
Guard
p266
(dp267
g18
I00
sg19
(lp268
sg21
I00
sg22
V
sg23
I00
sg24
S'R'
sbsg40
(irule
FeatureMatrix
p269
(dp270
g35
(lp271
(I00
S'low'
p272
tp273
asg22
V[ -low ]
p274
sbsg22
V[ -low ] ---> i / # [  ] _ 
p275
sba(irule
Rule
p276
(dp277
g15
(irule
Guard
p278
(dp279
g18
I01
sg19
(lp280
(irule
FeatureMatrix
p281
(dp282
g35
(lp283
(I01
S'coronal'
p284
tp285
asg22
V[ +coronal ]
p286
sbasg21
I00
sg22
V# [ +coronal ]
p287
sg23
I00
sg24
S'L'
sbsg25
(irule
ConstantPhoneme
p288
(dp289
S'p'
Vi
sbsg29
(irule
Guard
p290
(dp291
g18
I00
sg19
(lp292
sg21
I00
sg22
V
sg23
I00
sg24
S'R'
sbsg40
(irule
FeatureMatrix
p293
(dp294
g35
(lp295
sg22
V[  ]
p296
sbsg22
V[  ] ---> i / # [ +coronal ] _ 
p297
sba(irule
Rule
p298
(dp299
g15
(irule
Guard
p300
(dp301
g18
I01
sg19
(lp302
(irule
FeatureMatrix
p303
(dp304
g35
(lp305
sg22
V[  ]
p306
sbasg21
I00
sg22
V# [  ]
p307
sg23
I00
sg24
S'L'
sbsg25
(irule
ConstantPhoneme
p308
(dp309
S'p'
Vi
sbsg29
(irule
Guard
p310
(dp311
g18
I00
sg19
(lp312
sg21
I00
sg22
V
sg23
I00
sg24
S'R'
sbsg40
(irule
FeatureMatrix
p313
(dp314
g35
(lp315
(I00
S'tense'
p316
tp317
asg22
V[ -tense ]
p318
sbsg22
V[ -tense ] ---> i / # [  ] _ 
p319
sba(irule
Rule
p320
(dp321
g15
(irule
Guard
p322
(dp323
g18
I01
sg19
(lp324
(irule
FeatureMatrix
p325
(dp326
g35
(lp327
sg22
V[  ]
p328
sbasg21
I00
sg22
V# [  ]
p329
sg23
I00
sg24
S'L'
sbsg25
(irule
ConstantPhoneme
p330
(dp331
S'p'
Vi
sbsg29
(irule
Guard
p332
(dp333
g18
I00
sg19
(lp334
sg21
I00
sg22
V
sg23
I00
sg24
S'R'
sbsg40
(irule
FeatureMatrix
p335
(dp336
g35
(lp337
(I00
S'vowel'
p338
tp339
asg22
V[ -vowel ]
p340
sbsg22
V[ -vowel ] ---> i / # [  ] _ 
p341
sba(irule
Rule
p342
(dp343
g15
(irule
Guard
p344
(dp345
g18
I00
sg19
(lp346
(irule
ConstantPhoneme
p347
(dp348
S'p'
Vd
sbasg21
I00
sg22
Vd
sg23
I00
sg24
S'L'
sbsg25
(irule
ConstantPhoneme
p349
(dp350
S'p'
Vi
sbsg29
(irule
Guard
p351
(dp352
g18
I00
sg19
(lp353
sg21
I00
sg22
V
sg23
I00
sg24
S'R'
sbsg40
(irule
FeatureMatrix
p354
(dp355
g35
(lp356
(I00
g338
tp357
asg22
V[ -vowel ]
p358
sbsg22
V[ -vowel ] ---> i / d _ 
p359
sba(irule
Rule
p360
(dp361
g15
(irule
Guard
p362
(dp363
g18
I00
sg19
(lp364
(irule
ConstantPhoneme
p365
(dp366
S'p'
Vd
sbasg21
I00
sg22
Vd
sg23
I00
sg24
S'L'
sbsg25
(irule
ConstantPhoneme
p367
(dp368
S'p'
Vi
sbsg29
(irule
Guard
p369
(dp370
g18
I00
sg19
(lp371
sg21
I00
sg22
V
sg23
I00
sg24
S'R'
sbsg40
(irule
FeatureMatrix
p372
(dp373
g35
(lp374
(I00
g316
tp375
asg22
V[ -tense ]
p376
sbsg22
V[ -tense ] ---> i / d _ 
p377
sba(irule
Rule
p378
(dp379
g15
(irule
Guard
p380
(dp381
g18
I01
sg19
(lp382
(irule
FeatureMatrix
p383
(dp384
g35
(lp385
sg22
V[  ]
p386
sbasg21
I00
sg22
V# [  ]
p387
sg23
I00
sg24
S'L'
sbsg25
(irule
ConstantPhoneme
p388
(dp389
S'p'
Vi
sbsg29
(irule
Guard
p390
(dp391
g18
I00
sg19
(lp392
sg21
I00
sg22
V
sg23
I00
sg24
S'R'
sbsg40
(irule
FeatureMatrix
p393
(dp394
g35
(lp395
(I00
S'liquid'
p396
tp397
a(I00
g316
tp398
asg22
V[ -liquid -tense ]
p399
sbsg22
V[ -liquid -tense ] ---> i / # [  ] _ 
p400
sba(irule
Rule
p401
(dp402
g15
(irule
Guard
p403
(dp404
g18
I01
sg19
(lp405
(irule
FeatureMatrix
p406
(dp407
g35
(lp408
(I00
S'rounded'
p409
tp410
a(I01
g284
tp411
asg22
V[ +coronal -rounded ]
p412
sbasg21
I00
sg22
V# [ +coronal -rounded ]
p413
sg23
I00
sg24
S'L'
sbsg25
(irule
ConstantPhoneme
p414
(dp415
S'p'
Vi
sbsg29
(irule
Guard
p416
(dp417
g18
I00
sg19
(lp418
sg21
I00
sg22
V
sg23
I00
sg24
S'R'
sbsg40
(irule
FeatureMatrix
p419
(dp420
g35
(lp421
sg22
V[  ]
p422
sbsg22
V[  ] ---> i / # [ +coronal -rounded ] _ 
p423
sba(irule
Rule
p424
(dp425
g15
(irule
Guard
p426
(dp427
g18
I01
sg19
(lp428
(irule
FeatureMatrix
p429
(dp430
g35
(lp431
(I00
g396
tp432
a(I01
g284
tp433
asg22
V[ +coronal -liquid ]
p434
sbasg21
I00
sg22
V# [ +coronal -liquid ]
p435
sg23
I00
sg24
S'L'
sbsg25
(irule
ConstantPhoneme
p436
(dp437
S'p'
Vi
sbsg29
(irule
Guard
p438
(dp439
g18
I00
sg19
(lp440
sg21
I00
sg22
V
sg23
I00
sg24
S'R'
sbsg40
(irule
FeatureMatrix
p441
(dp442
g35
(lp443
sg22
V[  ]
p444
sbsg22
V[  ] ---> i / # [ +coronal -liquid ] _ 
p445
sba(irule
Rule
p446
(dp447
g15
(irule
Guard
p448
(dp449
g18
I00
sg19
(lp450
(irule
ConstantPhoneme
p451
(dp452
S'p'
Vd
sbasg21
I00
sg22
Vd
sg23
I00
sg24
S'L'
sbsg25
(irule
ConstantPhoneme
p453
(dp454
S'p'
Vi
sbsg29
(irule
Guard
p455
(dp456
g18
I00
sg19
(lp457
(irule
FeatureMatrix
p458
(dp459
g35
(lp460
(I00
S'back'
p461
tp462
asg22
V[ -back ]
p463
sbasg21
I00
sg22
g463
sg23
I00
sg24
S'R'
sbsg40
(irule
FeatureMatrix
p464
(dp465
g35
(lp466
sg22
V[  ]
p467
sbsg22
V[  ] ---> i / d _ [ -back ]
p468
sba(irule
Rule
p469
(dp470
g15
(irule
Guard
p471
(dp472
g18
I01
sg19
(lp473
(irule
FeatureMatrix
p474
(dp475
g35
(lp476
(I00
g240
tp477
asg22
V[ -nasal ]
p478
sbasg21
I00
sg22
V# [ -nasal ]
p479
sg23
I00
sg24
S'L'
sbsg25
(irule
ConstantPhoneme
p480
(dp481
S'p'
Vi
sbsg29
(irule
Guard
p482
(dp483
g18
I00
sg19
(lp484
(irule
FeatureMatrix
p485
(dp486
g35
(lp487
sg22
V[  ]
p488
sbasg21
I00
sg22
g488
sg23
I00
sg24
S'R'
sbsg40
(irule
FeatureMatrix
p489
(dp490
g35
(lp491
sg22
V[  ]
p492
sbsg22
V[  ] ---> i / # [ -nasal ] _ [  ]
p493
sba(irule
Rule
p494
(dp495
g15
(irule
Guard
p496
(dp497
g18
I01
sg19
(lp498
(irule
FeatureMatrix
p499
(dp500
g35
(lp501
(I00
S'continuant'
p502
tp503
a(I01
g284
tp504
asg22
V[ +coronal -continuant ]
p505
sbasg21
I00
sg22
V# [ +coronal -continuant ]
p506
sg23
I00
sg24
S'L'
sbsg25
(irule
ConstantPhoneme
p507
(dp508
S'p'
Vi
sbsg29
(irule
Guard
p509
(dp510
g18
I00
sg19
(lp511
sg21
I00
sg22
V
sg23
I00
sg24
S'R'
sbsg40
(irule
FeatureMatrix
p512
(dp513
g35
(lp514
sg22
V[  ]
p515
sbsg22
V[  ] ---> i / # [ +coronal -continuant ] _ 
p516
sba(irule
Rule
p517
(dp518
g15
(irule
Guard
p519
(dp520
g18
I01
sg19
(lp521
(irule
FeatureMatrix
p522
(dp523
g35
(lp524
(I00
g409
tp525
a(I00
g240
tp526
asg22
V[ -nasal -rounded ]
p527
sbasg21
I00
sg22
V# [ -nasal -rounded ]
p528
sg23
I00
sg24
S'L'
sbsg25
(irule
ConstantPhoneme
p529
(dp530
S'p'
Vi
sbsg29
(irule
Guard
p531
(dp532
g18
I00
sg19
(lp533
sg21
I00
sg22
V
sg23
I00
sg24
S'R'
sbsg40
(irule
FeatureMatrix
p534
(dp535
g35
(lp536
sg22
V[  ]
p537
sbsg22
V[  ] ---> i / # [ -nasal -rounded ] _ 
p538
sba(irule
Rule
p539
(dp540
g15
(irule
Guard
p541
(dp542
g18
I01
sg19
(lp543
(irule
FeatureMatrix
p544
(dp545
g35
(lp546
(I01
g284
tp547
asg22
V[ +coronal ]
p548
sbasg21
I00
sg22
V# [ +coronal ]
p549
sg23
I00
sg24
S'L'
sbsg25
(irule
ConstantPhoneme
p550
(dp551
S'p'
Vi
sbsg29
(irule
Guard
p552
(dp553
g18
I00
sg19
(lp554
(irule
FeatureMatrix
p555
(dp556
g35
(lp557
sg22
V[  ]
p558
sbasg21
I00
sg22
g558
sg23
I00
sg24
S'R'
sbsg40
(irule
FeatureMatrix
p559
(dp560
g35
(lp561
sg22
V[  ]
p562
sbsg22
V[  ] ---> i / # [ +coronal ] _ [  ]
p563
sba(irule
Rule
p564
(dp565
g15
(irule
Guard
p566
(dp567
g18
I01
sg19
(lp568
(irule
FeatureMatrix
p569
(dp570
g35
(lp571
(I00
g502
tp572
asg22
V[ -continuant ]
p573
sbasg21
I00
sg22
V# [ -continuant ]
p574
sg23
I00
sg24
S'L'
sbsg25
(irule
ConstantPhoneme
p575
(dp576
S'p'
Vi
sbsg29
(irule
Guard
p577
(dp578
g18
I00
sg19
(lp579
sg21
I00
sg22
V
sg23
I00
sg24
S'R'
sbsg40
(irule
FeatureMatrix
p580
(dp581
g35
(lp582
(I00
g272
tp583
asg22
V[ -low ]
p584
sbsg22
V[ -low ] ---> i / # [ -continuant ] _ 
p585
sba(irule
Rule
p586
(dp587
g15
(irule
Guard
p588
(dp589
g18
I00
sg19
(lp590
(irule
ConstantPhoneme
p591
(dp592
S'p'
Vd
sbasg21
I00
sg22
Vd
sg23
I00
sg24
S'L'
sbsg25
(irule
ConstantPhoneme
p593
(dp594
S'p'
Vi
sbsg29
(irule
Guard
p595
(dp596
g18
I00
sg19
(lp597
sg21
I00
sg22
V
sg23
I00
sg24
S'R'
sbsg40
(irule
FeatureMatrix
p598
(dp599
g35
(lp600
(I00
g396
tp601
a(I00
g316
tp602
asg22
V[ -liquid -tense ]
p603
sbsg22
V[ -liquid -tense ] ---> i / d _ 
p604
sba(irule
Rule
p605
(dp606
g15
(irule
Guard
p607
(dp608
g18
I01
sg19
(lp609
(irule
FeatureMatrix
p610
(dp611
g35
(lp612
(I00
g240
tp613
asg22
V[ -nasal ]
p614
sbasg21
I00
sg22
V# [ -nasal ]
p615
sg23
I00
sg24
S'L'
sbsg25
(irule
ConstantPhoneme
p616
(dp617
S'p'
Vi
sbsg29
(irule
Guard
p618
(dp619
g18
I00
sg19
(lp620
sg21
I00
sg22
V
sg23
I00
sg24
S'R'
sbsg40
(irule
FeatureMatrix
p621
(dp622
g35
(lp623
(I00
g272
tp624
asg22
V[ -low ]
p625
sbsg22
V[ -low ] ---> i / # [ -nasal ] _ 
p626
sba(irule
Rule
p627
(dp628
g15
(irule
Guard
p629
(dp630
g18
I01
sg19
(lp631
(irule
FeatureMatrix
p632
(dp633
g35
(lp634
(I00
g240
tp635
asg22
V[ -nasal ]
p636
sbasg21
I00
sg22
V# [ -nasal ]
p637
sg23
I00
sg24
S'L'
sbsg25
(irule
ConstantPhoneme
p638
(dp639
S'p'
Vi
sbsg29
(irule
Guard
p640
(dp641
g18
I00
sg19
(lp642
sg21
I00
sg22
V
sg23
I00
sg24
S'R'
sbsg40
(irule
FeatureMatrix
p643
(dp644
g35
(lp645
(I00
g316
tp646
asg22
V[ -tense ]
p647
sbsg22
V[ -tense ] ---> i / # [ -nasal ] _ 
p648
sba(irule
Rule
p649
(dp650
g15
(irule
Guard
p651
(dp652
g18
I01
sg19
(lp653
(irule
FeatureMatrix
p654
(dp655
g35
(lp656
sg22
V[  ]
p657
sbasg21
I00
sg22
V# [  ]
p658
sg23
I00
sg24
S'L'
sbsg25
(irule
ConstantPhoneme
p659
(dp660
S'p'
Vi
sbsg29
(irule
Guard
p661
(dp662
g18
I00
sg19
(lp663
sg21
I00
sg22
V
sg23
I00
sg24
S'R'
sbsg40
(irule
FeatureMatrix
p664
(dp665
g35
(lp666
(I00
g409
tp667
a(I00
g316
tp668
asg22
V[ -rounded -tense ]
p669
sbsg22
V[ -rounded -tense ] ---> i / # [  ] _ 
p670
sba(irule
Rule
p671
(dp672
g15
(irule
Guard
p673
(dp674
g18
I01
sg19
(lp675
(irule
FeatureMatrix
p676
(dp677
g35
(lp678
(I01
S'anterior'
p679
tp680
a(I01
g284
tp681
asg22
V[ +anterior +coronal ]
p682
sbasg21
I00
sg22
V# [ +anterior +coronal ]
p683
sg23
I00
sg24
S'L'
sbsg25
(irule
ConstantPhoneme
p684
(dp685
S'p'
Vi
sbsg29
(irule
Guard
p686
(dp687
g18
I00
sg19
(lp688
sg21
I00
sg22
V
sg23
I00
sg24
S'R'
sbsg40
(irule
FeatureMatrix
p689
(dp690
g35
(lp691
sg22
V[  ]
p692
sbsg22
V[  ] ---> i / # [ +anterior +coronal ] _ 
p693
sba(irule
Rule
p694
(dp695
g15
(irule
Guard
p696
(dp697
g18
I01
sg19
(lp698
(irule
FeatureMatrix
p699
(dp700
g35
(lp701
(I00
g240
tp702
asg22
V[ -nasal ]
p703
sbasg21
I00
sg22
V# [ -nasal ]
p704
sg23
I00
sg24
S'L'
sbsg25
(irule
ConstantPhoneme
p705
(dp706
S'p'
Vi
sbsg29
(irule
Guard
p707
(dp708
g18
I00
sg19
(lp709
sg21
I00
sg22
V
sg23
I00
sg24
S'R'
sbsg40
(irule
FeatureMatrix
p710
(dp711
g35
(lp712
(I00
g338
tp713
asg22
V[ -vowel ]
p714
sbsg22
V[ -vowel ] ---> i / # [ -nasal ] _ 
p715
sba(irule
Rule
p716
(dp717
g15
(irule
Guard
p718
(dp719
g18
I01
sg19
(lp720
(irule
FeatureMatrix
p721
(dp722
g35
(lp723
(I00
g240
tp724
asg22
V[ -nasal ]
p725
sbasg21
I00
sg22
V# [ -nasal ]
p726
sg23
I00
sg24
S'L'
sbsg25
(irule
ConstantPhoneme
p727
(dp728
S'p'
Vi
sbsg29
(irule
Guard
p729
(dp730
g18
I00
sg19
(lp731
sg21
I00
sg22
V
sg23
I00
sg24
S'R'
sbsg40
(irule
FeatureMatrix
p732
(dp733
g35
(lp734
(I00
g396
tp735
asg22
V[ -liquid ]
p736
sbsg22
V[ -liquid ] ---> i / # [ -nasal ] _ 
p737
sba(irule
Rule
p738
(dp739
g15
(irule
Guard
p740
(dp741
g18
I01
sg19
(lp742
(irule
FeatureMatrix
p743
(dp744
g35
(lp745
sg22
V[  ]
p746
sbasg21
I00
sg22
V# [  ]
p747
sg23
I00
sg24
S'L'
sbsg25
(irule
ConstantPhoneme
p748
(dp749
S'p'
Vi
sbsg29
(irule
Guard
p750
(dp751
g18
I00
sg19
(lp752
sg21
I00
sg22
V
sg23
I00
sg24
S'R'
sbsg40
(irule
FeatureMatrix
p753
(dp754
g35
(lp755
(I00
g396
tp756
a(I00
g272
tp757
asg22
V[ -liquid -low ]
p758
sbsg22
V[ -liquid -low ] ---> i / # [  ] _ 
p759
sba(irule
Rule
p760
(dp761
g15
(irule
Guard
p762
(dp763
g18
I01
sg19
(lp764
(irule
FeatureMatrix
p765
(dp766
g35
(lp767
(I00
g409
tp768
asg22
V[ -rounded ]
p769
sbasg21
I00
sg22
V# [ -rounded ]
p770
sg23
I00
sg24
S'L'
sbsg25
(irule
ConstantPhoneme
p771
(dp772
S'p'
Vi
sbsg29
(irule
Guard
p773
(dp774
g18
I00
sg19
(lp775
sg21
I00
sg22
V
sg23
I00
sg24
S'R'
sbsg40
(irule
FeatureMatrix
p776
(dp777
g35
(lp778
(I00
g272
tp779
asg22
V[ -low ]
p780
sbsg22
V[ -low ] ---> i / # [ -rounded ] _ 
p781
sba(irule
Rule
p782
(dp783
g15
(irule
Guard
p784
(dp785
g18
I01
sg19
(lp786
(irule
ConstantPhoneme
p787
(dp788
S'p'
Vd
sbasg21
I00
sg22
V# d
p789
sg23
I00
sg24
S'L'
sbsg25
(irule
ConstantPhoneme
p790
(dp791
S'p'
Vi
sbsg29
(irule
Guard
p792
(dp793
g18
I00
sg19
(lp794
(irule
FeatureMatrix
p795
(dp796
g35
(lp797
sg22
V[  ]
p798
sbasg21
I00
sg22
g798
sg23
I00
sg24
S'R'
sbsg40
(irule
FeatureMatrix
p799
(dp800
g35
(lp801
sg22
V[  ]
p802
sbsg22
V[  ] ---> i / # d _ [  ]
p803
sba(irule
Rule
p804
(dp805
g15
(irule
Guard
p806
(dp807
g18
I01
sg19
(lp808
(irule
FeatureMatrix
p809
(dp810
g35
(lp811
(I00
g240
tp812
asg22
V[ -nasal ]
p813
sbasg21
I00
sg22
V# [ -nasal ]
p814
sg23
I00
sg24
S'L'
sbsg25
(irule
ConstantPhoneme
p815
(dp816
S'p'
Vi
sbsg29
(irule
Guard
p817
(dp818
g18
I00
sg19
(lp819
sg21
I00
sg22
V
sg23
I00
sg24
S'R'
sbsg40
(irule
FeatureMatrix
p820
(dp821
g35
(lp822
(I00
g409
tp823
asg22
V[ -rounded ]
p824
sbsg22
V[ -rounded ] ---> i / # [ -nasal ] _ 
p825
sba(irule
Rule
p826
(dp827
g15
(irule
Guard
p828
(dp829
g18
I01
sg19
(lp830
(irule
FeatureMatrix
p831
(dp832
g35
(lp833
(I00
g396
tp834
a(I00
g218
tp835
asg22
V[ -liquid -sonorant ]
p836
sbasg21
I00
sg22
V# [ -liquid -sonorant ]
p837
sg23
I00
sg24
S'L'
sbsg25
(irule
ConstantPhoneme
p838
(dp839
S'p'
Vi
sbsg29
(irule
Guard
p840
(dp841
g18
I00
sg19
(lp842
sg21
I00
sg22
V
sg23
I00
sg24
S'R'
sbsg40
(irule
FeatureMatrix
p843
(dp844
g35
(lp845
sg22
V[  ]
p846
sbsg22
V[  ] ---> i / # [ -liquid -sonorant ] _ 
p847
sba(irule
Rule
p848
(dp849
g15
(irule
Guard
p850
(dp851
g18
I00
sg19
(lp852
(irule
ConstantPhoneme
p853
(dp854
S'p'
Vd
sbasg21
I00
sg22
Vd
sg23
I00
sg24
S'L'
sbsg25
(irule
ConstantPhoneme
p855
(dp856
S'p'
Vi
sbsg29
(irule
Guard
p857
(dp858
g18
I00
sg19
(lp859
sg21
I00
sg22
V
sg23
I00
sg24
S'R'
sbsg40
(irule
FeatureMatrix
p860
(dp861
g35
(lp862
(I00
g409
tp863
a(I00
g316
tp864
asg22
V[ -rounded -tense ]
p865
sbsg22
V[ -rounded -tense ] ---> i / d _ 
p866
sba(irule
Rule
p867
(dp868
g15
(irule
Guard
p869
(dp870
g18
I00
sg19
(lp871
(irule
ConstantPhoneme
p872
(dp873
S'p'
Vd
sbasg21
I00
sg22
Vd
sg23
I00
sg24
S'L'
sbsg25
(irule
ConstantPhoneme
p874
(dp875
S'p'
Vi
sbsg29
(irule
Guard
p876
(dp877
g18
I00
sg19
(lp878
(irule
FeatureMatrix
p879
(dp880
g35
(lp881
(I00
g240
tp882
asg22
V[ -nasal ]
p883
sbasg21
I00
sg22
g883
sg23
I00
sg24
S'R'
sbsg40
(irule
FeatureMatrix
p884
(dp885
g35
(lp886
sg22
V[  ]
p887
sbsg22
V[  ] ---> i / d _ [ -nasal ]
p888
sba(irule
Rule
p889
(dp890
g15
(irule
Guard
p891
(dp892
g18
I01
sg19
(lp893
(irule
FeatureMatrix
p894
(dp895
g35
(lp896
(I00
g218
tp897
asg22
V[ -sonorant ]
p898
sbasg21
I00
sg22
V# [ -sonorant ]
p899
sg23
I00
sg24
S'L'
sbsg25
(irule
ConstantPhoneme
p900
(dp901
S'p'
Vi
sbsg29
(irule
Guard
p902
(dp903
g18
I00
sg19
(lp904
(irule
FeatureMatrix
p905
(dp906
g35
(lp907
sg22
V[  ]
p908
sbasg21
I00
sg22
g908
sg23
I00
sg24
S'R'
sbsg40
(irule
FeatureMatrix
p909
(dp910
g35
(lp911
sg22
V[  ]
p912
sbsg22
V[  ] ---> i / # [ -sonorant ] _ [  ]
p913
sba(irule
Rule
p914
(dp915
g15
(irule
Guard
p916
(dp917
g18
I01
sg19
(lp918
(irule
FeatureMatrix
p919
(dp920
g35
(lp921
(I00
g409
tp922
asg22
V[ -rounded ]
p923
sbasg21
I00
sg22
V# [ -rounded ]
p924
sg23
I00
sg24
S'L'
sbsg25
(irule
ConstantPhoneme
p925
(dp926
S'p'
Vi
sbsg29
(irule
Guard
p927
(dp928
g18
I00
sg19
(lp929
sg21
I00
sg22
V
sg23
I00
sg24
S'R'
sbsg40
(irule
FeatureMatrix
p930
(dp931
g35
(lp932
(I00
g338
tp933
asg22
V[ -vowel ]
p934
sbsg22
V[ -vowel ] ---> i / # [ -rounded ] _ 
p935
sba(irule
Rule
p936
(dp937
g15
(irule
Guard
p938
(dp939
g18
I01
sg19
(lp940
(irule
FeatureMatrix
p941
(dp942
g35
(lp943
(I00
g409
tp944
a(I00
g218
tp945
asg22
V[ -rounded -sonorant ]
p946
sbasg21
I00
sg22
V# [ -rounded -sonorant ]
p947
sg23
I00
sg24
S'L'
sbsg25
(irule
ConstantPhoneme
p948
(dp949
S'p'
Vi
sbsg29
(irule
Guard
p950
(dp951
g18
I00
sg19
(lp952
sg21
I00
sg22
V
sg23
I00
sg24
S'R'
sbsg40
(irule
FeatureMatrix
p953
(dp954
g35
(lp955
sg22
V[  ]
p956
sbsg22
V[  ] ---> i / # [ -rounded -sonorant ] _ 
p957
sba(irule
Rule
p958
(dp959
g15
(irule
Guard
p960
(dp961
g18
I01
sg19
(lp962
(irule
FeatureMatrix
p963
(dp964
g35
(lp965
sg22
V[  ]
p966
sbasg21
I00
sg22
V# [  ]
p967
sg23
I00
sg24
S'L'
sbsg25
(irule
ConstantPhoneme
p968
(dp969
S'p'
Vi
sbsg29
(irule
Guard
p970
(dp971
g18
I00
sg19
(lp972
(irule
FeatureMatrix
p973
(dp974
g35
(lp975
sg22
V[  ]
p976
sbasg21
I00
sg22
g976
sg23
I00
sg24
S'R'
sbsg40
(irule
FeatureMatrix
p977
(dp978
g35
(lp979
(I00
g316
tp980
asg22
V[ -tense ]
p981
sbsg22
V[ -tense ] ---> i / # [  ] _ [  ]
p982
sba(irule
Rule
p983
(dp984
g15
(irule
Guard
p985
(dp986
g18
I01
sg19
(lp987
(irule
FeatureMatrix
p988
(dp989
g35
(lp990
(I01
S'voice'
p991
tp992
asg22
V[ +voice ]
p993
sbasg21
I00
sg22
V# [ +voice ]
p994
sg23
I00
sg24
S'L'
sbsg25
(irule
ConstantPhoneme
p995
(dp996
S'p'
Vi
sbsg29
(irule
Guard
p997
(dp998
g18
I00
sg19
(lp999
sg21
I00
sg22
V
sg23
I00
sg24
S'R'
sbsg40
(irule
FeatureMatrix
p1000
(dp1001
g35
(lp1002
(I00
g272
tp1003
asg22
V[ -low ]
p1004
sbsg22
V[ -low ] ---> i / # [ +voice ] _ 
p1005
sba(irule
Rule
p1006
(dp1007
g15
(irule
Guard
p1008
(dp1009
g18
I01
sg19
(lp1010
(irule
FeatureMatrix
p1011
(dp1012
g35
(lp1013
sg22
V[  ]
p1014
sbasg21
I00
sg22
V# [  ]
p1015
sg23
I00
sg24
S'L'
sbsg25
(irule
ConstantPhoneme
p1016
(dp1017
S'p'
Vi
sbsg29
(irule
Guard
p1018
(dp1019
g18
I00
sg19
(lp1020
sg21
I00
sg22
V
sg23
I00
sg24
S'R'
sbsg40
(irule
FeatureMatrix
p1021
(dp1022
g35
(lp1023
(I00
g272
tp1024
a(I00
g338
tp1025
asg22
V[ -low -vowel ]
p1026
sbsg22
V[ -low -vowel ] ---> i / # [  ] _ 
p1027
sba(irule
Rule
p1028
(dp1029
g15
(irule
Guard
p1030
(dp1031
g18
I01
sg19
(lp1032
(irule
FeatureMatrix
p1033
(dp1034
g35
(lp1035
(I00
g409
tp1036
asg22
V[ -rounded ]
p1037
sbasg21
I00
sg22
V# [ -rounded ]
p1038
sg23
I00
sg24
S'L'
sbsg25
(irule
ConstantPhoneme
p1039
(dp1040
S'p'
Vi
sbsg29
(irule
Guard
p1041
(dp1042
g18
I00
sg19
(lp1043
sg21
I00
sg22
V
sg23
I00
sg24
S'R'
sbsg40
(irule
FeatureMatrix
p1044
(dp1045
g35
(lp1046
(I00
g316
tp1047
asg22
V[ -tense ]
p1048
sbsg22
V[ -tense ] ---> i / # [ -rounded ] _ 
p1049
sba(irule
Rule
p1050
(dp1051
g15
(irule
Guard
p1052
(dp1053
g18
I01
sg19
(lp1054
(irule
FeatureMatrix
p1055
(dp1056
g35
(lp1057
(I00
S'sibilant'
p1058
tp1059
asg22
V[ -sibilant ]
p1060
sbasg21
I00
sg22
V# [ -sibilant ]
p1061
sg23
I00
sg24
S'L'
sbsg25
(irule
ConstantPhoneme
p1062
(dp1063
S'p'
Vi
sbsg29
(irule
Guard
p1064
(dp1065
g18
I00
sg19
(lp1066
sg21
I00
sg22
V
sg23
I00
sg24
S'R'
sbsg40
(irule
FeatureMatrix
p1067
(dp1068
g35
(lp1069
(I00
g272
tp1070
asg22
V[ -low ]
p1071
sbsg22
V[ -low ] ---> i / # [ -sibilant ] _ 
p1072
sba(irule
Rule
p1073
(dp1074
g15
(irule
Guard
p1075
(dp1076
g18
I00
sg19
(lp1077
(irule
ConstantPhoneme
p1078
(dp1079
S'p'
Vd
sbasg21
I00
sg22
Vd
sg23
I00
sg24
S'L'
sbsg25
(irule
ConstantPhoneme
p1080
(dp1081
S'p'
Vi
sbsg29
(irule
Guard
p1082
(dp1083
g18
I00
sg19
(lp1084
sg21
I00
sg22
V
sg23
I00
sg24
S'R'
sbsg40
(irule
FeatureMatrix
p1085
(dp1086
g35
(lp1087
(I00
g272
tp1088
a(I00
g338
tp1089
asg22
V[ -low -vowel ]
p1090
sbsg22
V[ -low -vowel ] ---> i / d _ 
p1091
sba(irule
Rule
p1092
(dp1093
g15
(irule
Guard
p1094
(dp1095
g18
I01
sg19
(lp1096
(irule
FeatureMatrix
p1097
(dp1098
g35
(lp1099
(I01
g284
tp1100
asg22
V[ +coronal ]
p1101
sbasg21
I00
sg22
V# [ +coronal ]
p1102
sg23
I00
sg24
S'L'
sbsg25
(irule
ConstantPhoneme
p1103
(dp1104
S'p'
Vi
sbsg29
(irule
Guard
p1105
(dp1106
g18
I00
sg19
(lp1107
sg21
I00
sg22
V
sg23
I00
sg24
S'R'
sbsg40
(irule
FeatureMatrix
p1108
(dp1109
g35
(lp1110
(I00
g396
tp1111
asg22
V[ -liquid ]
p1112
sbsg22
V[ -liquid ] ---> i / # [ +coronal ] _ 
p1113
sba(irule
Rule
p1114
(dp1115
g15
(irule
Guard
p1116
(dp1117
g18
I01
sg19
(lp1118
(irule
FeatureMatrix
p1119
(dp1120
g35
(lp1121
(I00
g396
tp1122
a(I00
g240
tp1123
asg22
V[ -liquid -nasal ]
p1124
sbasg21
I00
sg22
V# [ -liquid -nasal ]
p1125
sg23
I00
sg24
S'L'
sbsg25
(irule
ConstantPhoneme
p1126
(dp1127
S'p'
Vi
sbsg29
(irule
Guard
p1128
(dp1129
g18
I00
sg19
(lp1130
sg21
I00
sg22
V
sg23
I00
sg24
S'R'
sbsg40
(irule
FeatureMatrix
p1131
(dp1132
g35
(lp1133
sg22
V[  ]
p1134
sbsg22
V[  ] ---> i / # [ -liquid -nasal ] _ 
p1135
sba(irule
Rule
p1136
(dp1137
g15
(irule
Guard
p1138
(dp1139
g18
I00
sg19
(lp1140
(irule
FeatureMatrix
p1141
(dp1142
g35
(lp1143
(I00
g218
tp1144
a(I01
g991
tp1145
asg22
V[ +voice -sonorant ]
p1146
sbasg21
I00
sg22
g1146
sg23
I00
sg24
S'L'
sbsg25
(irule
ConstantPhoneme
p1147
(dp1148
S'p'
Vi
sbsg29
(irule
Guard
p1149
(dp1150
g18
I00
sg19
(lp1151
sg21
I00
sg22
V
sg23
I00
sg24
S'R'
sbsg40
(irule
FeatureMatrix
p1152
(dp1153
g35
(lp1154
(I00
g316
tp1155
asg22
V[ -tense ]
p1156
sbsg22
V[ -tense ] ---> i / [ +voice -sonorant ] _ 
p1157
sba(irule
Rule
p1158
(dp1159
g15
(irule
Guard
p1160
(dp1161
g18
I01
sg19
(lp1162
(irule
FeatureMatrix
p1163
(dp1164
g35
(lp1165
(I00
g338
tp1166
asg22
V[ -vowel ]
p1167
sbasg21
I00
sg22
V# [ -vowel ]
p1168
sg23
I00
sg24
S'L'
sbsg25
(irule
ConstantPhoneme
p1169
(dp1170
S'p'
Vi
sbsg29
(irule
Guard
p1171
(dp1172
g18
I00
sg19
(lp1173
sg21
I00
sg22
V
sg23
I00
sg24
S'R'
sbsg40
(irule
FeatureMatrix
p1174
(dp1175
g35
(lp1176
(I00
g272
tp1177
asg22
V[ -low ]
p1178
sbsg22
V[ -low ] ---> i / # [ -vowel ] _ 
p1179
sba(irule
Rule
p1180
(dp1181
g15
(irule
Guard
p1182
(dp1183
g18
I01
sg19
(lp1184
(irule
FeatureMatrix
p1185
(dp1186
g35
(lp1187
(I01
g679
tp1188
asg22
V[ +anterior ]
p1189
sbasg21
I00
sg22
V# [ +anterior ]
p1190
sg23
I00
sg24
S'L'
sbsg25
(irule
ConstantPhoneme
p1191
(dp1192
S'p'
Vi
sbsg29
(irule
Guard
p1193
(dp1194
g18
I00
sg19
(lp1195
sg21
I00
sg22
V
sg23
I00
sg24
S'R'
sbsg40
(irule
FeatureMatrix
p1196
(dp1197
g35
(lp1198
(I00
g272
tp1199
asg22
V[ -low ]
p1200
sbsg22
V[ -low ] ---> i / # [ +anterior ] _ 
p1201
sba(irule
Rule
p1202
(dp1203
g15
(irule
Guard
p1204
(dp1205
g18
I01
sg19
(lp1206
(irule
FeatureMatrix
p1207
(dp1208
g35
(lp1209
(I00
g461
tp1210
a(I01
g284
tp1211
asg22
V[ +coronal -back ]
p1212
sbasg21
I00
sg22
V# [ +coronal -back ]
p1213
sg23
I00
sg24
S'L'
sbsg25
(irule
ConstantPhoneme
p1214
(dp1215
S'p'
Vi
sbsg29
(irule
Guard
p1216
(dp1217
g18
I00
sg19
(lp1218
sg21
I00
sg22
V
sg23
I00
sg24
S'R'
sbsg40
(irule
FeatureMatrix
p1219
(dp1220
g35
(lp1221
sg22
V[  ]
p1222
sbsg22
V[  ] ---> i / # [ +coronal -back ] _ 
p1223
sba(irule
Rule
p1224
(dp1225
g15
(irule
Guard
p1226
(dp1227
g18
I01
sg19
(lp1228
(irule
FeatureMatrix
p1229
(dp1230
g35
(lp1231
(I01
g284
tp1232
asg22
V[ +coronal ]
p1233
sbasg21
I00
sg22
V# [ +coronal ]
p1234
sg23
I00
sg24
S'L'
sbsg25
(irule
ConstantPhoneme
p1235
(dp1236
S'p'
Vi
sbsg29
(irule
Guard
p1237
(dp1238
g18
I00
sg19
(lp1239
sg21
I00
sg22
V
sg23
I00
sg24
S'R'
sbsg40
(irule
FeatureMatrix
p1240
(dp1241
g35
(lp1242
(I00
g409
tp1243
asg22
V[ -rounded ]
p1244
sbsg22
V[ -rounded ] ---> i / # [ +coronal ] _ 
p1245
sba(irule
Rule
p1246
(dp1247
g15
(irule
Guard
p1248
(dp1249
g18
I01
sg19
(lp1250
(irule
FeatureMatrix
p1251
(dp1252
g35
(lp1253
sg22
V[  ]
p1254
sbasg21
I00
sg22
V# [  ]
p1255
sg23
I00
sg24
S'L'
sbsg25
(irule
ConstantPhoneme
p1256
(dp1257
S'p'
Vi
sbsg29
(irule
Guard
p1258
(dp1259
g18
I00
sg19
(lp1260
sg21
I00
sg22
V
sg23
I00
sg24
S'R'
sbsg40
(irule
FeatureMatrix
p1261
(dp1262
g35
(lp1263
(I00
g409
tp1264
a(I00
g272
tp1265
asg22
V[ -low -rounded ]
p1266
sbsg22
V[ -low -rounded ] ---> i / # [  ] _ 
p1267
sba(irule
Rule
p1268
(dp1269
g15
(irule
Guard
p1270
(dp1271
g18
I01
sg19
(lp1272
(irule
FeatureMatrix
p1273
(dp1274
g35
(lp1275
(I01
g284
tp1276
a(I00
g272
tp1277
asg22
V[ +coronal -low ]
p1278
sbasg21
I00
sg22
V# [ +coronal -low ]
p1279
sg23
I00
sg24
S'L'
sbsg25
(irule
ConstantPhoneme
p1280
(dp1281
S'p'
Vi
sbsg29
(irule
Guard
p1282
(dp1283
g18
I00
sg19
(lp1284
sg21
I00
sg22
V
sg23
I00
sg24
S'R'
sbsg40
(irule
FeatureMatrix
p1285
(dp1286
g35
(lp1287
sg22
V[  ]
p1288
sbsg22
V[  ] ---> i / # [ +coronal -low ] _ 
p1289
sba(irule
Rule
p1290
(dp1291
g15
(irule
Guard
p1292
(dp1293
g18
I01
sg19
(lp1294
(irule
FeatureMatrix
p1295
(dp1296
g35
(lp1297
(I00
g396
tp1298
asg22
V[ -liquid ]
p1299
sbasg21
I00
sg22
V# [ -liquid ]
p1300
sg23
I00
sg24
S'L'
sbsg25
(irule
ConstantPhoneme
p1301
(dp1302
S'p'
Vi
sbsg29
(irule
Guard
p1303
(dp1304
g18
I00
sg19
(lp1305
sg21
I00
sg22
V
sg23
I00
sg24
S'R'
sbsg40
(irule
FeatureMatrix
p1306
(dp1307
g35
(lp1308
(I00
g272
tp1309
asg22
V[ -low ]
p1310
sbsg22
V[ -low ] ---> i / # [ -liquid ] _ 
p1311
sba(irule
Rule
p1312
(dp1313
g15
(irule
Guard
p1314
(dp1315
g18
I01
sg19
(lp1316
(irule
FeatureMatrix
p1317
(dp1318
g35
(lp1319
(I00
g396
tp1320
asg22
V[ -liquid ]
p1321
sbasg21
I00
sg22
V# [ -liquid ]
p1322
sg23
I00
sg24
S'L'
sbsg25
(irule
ConstantPhoneme
p1323
(dp1324
S'p'
Vi
sbsg29
(irule
Guard
p1325
(dp1326
g18
I00
sg19
(lp1327
sg21
I00
sg22
V
sg23
I00
sg24
S'R'
sbsg40
(irule
FeatureMatrix
p1328
(dp1329
g35
(lp1330
(I00
g338
tp1331
asg22
V[ -vowel ]
p1332
sbsg22
V[ -vowel ] ---> i / # [ -liquid ] _ 
p1333
sba(irule
Rule
p1334
(dp1335
g15
(irule
Guard
p1336
(dp1337
g18
I00
sg19
(lp1338
(irule
ConstantPhoneme
p1339
(dp1340
S'p'
Vd
sbasg21
I00
sg22
Vd
sg23
I00
sg24
S'L'
sbsg25
(irule
ConstantPhoneme
p1341
(dp1342
S'p'
Vi
sbsg29
(irule
Guard
p1343
(dp1344
g18
I00
sg19
(lp1345
(irule
FeatureMatrix
p1346
(dp1347
g35
(lp1348
sg22
V[  ]
p1349
sbasg21
I00
sg22
g1349
sg23
I00
sg24
S'R'
sbsg40
(irule
FeatureMatrix
p1350
(dp1351
g35
(lp1352
(I00
g338
tp1353
asg22
V[ -vowel ]
p1354
sbsg22
V[ -vowel ] ---> i / d _ [  ]
p1355
sba(irule
Rule
p1356
(dp1357
g15
(irule
Guard
p1358
(dp1359
g18
I01
sg19
(lp1360
(irule
FeatureMatrix
p1361
(dp1362
g35
(lp1363
(I00
g218
tp1364
a(I00
S'high'
p1365
tp1366
asg22
V[ -high -sonorant ]
p1367
sbasg21
I00
sg22
V# [ -high -sonorant ]
p1368
sg23
I00
sg24
S'L'
sbsg25
(irule
ConstantPhoneme
p1369
(dp1370
S'p'
Vi
sbsg29
(irule
Guard
p1371
(dp1372
g18
I00
sg19
(lp1373
sg21
I00
sg22
V
sg23
I00
sg24
S'R'
sbsg40
(irule
FeatureMatrix
p1374
(dp1375
g35
(lp1376
sg22
V[  ]
p1377
sbsg22
V[  ] ---> i / # [ -high -sonorant ] _ 
p1378
sba(irule
Rule
p1379
(dp1380
g15
(irule
Guard
p1381
(dp1382
g18
I01
sg19
(lp1383
(irule
FeatureMatrix
p1384
(dp1385
g35
(lp1386
(I00
g1365
tp1387
a(I01
g284
tp1388
asg22
V[ +coronal -high ]
p1389
sbasg21
I00
sg22
V# [ +coronal -high ]
p1390
sg23
I00
sg24
S'L'
sbsg25
(irule
ConstantPhoneme
p1391
(dp1392
S'p'
Vi
sbsg29
(irule
Guard
p1393
(dp1394
g18
I00
sg19
(lp1395
sg21
I00
sg22
V
sg23
I00
sg24
S'R'
sbsg40
(irule
FeatureMatrix
p1396
(dp1397
g35
(lp1398
sg22
V[  ]
p1399
sbsg22
V[  ] ---> i / # [ +coronal -high ] _ 
p1400
sba(irule
Rule
p1401
(dp1402
g15
(irule
Guard
p1403
(dp1404
g18
I01
sg19
(lp1405
(irule
FeatureMatrix
p1406
(dp1407
g35
(lp1408
(I00
g240
tp1409
a(I01
g284
tp1410
asg22
V[ +coronal -nasal ]
p1411
sbasg21
I00
sg22
V# [ +coronal -nasal ]
p1412
sg23
I00
sg24
S'L'
sbsg25
(irule
ConstantPhoneme
p1413
(dp1414
S'p'
Vi
sbsg29
(irule
Guard
p1415
(dp1416
g18
I00
sg19
(lp1417
sg21
I00
sg22
V
sg23
I00
sg24
S'R'
sbsg40
(irule
FeatureMatrix
p1418
(dp1419
g35
(lp1420
sg22
V[  ]
p1421
sbsg22
V[  ] ---> i / # [ +coronal -nasal ] _ 
p1422
sba(irule
Rule
p1423
(dp1424
g15
(irule
Guard
p1425
(dp1426
g18
I01
sg19
(lp1427
(irule
FeatureMatrix
p1428
(dp1429
g35
(lp1430
(I01
g679
tp1431
a(I00
g240
tp1432
asg22
V[ +anterior -nasal ]
p1433
sbasg21
I00
sg22
V# [ +anterior -nasal ]
p1434
sg23
I00
sg24
S'L'
sbsg25
(irule
ConstantPhoneme
p1435
(dp1436
S'p'
Vi
sbsg29
(irule
Guard
p1437
(dp1438
g18
I00
sg19
(lp1439
sg21
I00
sg22
V
sg23
I00
sg24
S'R'
sbsg40
(irule
FeatureMatrix
p1440
(dp1441
g35
(lp1442
sg22
V[  ]
p1443
sbsg22
V[  ] ---> i / # [ +anterior -nasal ] _ 
p1444
sba(irule
Rule
p1445
(dp1446
g15
(irule
Guard
p1447
(dp1448
g18
I01
sg19
(lp1449
(irule
FeatureMatrix
p1450
(dp1451
g35
(lp1452
(I00
g396
tp1453
asg22
V[ -liquid ]
p1454
sbasg21
I00
sg22
V# [ -liquid ]
p1455
sg23
I00
sg24
S'L'
sbsg25
(irule
ConstantPhoneme
p1456
(dp1457
S'p'
Vi
sbsg29
(irule
Guard
p1458
(dp1459
g18
I00
sg19
(lp1460
sg21
I00
sg22
V
sg23
I00
sg24
S'R'
sbsg40
(irule
FeatureMatrix
p1461
(dp1462
g35
(lp1463
(I00
g316
tp1464
asg22
V[ -tense ]
p1465
sbsg22
V[ -tense ] ---> i / # [ -liquid ] _ 
p1466
sba(irule
Rule
p1467
(dp1468
g15
(irule
Guard
p1469
(dp1470
g18
I01
sg19
(lp1471
(irule
FeatureMatrix
p1472
(dp1473
g35
(lp1474
(I01
g679
tp1475
asg22
V[ +anterior ]
p1476
sbasg21
I00
sg22
V# [ +anterior ]
p1477
sg23
I00
sg24
S'L'
sbsg25
(irule
ConstantPhoneme
p1478
(dp1479
S'p'
Vi
sbsg29
(irule
Guard
p1480
(dp1481
g18
I00
sg19
(lp1482
sg21
I00
sg22
V
sg23
I00
sg24
S'R'
sbsg40
(irule
FeatureMatrix
p1483
(dp1484
g35
(lp1485
(I00
g338
tp1486
asg22
V[ -vowel ]
p1487
sbsg22
V[ -vowel ] ---> i / # [ +anterior ] _ 
p1488
sba(irule
Rule
p1489
(dp1490
g15
(irule
Guard
p1491
(dp1492
g18
I01
sg19
(lp1493
(irule
FeatureMatrix
p1494
(dp1495
g35
(lp1496
(I00
g240
tp1497
a(I01
g991
tp1498
asg22
V[ +voice -nasal ]
p1499
sbasg21
I00
sg22
V# [ +voice -nasal ]
p1500
sg23
I00
sg24
S'L'
sbsg25
(irule
ConstantPhoneme
p1501
(dp1502
S'p'
Vi
sbsg29
(irule
Guard
p1503
(dp1504
g18
I00
sg19
(lp1505
sg21
I00
sg22
V
sg23
I00
sg24
S'R'
sbsg40
(irule
FeatureMatrix
p1506
(dp1507
g35
(lp1508
sg22
V[  ]
p1509
sbsg22
V[  ] ---> i / # [ +voice -nasal ] _ 
p1510
sba(irule
Rule
p1511
(dp1512
g15
(irule
Guard
p1513
(dp1514
g18
I01
sg19
(lp1515
(irule
FeatureMatrix
p1516
(dp1517
g35
(lp1518
(I00
g502
tp1519
asg22
V[ -continuant ]
p1520
sbasg21
I00
sg22
V# [ -continuant ]
p1521
sg23
I00
sg24
S'L'
sbsg25
(irule
ConstantPhoneme
p1522
(dp1523
S'p'
Vi
sbsg29
(irule
Guard
p1524
(dp1525
g18
I00
sg19
(lp1526
sg21
I00
sg22
V
sg23
I00
sg24
S'R'
sbsg40
(irule
FeatureMatrix
p1527
(dp1528
g35
(lp1529
(I00
g338
tp1530
asg22
V[ -vowel ]
p1531
sbsg22
V[ -vowel ] ---> i / # [ -continuant ] _ 
p1532
sba(irule
Rule
p1533
(dp1534
g15
(irule
Guard
p1535
(dp1536
g18
I01
sg19
(lp1537
(irule
FeatureMatrix
p1538
(dp1539
g35
(lp1540
(I01
g679
tp1541
asg22
V[ +anterior ]
p1542
sbasg21
I00
sg22
V# [ +anterior ]
p1543
sg23
I00
sg24
S'L'
sbsg25
(irule
ConstantPhoneme
p1544
(dp1545
S'p'
Vi
sbsg29
(irule
Guard
p1546
(dp1547
g18
I00
sg19
(lp1548
sg21
I00
sg22
V
sg23
I00
sg24
S'R'
sbsg40
(irule
FeatureMatrix
p1549
(dp1550
g35
(lp1551
(I00
g316
tp1552
asg22
V[ -tense ]
p1553
sbsg22
V[ -tense ] ---> i / # [ +anterior ] _ 
p1554
sba(irule
Rule
p1555
(dp1556
g15
(irule
Guard
p1557
(dp1558
g18
I01
sg19
(lp1559
(irule
FeatureMatrix
p1560
(dp1561
g35
(lp1562
(I00
g218
tp1563
asg22
V[ -sonorant ]
p1564
sbasg21
I00
sg22
V# [ -sonorant ]
p1565
sg23
I00
sg24
S'L'
sbsg25
(irule
ConstantPhoneme
p1566
(dp1567
S'p'
Vi
sbsg29
(irule
Guard
p1568
(dp1569
g18
I00
sg19
(lp1570
sg21
I00
sg22
V
sg23
I00
sg24
S'R'
sbsg40
(irule
FeatureMatrix
p1571
(dp1572
g35
(lp1573
(I00
g396
tp1574
asg22
V[ -liquid ]
p1575
sbsg22
V[ -liquid ] ---> i / # [ -sonorant ] _ 
p1576
sba(irule
Rule
p1577
(dp1578
g15
(irule
Guard
p1579
(dp1580
g18
I01
sg19
(lp1581
(irule
FeatureMatrix
p1582
(dp1583
g35
(lp1584
(I00
g502
tp1585
a(I00
g218
tp1586
asg22
V[ -continuant -sonorant ]
p1587
sbasg21
I00
sg22
V# [ -continuant -sonorant ]
p1588
sg23
I00
sg24
S'L'
sbsg25
(irule
ConstantPhoneme
p1589
(dp1590
S'p'
Vi
sbsg29
(irule
Guard
p1591
(dp1592
g18
I00
sg19
(lp1593
sg21
I00
sg22
V
sg23
I00
sg24
S'R'
sbsg40
(irule
FeatureMatrix
p1594
(dp1595
g35
(lp1596
sg22
V[  ]
p1597
sbsg22
V[  ] ---> i / # [ -continuant -sonorant ] _ 
p1598
sba(irule
Rule
p1599
(dp1600
g15
(irule
Guard
p1601
(dp1602
g18
I01
sg19
(lp1603
(irule
FeatureMatrix
p1604
(dp1605
g35
(lp1606
(I01
g679
tp1607
a(I00
g218
tp1608
asg22
V[ +anterior -sonorant ]
p1609
sbasg21
I00
sg22
V# [ +anterior -sonorant ]
p1610
sg23
I00
sg24
S'L'
sbsg25
(irule
ConstantPhoneme
p1611
(dp1612
S'p'
Vi
sbsg29
(irule
Guard
p1613
(dp1614
g18
I00
sg19
(lp1615
sg21
I00
sg22
V
sg23
I00
sg24
S'R'
sbsg40
(irule
FeatureMatrix
p1616
(dp1617
g35
(lp1618
sg22
V[  ]
p1619
sbsg22
V[  ] ---> i / # [ +anterior -sonorant ] _ 
p1620
sba(irule
Rule
p1621
(dp1622
g15
(irule
Guard
p1623
(dp1624
g18
I01
sg19
(lp1625
(irule
FeatureMatrix
p1626
(dp1627
g35
(lp1628
(I00
g218
tp1629
a(I01
g991
tp1630
asg22
V[ +voice -sonorant ]
p1631
sbasg21
I00
sg22
V# [ +voice -sonorant ]
p1632
sg23
I00
sg24
S'L'
sbsg25
(irule
ConstantPhoneme
p1633
(dp1634
S'p'
Vi
sbsg29
(irule
Guard
p1635
(dp1636
g18
I00
sg19
(lp1637
sg21
I00
sg22
V
sg23
I00
sg24
S'R'
sbsg40
(irule
FeatureMatrix
p1638
(dp1639
g35
(lp1640
sg22
V[  ]
p1641
sbsg22
V[  ] ---> i / # [ +voice -sonorant ] _ 
p1642
sba(irule
Rule
p1643
(dp1644
g15
(irule
Guard
p1645
(dp1646
g18
I01
sg19
(lp1647
(irule
FeatureMatrix
p1648
(dp1649
g35
(lp1650
(I00
g502
tp1651
asg22
V[ -continuant ]
p1652
sbasg21
I00
sg22
V# [ -continuant ]
p1653
sg23
I00
sg24
S'L'
sbsg25
(irule
ConstantPhoneme
p1654
(dp1655
S'p'
Vi
sbsg29
(irule
Guard
p1656
(dp1657
g18
I00
sg19
(lp1658
sg21
I00
sg22
V
sg23
I00
sg24
S'R'
sbsg40
(irule
FeatureMatrix
p1659
(dp1660
g35
(lp1661
(I00
g316
tp1662
asg22
V[ -tense ]
p1663
sbsg22
V[ -tense ] ---> i / # [ -continuant ] _ 
p1664
sba(irule
Rule
p1665
(dp1666
g15
(irule
Guard
p1667
(dp1668
g18
I01
sg19
(lp1669
(irule
FeatureMatrix
p1670
(dp1671
g35
(lp1672
(I00
g272
tp1673
asg22
V[ -low ]
p1674
sbasg21
I00
sg22
V# [ -low ]
p1675
sg23
I00
sg24
S'L'
sbsg25
(irule
ConstantPhoneme
p1676
(dp1677
S'p'
Vi
sbsg29
(irule
Guard
p1678
(dp1679
g18
I00
sg19
(lp1680
sg21
I00
sg22
V
sg23
I00
sg24
S'R'
sbsg40
(irule
FeatureMatrix
p1681
(dp1682
g35
(lp1683
(I00
g272
tp1684
asg22
V[ -low ]
p1685
sbsg22
V[ -low ] ---> i / # [ -low ] _ 
p1686
sba(irule
Rule
p1687
(dp1688
g15
(irule
Guard
p1689
(dp1690
g18
I00
sg19
(lp1691
(irule
ConstantPhoneme
p1692
(dp1693
S'p'
Vd
sbasg21
I00
sg22
Vd
sg23
I00
sg24
S'L'
sbsg25
(irule
ConstantPhoneme
p1694
(dp1695
S'p'
Vi
sbsg29
(irule
Guard
p1696
(dp1697
g18
I00
sg19
(lp1698
(irule
FeatureMatrix
p1699
(dp1700
g35
(lp1701
sg22
V[  ]
p1702
sbasg21
I00
sg22
g1702
sg23
I00
sg24
S'R'
sbsg40
(irule
FeatureMatrix
p1703
(dp1704
g35
(lp1705
(I00
g316
tp1706
asg22
V[ -tense ]
p1707
sbsg22
V[ -tense ] ---> i / d _ [  ]
p1708
sba(irule
Rule
p1709
(dp1710
g15
(irule
Guard
p1711
(dp1712
g18
I01
sg19
(lp1713
(irule
FeatureMatrix
p1714
(dp1715
g35
(lp1716
sg22
V[  ]
p1717
sbasg21
I00
sg22
V# [  ]
p1718
sg23
I00
sg24
S'L'
sbsg25
(irule
ConstantPhoneme
p1719
(dp1720
S'p'
Vi
sbsg29
(irule
Guard
p1721
(dp1722
g18
I00
sg19
(lp1723
(irule
FeatureMatrix
p1724
(dp1725
g35
(lp1726
sg22
V[  ]
p1727
sbasg21
I00
sg22
g1727
sg23
I00
sg24
S'R'
sbsg40
(irule
FeatureMatrix
p1728
(dp1729
g35
(lp1730
(I00
g272
tp1731
asg22
V[ -low ]
p1732
sbsg22
V[ -low ] ---> i / # [  ] _ [  ]
p1733
sba(irule
Rule
p1734
(dp1735
g15
(irule
Guard
p1736
(dp1737
g18
I01
sg19
(lp1738
(irule
FeatureMatrix
p1739
(dp1740
g35
(lp1741
sg22
V[  ]
p1742
sbasg21
I00
sg22
V# [  ]
p1743
sg23
I00
sg24
S'L'
sbsg25
(irule
ConstantPhoneme
p1744
(dp1745
S'p'
Vi
sbsg29
(irule
Guard
p1746
(dp1747
g18
I00
sg19
(lp1748
sg21
I00
sg22
V
sg23
I00
sg24
S'R'
sbsg40
(irule
FeatureMatrix
p1749
(dp1750
g35
(lp1751
(I00
g409
tp1752
a(I00
g338
tp1753
asg22
V[ -rounded -vowel ]
p1754
sbsg22
V[ -rounded -vowel ] ---> i / # [  ] _ 
p1755
sba(irule
Rule
p1756
(dp1757
g15
(irule
Guard
p1758
(dp1759
g18
I01
sg19
(lp1760
(irule
FeatureMatrix
p1761
(dp1762
g35
(lp1763
sg22
V[  ]
p1764
sbasg21
I00
sg22
V# [  ]
p1765
sg23
I00
sg24
S'L'
sbsg25
(irule
ConstantPhoneme
p1766
(dp1767
S'p'
Vi
sbsg29
(irule
Guard
p1768
(dp1769
g18
I00
sg19
(lp1770
sg21
I00
sg22
V
sg23
I00
sg24
S'R'
sbsg40
(irule
FeatureMatrix
p1771
(dp1772
g35
(lp1773
(I00
g396
tp1774
a(I00
g338
tp1775
asg22
V[ -liquid -vowel ]
p1776
sbsg22
V[ -liquid -vowel ] ---> i / # [  ] _ 
p1777
sba(irule
Rule
p1778
(dp1779
g15
(irule
Guard
p1780
(dp1781
g18
I01
sg19
(lp1782
(irule
FeatureMatrix
p1783
(dp1784
g35
(lp1785
(I00
g218
tp1786
a(I00
g272
tp1787
asg22
V[ -low -sonorant ]
p1788
sbasg21
I00
sg22
V# [ -low -sonorant ]
p1789
sg23
I00
sg24
S'L'
sbsg25
(irule
ConstantPhoneme
p1790
(dp1791
S'p'
Vi
sbsg29
(irule
Guard
p1792
(dp1793
g18
I00
sg19
(lp1794
sg21
I00
sg22
V
sg23
I00
sg24
S'R'
sbsg40
(irule
FeatureMatrix
p1795
(dp1796
g35
(lp1797
sg22
V[  ]
p1798
sbsg22
V[  ] ---> i / # [ -low -sonorant ] _ 
p1799
sba(irule
Rule
p1800
(dp1801
g15
(irule
Guard
p1802
(dp1803
g18
I00
sg19
(lp1804
(irule
ConstantPhoneme
p1805
(dp1806
S'p'
Vd
sbasg21
I00
sg22
Vd
sg23
I00
sg24
S'L'
sbsg25
(irule
ConstantPhoneme
p1807
(dp1808
S'p'
Vi
sbsg29
(irule
Guard
p1809
(dp1810
g18
I00
sg19
(lp1811
sg21
I00
sg22
V
sg23
I00
sg24
S'R'
sbsg40
(irule
FeatureMatrix
p1812
(dp1813
g35
(lp1814
(I00
g316
tp1815
a(I00
g272
tp1816
asg22
V[ -low -tense ]
p1817
sbsg22
V[ -low -tense ] ---> i / d _ 
p1818
sba(irule
Rule
p1819
(dp1820
g15
(irule
Guard
p1821
(dp1822
g18
I00
sg19
(lp1823
(irule
ConstantPhoneme
p1824
(dp1825
S'p'
Vd
sbasg21
I00
sg22
Vd
sg23
I00
sg24
S'L'
sbsg25
(irule
ConstantPhoneme
p1826
(dp1827
S'p'
Vi
sbsg29
(irule
Guard
p1828
(dp1829
g18
I00
sg19
(lp1830
sg21
I00
sg22
V
sg23
I00
sg24
S'R'
sbsg40
(irule
FeatureMatrix
p1831
(dp1832
g35
(lp1833
(I00
g409
tp1834
a(I00
g338
tp1835
asg22
V[ -rounded -vowel ]
p1836
sbsg22
V[ -rounded -vowel ] ---> i / d _ 
p1837
sba(irule
Rule
p1838
(dp1839
g15
(irule
Guard
p1840
(dp1841
g18
I01
sg19
(lp1842
(irule
FeatureMatrix
p1843
(dp1844
g35
(lp1845
(I00
g218
tp1846
a(I01
g284
tp1847
asg22
V[ +coronal -sonorant ]
p1848
sbasg21
I00
sg22
V# [ +coronal -sonorant ]
p1849
sg23
I00
sg24
S'L'
sbsg25
(irule
ConstantPhoneme
p1850
(dp1851
S'p'
Vi
sbsg29
(irule
Guard
p1852
(dp1853
g18
I00
sg19
(lp1854
sg21
I00
sg22
V
sg23
I00
sg24
S'R'
sbsg40
(irule
FeatureMatrix
p1855
(dp1856
g35
(lp1857
sg22
V[  ]
p1858
sbsg22
V[  ] ---> i / # [ +coronal -sonorant ] _ 
p1859
sba(irule
Rule
p1860
(dp1861
g15
(irule
Guard
p1862
(dp1863
g18
I01
sg19
(lp1864
(irule
FeatureMatrix
p1865
(dp1866
g35
(lp1867
(I00
g272
tp1868
asg22
V[ -low ]
p1869
sbasg21
I00
sg22
V# [ -low ]
p1870
sg23
I00
sg24
S'L'
sbsg25
(irule
ConstantPhoneme
p1871
(dp1872
S'p'
Vi
sbsg29
(irule
Guard
p1873
(dp1874
g18
I00
sg19
(lp1875
sg21
I00
sg22
V
sg23
I00
sg24
S'R'
sbsg40
(irule
FeatureMatrix
p1876
(dp1877
g35
(lp1878
(I00
g338
tp1879
asg22
V[ -vowel ]
p1880
sbsg22
V[ -vowel ] ---> i / # [ -low ] _ 
p1881
sba(irule
Rule
p1882
(dp1883
g15
(irule
Guard
p1884
(dp1885
g18
I01
sg19
(lp1886
(irule
FeatureMatrix
p1887
(dp1888
g35
(lp1889
sg22
V[  ]
p1890
sbasg21
I00
sg22
V# [  ]
p1891
sg23
I00
sg24
S'L'
sbsg25
(irule
ConstantPhoneme
p1892
(dp1893
S'p'
Vi
sbsg29
(irule
Guard
p1894
(dp1895
g18
I00
sg19
(lp1896
(irule
FeatureMatrix
p1897
(dp1898
g35
(lp1899
sg22
V[  ]
p1900
sbasg21
I00
sg22
g1900
sg23
I00
sg24
S'R'
sbsg40
(irule
FeatureMatrix
p1901
(dp1902
g35
(lp1903
(I00
g338
tp1904
asg22
V[ -vowel ]
p1905
sbsg22
V[ -vowel ] ---> i / # [  ] _ [  ]
p1906
sba(irule
Rule
p1907
(dp1908
g15
(irule
Guard
p1909
(dp1910
g18
I01
sg19
(lp1911
(irule
FeatureMatrix
p1912
(dp1913
g35
(lp1914
sg22
V[  ]
p1915
sbasg21
I00
sg22
V# [  ]
p1916
sg23
I00
sg24
S'L'
sbsg25
(irule
ConstantPhoneme
p1917
(dp1918
S'p'
Vi
sbsg29
(irule
Guard
p1919
(dp1920
g18
I00
sg19
(lp1921
sg21
I00
sg22
V
sg23
I00
sg24
S'R'
sbsg40
(irule
FeatureMatrix
p1922
(dp1923
g35
(lp1924
(I00
g316
tp1925
a(I00
g272
tp1926
asg22
V[ -low -tense ]
p1927
sbsg22
V[ -low -tense ] ---> i / # [  ] _ 
p1928
sba(irule
Rule
p1929
(dp1930
g15
(irule
Guard
p1931
(dp1932
g18
I01
sg19
(lp1933
(irule
FeatureMatrix
p1934
(dp1935
g35
(lp1936
(I01
g284
tp1937
a(I00
g338
tp1938
asg22
V[ +coronal -vowel ]
p1939
sbasg21
I00
sg22
V# [ +coronal -vowel ]
p1940
sg23
I00
sg24
S'L'
sbsg25
(irule
ConstantPhoneme
p1941
(dp1942
S'p'
Vi
sbsg29
(irule
Guard
p1943
(dp1944
g18
I00
sg19
(lp1945
sg21
I00
sg22
V
sg23
I00
sg24
S'R'
sbsg40
(irule
FeatureMatrix
p1946
(dp1947
g35
(lp1948
sg22
V[  ]
p1949
sbsg22
V[  ] ---> i / # [ +coronal -vowel ] _ 
p1950
sba(irule
Rule
p1951
(dp1952
g15
(irule
Guard
p1953
(dp1954
g18
I01
sg19
(lp1955
(irule
FeatureMatrix
p1956
(dp1957
g35
(lp1958
sg22
V[  ]
p1959
sbasg21
I00
sg22
V# [  ]
p1960
sg23
I00
sg24
S'L'
sbsg25
(irule
ConstantPhoneme
p1961
(dp1962
S'p'
Vi
sbsg29
(irule
Guard
p1963
(dp1964
g18
I00
sg19
(lp1965
sg21
I00
sg22
V
sg23
I00
sg24
S'R'
sbsg40
(irule
FeatureMatrix
p1966
(dp1967
g35
(lp1968
(I00
g316
tp1969
a(I00
g338
tp1970
asg22
V[ -tense -vowel ]
p1971
sbsg22
V[ -tense -vowel ] ---> i / # [  ] _ 
p1972
sba(irule
Rule
p1973
(dp1974
g15
(irule
Guard
p1975
(dp1976
g18
I01
sg19
(lp1977
(irule
FeatureMatrix
p1978
(dp1979
g35
(lp1980
(I00
g218
tp1981
asg22
V[ -sonorant ]
p1982
sbasg21
I00
sg22
V# [ -sonorant ]
p1983
sg23
I00
sg24
S'L'
sbsg25
(irule
ConstantPhoneme
p1984
(dp1985
S'p'
Vi
sbsg29
(irule
Guard
p1986
(dp1987
g18
I00
sg19
(lp1988
sg21
I00
sg22
V
sg23
I00
sg24
S'R'
sbsg40
(irule
FeatureMatrix
p1989
(dp1990
g35
(lp1991
(I00
g409
tp1992
asg22
V[ -rounded ]
p1993
sbsg22
V[ -rounded ] ---> i / # [ -sonorant ] _ 
p1994
sba(irule
Rule
p1995
(dp1996
g15
(irule
Guard
p1997
(dp1998
g18
I01
sg19
(lp1999
(irule
FeatureMatrix
p2000
(dp2001
g35
(lp2002
(I01
g284
tp2003
a(I00
g316
tp2004
asg22
V[ +coronal -tense ]
p2005
sbasg21
I00
sg22
V# [ +coronal -tense ]
p2006
sg23
I00
sg24
S'L'
sbsg25
(irule
ConstantPhoneme
p2007
(dp2008
S'p'
Vi
sbsg29
(irule
Guard
p2009
(dp2010
g18
I00
sg19
(lp2011
sg21
I00
sg22
V
sg23
I00
sg24
S'R'
sbsg40
(irule
FeatureMatrix
p2012
(dp2013
g35
(lp2014
sg22
V[  ]
p2015
sbsg22
V[  ] ---> i / # [ +coronal -tense ] _ 
p2016
sba(irule
Rule
p2017
(dp2018
g15
(irule
Guard
p2019
(dp2020
g18
I01
sg19
(lp2021
(irule
FeatureMatrix
p2022
(dp2023
g35
(lp2024
(I01
g284
tp2025
a(I00
g1058
tp2026
asg22
V[ +coronal -sibilant ]
p2027
sbasg21
I00
sg22
V# [ +coronal -sibilant ]
p2028
sg23
I00
sg24
S'L'
sbsg25
(irule
ConstantPhoneme
p2029
(dp2030
S'p'
Vi
sbsg29
(irule
Guard
p2031
(dp2032
g18
I00
sg19
(lp2033
sg21
I00
sg22
V
sg23
I00
sg24
S'R'
sbsg40
(irule
FeatureMatrix
p2034
(dp2035
g35
(lp2036
sg22
V[  ]
p2037
sbsg22
V[  ] ---> i / # [ +coronal -sibilant ] _ 
p2038
sba(irule
Rule
p2039
(dp2040
g15
(irule
Guard
p2041
(dp2042
g18
I01
sg19
(lp2043
(irule
FeatureMatrix
p2044
(dp2045
g35
(lp2046
(I00
g240
tp2047
a(I00
g1058
tp2048
asg22
V[ -nasal -sibilant ]
p2049
sbasg21
I00
sg22
V# [ -nasal -sibilant ]
p2050
sg23
I00
sg24
S'L'
sbsg25
(irule
ConstantPhoneme
p2051
(dp2052
S'p'
Vi
sbsg29
(irule
Guard
p2053
(dp2054
g18
I00
sg19
(lp2055
sg21
I00
sg22
V
sg23
I00
sg24
S'R'
sbsg40
(irule
FeatureMatrix
p2056
(dp2057
g35
(lp2058
sg22
V[  ]
p2059
sbsg22
V[  ] ---> i / # [ -nasal -sibilant ] _ 
p2060
sba(irule
Rule
p2061
(dp2062
g15
(irule
Guard
p2063
(dp2064
g18
I01
sg19
(lp2065
(irule
FeatureMatrix
p2066
(dp2067
g35
(lp2068
(I00
g502
tp2069
a(I00
g240
tp2070
asg22
V[ -continuant -nasal ]
p2071
sbasg21
I00
sg22
V# [ -continuant -nasal ]
p2072
sg23
I00
sg24
S'L'
sbsg25
(irule
ConstantPhoneme
p2073
(dp2074
S'p'
Vi
sbsg29
(irule
Guard
p2075
(dp2076
g18
I00
sg19
(lp2077
sg21
I00
sg22
V
sg23
I00
sg24
S'R'
sbsg40
(irule
FeatureMatrix
p2078
(dp2079
g35
(lp2080
sg22
V[  ]
p2081
sbsg22
V[  ] ---> i / # [ -continuant -nasal ] _ 
p2082
sba(irule
Rule
p2083
(dp2084
g15
(irule
Guard
p2085
(dp2086
g18
I01
sg19
(lp2087
(irule
FeatureMatrix
p2088
(dp2089
g35
(lp2090
(I00
g461
tp2091
asg22
V[ -back ]
p2092
sbasg21
I00
sg22
V# [ -back ]
p2093
sg23
I00
sg24
S'L'
sbsg25
(irule
ConstantPhoneme
p2094
(dp2095
S'p'
Vi
sbsg29
(irule
Guard
p2096
(dp2097
g18
I00
sg19
(lp2098
sg21
I00
sg22
V
sg23
I00
sg24
S'R'
sbsg40
(irule
FeatureMatrix
p2099
(dp2100
g35
(lp2101
(I00
g272
tp2102
asg22
V[ -low ]
p2103
sbsg22
V[ -low ] ---> i / # [ -back ] _ 
p2104
sba(irule
Rule
p2105
(dp2106
g15
(irule
Guard
p2107
(dp2108
g18
I01
sg19
(lp2109
(irule
FeatureMatrix
p2110
(dp2111
g35
(lp2112
(I00
g240
tp2113
a(I00
g272
tp2114
asg22
V[ -low -nasal ]
p2115
sbasg21
I00
sg22
V# [ -low -nasal ]
p2116
sg23
I00
sg24
S'L'
sbsg25
(irule
ConstantPhoneme
p2117
(dp2118
S'p'
Vi
sbsg29
(irule
Guard
p2119
(dp2120
g18
I00
sg19
(lp2121
sg21
I00
sg22
V
sg23
I00
sg24
S'R'
sbsg40
(irule
FeatureMatrix
p2122
(dp2123
g35
(lp2124
sg22
V[  ]
p2125
sbsg22
V[  ] ---> i / # [ -low -nasal ] _ 
p2126
sba(irule
Rule
p2127
(dp2128
g15
(irule
Guard
p2129
(dp2130
g18
I01
sg19
(lp2131
(irule
FeatureMatrix
p2132
(dp2133
g35
(lp2134
(I00
g461
tp2135
a(I00
g218
tp2136
asg22
V[ -back -sonorant ]
p2137
sbasg21
I00
sg22
V# [ -back -sonorant ]
p2138
sg23
I00
sg24
S'L'
sbsg25
(irule
ConstantPhoneme
p2139
(dp2140
S'p'
Vi
sbsg29
(irule
Guard
p2141
(dp2142
g18
I00
sg19
(lp2143
sg21
I00
sg22
V
sg23
I00
sg24
S'R'
sbsg40
(irule
FeatureMatrix
p2144
(dp2145
g35
(lp2146
sg22
V[  ]
p2147
sbsg22
V[  ] ---> i / # [ -back -sonorant ] _ 
p2148
sba(irule
Rule
p2149
(dp2150
g15
(irule
Guard
p2151
(dp2152
g18
I01
sg19
(lp2153
(irule
FeatureMatrix
p2154
(dp2155
g35
(lp2156
(I00
g218
tp2157
asg22
V[ -sonorant ]
p2158
sbasg21
I00
sg22
V# [ -sonorant ]
p2159
sg23
I00
sg24
S'L'
sbsg25
(irule
ConstantPhoneme
p2160
(dp2161
S'p'
Vi
sbsg29
(irule
Guard
p2162
(dp2163
g18
I00
sg19
(lp2164
sg21
I00
sg22
V
sg23
I00
sg24
S'R'
sbsg40
(irule
FeatureMatrix
p2165
(dp2166
g35
(lp2167
(I00
g338
tp2168
asg22
V[ -vowel ]
p2169
sbsg22
V[ -vowel ] ---> i / # [ -sonorant ] _ 
p2170
sba(irule
Rule
p2171
(dp2172
g15
(irule
Guard
p2173
(dp2174
g18
I01
sg19
(lp2175
(irule
FeatureMatrix
p2176
(dp2177
g35
(lp2178
(I00
g240
tp2179
a(I00
g1365
tp2180
asg22
V[ -high -nasal ]
p2181
sbasg21
I00
sg22
V# [ -high -nasal ]
p2182
sg23
I00
sg24
S'L'
sbsg25
(irule
ConstantPhoneme
p2183
(dp2184
S'p'
Vi
sbsg29
(irule
Guard
p2185
(dp2186
g18
I00
sg19
(lp2187
sg21
I00
sg22
V
sg23
I00
sg24
S'R'
sbsg40
(irule
FeatureMatrix
p2188
(dp2189
g35
(lp2190
sg22
V[  ]
p2191
sbsg22
V[  ] ---> i / # [ -high -nasal ] _ 
p2192
sba(irule
Rule
p2193
(dp2194
g15
(irule
Guard
p2195
(dp2196
g18
I01
sg19
(lp2197
(irule
FeatureMatrix
p2198
(dp2199
g35
(lp2200
(I00
g218
tp2201
asg22
V[ -sonorant ]
p2202
sbasg21
I00
sg22
V# [ -sonorant ]
p2203
sg23
I00
sg24
S'L'
sbsg25
(irule
ConstantPhoneme
p2204
(dp2205
S'p'
Vi
sbsg29
(irule
Guard
p2206
(dp2207
g18
I00
sg19
(lp2208
sg21
I00
sg22
V
sg23
I00
sg24
S'R'
sbsg40
(irule
FeatureMatrix
p2209
(dp2210
g35
(lp2211
(I00
g272
tp2212
asg22
V[ -low ]
p2213
sbsg22
V[ -low ] ---> i / # [ -sonorant ] _ 
p2214
sba(irule
Rule
p2215
(dp2216
g15
(irule
Guard
p2217
(dp2218
g18
I00
sg19
(lp2219
(irule
ConstantPhoneme
p2220
(dp2221
S'p'
Vd
sbasg21
I00
sg22
Vd
sg23
I00
sg24
S'L'
sbsg25
(irule
ConstantPhoneme
p2222
(dp2223
S'p'
Vi
sbsg29
(irule
Guard
p2224
(dp2225
g18
I00
sg19
(lp2226
sg21
I00
sg22
V
sg23
I00
sg24
S'R'
sbsg40
(irule
FeatureMatrix
p2227
(dp2228
g35
(lp2229
(I00
g396
tp2230
a(I00
g338
tp2231
asg22
V[ -liquid -vowel ]
p2232
sbsg22
V[ -liquid -vowel ] ---> i / d _ 
p2233
sba(irule
Rule
p2234
(dp2235
g15
(irule
Guard
p2236
(dp2237
g18
I01
sg19
(lp2238
(irule
FeatureMatrix
p2239
(dp2240
g35
(lp2241
(I01
g284
tp2242
a(I01
g991
tp2243
asg22
V[ +coronal +voice ]
p2244
sbasg21
I00
sg22
V# [ +coronal +voice ]
p2245
sg23
I00
sg24
S'L'
sbsg25
(irule
ConstantPhoneme
p2246
(dp2247
S'p'
Vi
sbsg29
(irule
Guard
p2248
(dp2249
g18
I00
sg19
(lp2250
sg21
I00
sg22
V
sg23
I00
sg24
S'R'
sbsg40
(irule
FeatureMatrix
p2251
(dp2252
g35
(lp2253
sg22
V[  ]
p2254
sbsg22
V[  ] ---> i / # [ +coronal +voice ] _ 
p2255
sba(irule
Rule
p2256
(dp2257
g15
(irule
Guard
p2258
(dp2259
g18
I00
sg19
(lp2260
(irule
FeatureMatrix
p2261
(dp2262
g35
(lp2263
(I00
g218
tp2264
a(I01
g991
tp2265
asg22
V[ +voice -sonorant ]
p2266
sbasg21
I00
sg22
g2266
sg23
I00
sg24
S'L'
sbsg25
(irule
ConstantPhoneme
p2267
(dp2268
S'p'
Vi
sbsg29
(irule
Guard
p2269
(dp2270
g18
I00
sg19
(lp2271
sg21
I00
sg22
V
sg23
I00
sg24
S'R'
sbsg40
(irule
FeatureMatrix
p2272
(dp2273
g35
(lp2274
(I00
g338
tp2275
asg22
V[ -vowel ]
p2276
sbsg22
V[ -vowel ] ---> i / [ +voice -sonorant ] _ 
p2277
sba(irule
Rule
p2278
(dp2279
g15
(irule
Guard
p2280
(dp2281
g18
I01
sg19
(lp2282
(irule
FeatureMatrix
p2283
(dp2284
g35
(lp2285
(I00
g218
tp2286
a(I00
g1058
tp2287
asg22
V[ -sibilant -sonorant ]
p2288
sbasg21
I00
sg22
V# [ -sibilant -sonorant ]
p2289
sg23
I00
sg24
S'L'
sbsg25
(irule
ConstantPhoneme
p2290
(dp2291
S'p'
Vi
sbsg29
(irule
Guard
p2292
(dp2293
g18
I00
sg19
(lp2294
sg21
I00
sg22
V
sg23
I00
sg24
S'R'
sbsg40
(irule
FeatureMatrix
p2295
(dp2296
g35
(lp2297
sg22
V[  ]
p2298
sbsg22
V[  ] ---> i / # [ -sibilant -sonorant ] _ 
p2299
sba(irule
Rule
p2300
(dp2301
g15
(irule
Guard
p2302
(dp2303
g18
I01
sg19
(lp2304
(irule
FeatureMatrix
p2305
(dp2306
g35
(lp2307
(I00
g461
tp2308
asg22
V[ -back ]
p2309
sbasg21
I00
sg22
V# [ -back ]
p2310
sg23
I00
sg24
S'L'
sbsg25
(irule
ConstantPhoneme
p2311
(dp2312
S'p'
Vi
sbsg29
(irule
Guard
p2313
(dp2314
g18
I00
sg19
(lp2315
sg21
I00
sg22
V
sg23
I00
sg24
S'R'
sbsg40
(irule
FeatureMatrix
p2316
(dp2317
g35
(lp2318
(I00
g338
tp2319
asg22
V[ -vowel ]
p2320
sbsg22
V[ -vowel ] ---> i / # [ -back ] _ 
p2321
sba(irule
Rule
p2322
(dp2323
g15
(irule
Guard
p2324
(dp2325
g18
I01
sg19
(lp2326
(irule
FeatureMatrix
p2327
(dp2328
g35
(lp2329
(I00
g240
tp2330
a(I00
g461
tp2331
asg22
V[ -back -nasal ]
p2332
sbasg21
I00
sg22
V# [ -back -nasal ]
p2333
sg23
I00
sg24
S'L'
sbsg25
(irule
ConstantPhoneme
p2334
(dp2335
S'p'
Vi
sbsg29
(irule
Guard
p2336
(dp2337
g18
I00
sg19
(lp2338
sg21
I00
sg22
V
sg23
I00
sg24
S'R'
sbsg40
(irule
FeatureMatrix
p2339
(dp2340
g35
(lp2341
sg22
V[  ]
p2342
sbsg22
V[  ] ---> i / # [ -back -nasal ] _ 
p2343
sba(irule
Rule
p2344
(dp2345
g15
(irule
Guard
p2346
(dp2347
g18
I01
sg19
(lp2348
(irule
FeatureMatrix
p2349
(dp2350
g35
(lp2351
(I00
g240
tp2352
a(I00
g316
tp2353
asg22
V[ -nasal -tense ]
p2354
sbasg21
I00
sg22
V# [ -nasal -tense ]
p2355
sg23
I00
sg24
S'L'
sbsg25
(irule
ConstantPhoneme
p2356
(dp2357
S'p'
Vi
sbsg29
(irule
Guard
p2358
(dp2359
g18
I00
sg19
(lp2360
sg21
I00
sg22
V
sg23
I00
sg24
S'R'
sbsg40
(irule
FeatureMatrix
p2361
(dp2362
g35
(lp2363
sg22
V[  ]
p2364
sbsg22
V[  ] ---> i / # [ -nasal -tense ] _ 
p2365
sba(irule
Rule
p2366
(dp2367
g15
(irule
Guard
p2368
(dp2369
g18
I01
sg19
(lp2370
(irule
FeatureMatrix
p2371
(dp2372
g35
(lp2373
(I00
g240
tp2374
a(I00
g338
tp2375
asg22
V[ -nasal -vowel ]
p2376
sbasg21
I00
sg22
V# [ -nasal -vowel ]
p2377
sg23
I00
sg24
S'L'
sbsg25
(irule
ConstantPhoneme
p2378
(dp2379
S'p'
Vi
sbsg29
(irule
Guard
p2380
(dp2381
g18
I00
sg19
(lp2382
sg21
I00
sg22
V
sg23
I00
sg24
S'R'
sbsg40
(irule
FeatureMatrix
p2383
(dp2384
g35
(lp2385
sg22
V[  ]
p2386
sbsg22
V[  ] ---> i / # [ -nasal -vowel ] _ 
p2387
sbaasbsS'parameters'
p2388
g6
(cargparse
Namespace
p2389
g8
NtRp2390
(dp2391
S'restore'
p2392
NsS'features'
p2393
S'sophisticated'
p2394
sS'universal'
p2395
NsS'restrict'
p2396
NsS'seed'
p2397
NsS'serial'
p2398
I00
sS'cv'
p2399
I00
sS'alignment'
p2400
I00
sS'top'
p2401
I100
sS'maximumDepth'
p2402
I3
sS'window'
p2403
NsS'minimizeBits'
p2404
I5
sS'samples'
p2405
I30
sS'save'
p2406
NsS'resume'
p2407
I00
sS'disableClean'
p2408
I00
sS'stemBaseline'
p2409
I30
sS'dummy'
p2410
I00
sS'task'
p2411
S'incremental'
p2412
sS'geometry'
p2413
I01
sS'verbosity'
p2414
I0
sS'noConstant'
p2415
I00
sS'timeout'
p2416
F24
sS'debug'
p2417
NsS'cores'
p2418
I48
sg183
S'Odden_Mandar_Saujas_1'
p2419
sS'mergeFrontiers'
p2420
I00
sbsb.