(iresult
Result
p1
(dp2
S'startTime'
p3
F1721108623.431462
sS'solutionSequence'
p4
(lp5
(ccopy_reg
_reconstructor
p6
(csolution
Solution
p7
c__builtin__
object
p8
NtRp9
(dp10
S'rules'
p11
(lp12
(irule
Rule
p13
(dp14
S'leftTriggers'
p15
(irule
Guard
p16
(dp17
S'endOfString'
p18
I00
sS'specifications'
p19
(lp20
sS'optionalEnding'
p21
I00
sS'representation'
p22
V
sS'starred'
p23
I00
sS'side'
p24
S'L'
sbsS'structuralChange'
p25
(irule
PlaceSpecification
p26
(dp27
S'offset'
p28
I1
sbsS'rightTriggers'
p29
(irule
Guard
p30
(dp31
g18
I00
sg19
(lp32
(irule
FeatureMatrix
p33
(dp34
S'featuresAndPolarities'
p35
(lp36
(I00
S'sonorant'
p37
tp38
asg22
V[ -sonorant ]
p39
sbasg21
I00
sg22
g39
sg23
I00
sg24
S'R'
sbsS'focus'
p40
(irule
FeatureMatrix
p41
(dp42
g35
(lp43
(I01
S'nasal'
p44
tp45
asg22
V[ +nasal ]
p46
sbsg22
V[ +nasal ] ---> place1 /  _ [ -sonorant ]
p47
sbasS'prefixes'
p48
(lp49
(imorph
Morph
p50
(dp51
S'phonemes'
p52
(lp53
Vm
aVa
aV\u014b
asba(imorph
Morph
p54
(dp55
g52
(lp56
Vd
aVi
asbasS'underlyingForms'
p57
(dp58
((imorph
Morph
p59
(dp60
g52
(lp61
Vm
aVa
aVn
aVd
aVe
aV\u014b
aV\u014b
aVe
aVq
asb(imorph
Morph
p62
(dp63
g52
(lp64
Vd
aVi
aVd
aVe
aV\u014b
aV\u014b
aVe
aVq
asbtp65
(imorph
Morph
p66
(dp67
g52
(lp68
Vd
aVe
aV\u014b
aV\u014b
aVe
aVq
asbs((imorph
Morph
p69
(dp70
g52
(lp71
Vm
aVa
aVm
aVb
aVa
aVt
aVt
aVa
asb(imorph
Morph
p72
(dp73
g52
(lp74
Vd
aVi
aVb
aVa
aVt
aVt
aVa
asbtp75
(imorph
Morph
p76
(dp77
g52
(lp78
Vb
aVa
aVt
aVt
aVa
asbs((imorph
Morph
p79
(dp80
g52
(lp81
Vm
aVa
aV\u014b
aVi
aVd
aVa
aV\u014b
asb(imorph
Morph
p82
(dp83
g52
(lp84
Vd
aVi
aVi
aVd
aVa
aV\u014b
asbtp85
(imorph
Morph
p86
(dp87
g52
(lp88
Vi
aVd
aVa
aV\u014b
asbssS'suffixes'
p89
(lp90
(imorph
Morph
p91
(dp92
g52
(lp93
sba(imorph
Morph
p94
(dp95
g52
(lp96
sbasbF15.102661848068237
tp97
a(g6
(g7
g8
NtRp98
(dp99
g11
(lp100
(irule
Rule
p101
(dp102
g15
(irule
Guard
p103
(dp104
g18
I00
sg19
(lp105
sg21
I00
sg22
V
sg23
I00
sg24
S'L'
sbsg25
(irule
PlaceSpecification
p106
(dp107
g28
I1
sbsg29
(irule
Guard
p108
(dp109
g18
I00
sg19
(lp110
(irule
FeatureMatrix
p111
(dp112
g35
(lp113
(I00
S'sonorant'
tp114
asg22
V[ -sonorant ]
p115
sbasg21
I00
sg22
g115
sg23
I00
sg24
S'R'
sbsg40
(irule
FeatureMatrix
p116
(dp117
g35
(lp118
(I01
S'nasal'
tp119
asg22
V[ +nasal ]
p120
sbsg22
V[ +nasal ] ---> place1 /  _ [ -sonorant ]
p121
sba(irule
Rule
p122
(dp123
g15
(irule
Guard
p124
(dp125
g18
I00
sg19
(lp126
sg21
I00
sg22
V
sg23
I00
sg24
S'L'
sbsg25
(irule
OffsetSpecification
p127
(dp128
g28
I1
sbsg29
(irule
Guard
p129
(dp130
g18
I00
sg19
(lp131
(irule
FeatureMatrix
p132
(dp133
g35
(lp134
(I00
S'voice'
tp135
asg22
V[ -voice ]
p136
sbasg21
I00
sg22
g136
sg23
I00
sg24
S'R'
sbsg40
(irule
FeatureMatrix
p137
(dp138
g35
(lp139
(I00
S'tense'
tp140
asg22
V[ -tense ]
p141
sbsg22
V[ -tense ] ---> 1 /  _ [ -voice ]
p142
sbasg48
(lp143
(imorph
Morph
p144
(dp145
g52
(lp146
Vm
aVa
aV\u014b
asba(imorph
Morph
p147
(dp148
g52
(lp149
Vd
aVi
asbasg57
(dp150
((imorph
Morph
(dp151
g52
(lp152
Vm
aVa
aVs
aVs
aVi
aVr
aVa
aVq
asb(imorph
Morph
(dp153
g52
(lp154
Vd
aVi
aVs
aVi
aVr
aVa
aVq
asbtp155
(imorph
Morph
p156
(dp157
g52
(lp158
Vs
aVi
aVr
aVa
aVq
asbs((imorph
Morph
(dp159
g52
(lp160
Vm
aVa
aVm
aVb
aVa
aVt
aVt
aVa
asb(imorph
Morph
(dp161
g52
(lp162
Vd
aVi
aVb
aVa
aVt
aVt
aVa
asbtp163
(imorph
Morph
p164
(dp165
g52
(lp166
Vb
aVa
aVt
aVt
aVa
asbs((imorph
Morph
(dp167
g52
(lp168
Vm
aVa
aVp
aVp
aVa
aVs
aVu
aV\u014b
asb(imorph
Morph
(dp169
g52
(lp170
Vd
aVi
aVp
aVa
aVs
aVu
aV\u014b
asbtp171
(imorph
Morph
p172
(dp173
g52
(lp174
Vp
aVa
aVs
aVu
aV\u014b
asbs((imorph
Morph
(dp175
g52
(lp176
Vm
aVa
aVt
aVt
aVu
aVn
aVu
asb(imorph
Morph
(dp177
g52
(lp178
Vd
aVi
aVt
aVu
aVn
aVu
asbtp179
(imorph
Morph
p180
(dp181
g52
(lp182
Vt
aVu
aVn
aVu
asbs((imorph
Morph
(dp183
g52
(lp184
Vm
aVa
aVn
aVd
aVe
aV\u014b
aV\u014b
aVe
aVq
asb(imorph
Morph
(dp185
g52
(lp186
Vd
aVi
aVd
aVe
aV\u014b
aV\u014b
aVe
aVq
asbtp187
(imorph
Morph
p188
(dp189
g52
(lp190
Vd
aVe
aV\u014b
aV\u014b
aVe
aVq
asbs((imorph
Morph
(dp191
g52
(lp192
Vm
aVa
aV\u014b
aVi
aVd
aVa
aV\u014b
asb(imorph
Morph
(dp193
g52
(lp194
Vd
aVi
aVi
aVd
aVa
aV\u014b
asbtp195
(imorph
Morph
p196
(dp197
g52
(lp198
Vi
aVd
aVa
aV\u014b
asbssg89
(lp199
(imorph
Morph
p200
(dp201
g52
(lp202
sba(imorph
Morph
p203
(dp204
g52
(lp205
sbasbF840.46275687217712
tp206
asS'problem'
p207
S'Odden_Mandar_Saujas_1'
p208
sS'finalFrontier'
p209
g6
(csolution
Frontier
p210
g8
NtRp211
(dp212
g48
g143
sg89
g199
sg57
g150
sS'frontiers'
p213
(lp214
(lp215
(irule
Rule
p216
(dp217
g15
(irule
Guard
p218
(dp219
g18
I00
sg19
(lp220
sg21
I00
sg22
V
sg23
I00
sg24
S'L'
sbsg25
(irule
PlaceSpecification
p221
(dp222
g28
I1
sbsg29
(irule
Guard
p223
(dp224
g18
I00
sg19
(lp225
(irule
FeatureMatrix
p226
(dp227
g35
(lp228
(I00
S'sonorant'
tp229
asg22
V[ -sonorant ]
p230
sbasg21
I00
sg22
g230
sg23
I00
sg24
S'R'
sbsg40
(irule
FeatureMatrix
p231
(dp232
g35
(lp233
(I01
S'nasal'
tp234
asg22
V[ +nasal ]
p235
sbsg22
V[ +nasal ] ---> place1 /  _ [ -sonorant ]
p236
sba(irule
Rule
p237
(dp238
g15
(irule
Guard
p239
(dp240
g18
I00
sg19
(lp241
sg21
I00
sg22
V
sg23
I00
sg24
S'L'
sbsg25
(irule
PlaceSpecification
p242
(dp243
g28
I1
sbsg29
(irule
Guard
p244
(dp245
g18
I00
sg19
(lp246
(irule
FeatureMatrix
p247
(dp248
g35
(lp249
(I00
S'tense'
p250
tp251
asg22
V[ -tense ]
p252
sbasg21
I00
sg22
g252
sg23
I00
sg24
S'R'
sbsg40
(irule
FeatureMatrix
p253
(dp254
g35
(lp255
(I00
S'vowel'
p256
tp257
asg22
V[ -vowel ]
p258
sbsg22
V[ -vowel ] ---> place1 /  _ [ -tense ]
p259
sba(irule
Rule
p260
(dp261
g15
(irule
Guard
p262
(dp263
g18
I00
sg19
(lp264
sg21
I00
sg22
V
sg23
I00
sg24
S'L'
sbsg25
(irule
PlaceSpecification
p265
(dp266
g28
I1
sbsg29
(irule
Guard
p267
(dp268
g18
I00
sg19
(lp269
(irule
FeatureMatrix
p270
(dp271
g35
(lp272
(I01
S'anterior'
p273
tp274
asg22
V[ +anterior ]
p275
sbasg21
I00
sg22
g275
sg23
I00
sg24
S'R'
sbsg40
(irule
ConstantPhoneme
p276
(dp277
S'p'
V\u014b
sbsg22
V\u014b ---> place1 /  _ [ +anterior ]
p278
sba(irule
Rule
p279
(dp280
g15
(irule
Guard
p281
(dp282
g18
I00
sg19
(lp283
sg21
I00
sg22
V
sg23
I00
sg24
S'L'
sbsg25
(irule
PlaceSpecification
p284
(dp285
g28
I1
sbsg29
(irule
Guard
p286
(dp287
g18
I00
sg19
(lp288
(irule
FeatureMatrix
p289
(dp290
g35
(lp291
(I00
g256
tp292
asg22
V[ -vowel ]
p293
sbasg21
I00
sg22
g293
sg23
I00
sg24
S'R'
sbsg40
(irule
FeatureMatrix
p294
(dp295
g35
(lp296
(I00
g256
tp297
asg22
V[ -vowel ]
p298
sbsg22
V[ -vowel ] ---> place1 /  _ [ -vowel ]
p299
sba(irule
Rule
p300
(dp301
g15
(irule
Guard
p302
(dp303
g18
I00
sg19
(lp304
sg21
I00
sg22
V
sg23
I00
sg24
S'L'
sbsg25
(irule
PlaceSpecification
p305
(dp306
g28
I1
sbsg29
(irule
Guard
p307
(dp308
g18
I00
sg19
(lp309
(irule
FeatureMatrix
p310
(dp311
g35
(lp312
(I00
g250
tp313
asg22
V[ -tense ]
p314
sbasg21
I00
sg22
g314
sg23
I00
sg24
S'R'
sbsg40
(irule
FeatureMatrix
p315
(dp316
g35
(lp317
(I00
g250
tp318
asg22
V[ -tense ]
p319
sbsg22
V[ -tense ] ---> place1 /  _ [ -tense ]
p320
sba(irule
Rule
p321
(dp322
g15
(irule
Guard
p323
(dp324
g18
I00
sg19
(lp325
sg21
I00
sg22
V
sg23
I00
sg24
S'L'
sbsg25
(irule
PlaceSpecification
p326
(dp327
g28
I1
sbsg29
(irule
Guard
p328
(dp329
g18
I00
sg19
(lp330
(irule
FeatureMatrix
p331
(dp332
g35
(lp333
(I00
g250
tp334
asg22
V[ -tense ]
p335
sbasg21
I00
sg22
g335
sg23
I00
sg24
S'R'
sbsg40
(irule
FeatureMatrix
p336
(dp337
g35
(lp338
(I01
S'nasal'
p339
tp340
asg22
V[ +nasal ]
p341
sbsg22
V[ +nasal ] ---> place1 /  _ [ -tense ]
p342
sba(irule
Rule
p343
(dp344
g15
(irule
Guard
p345
(dp346
g18
I00
sg19
(lp347
sg21
I00
sg22
V
sg23
I00
sg24
S'L'
sbsg25
(irule
PlaceSpecification
p348
(dp349
g28
I1
sbsg29
(irule
Guard
p350
(dp351
g18
I00
sg19
(lp352
(irule
FeatureMatrix
p353
(dp354
g35
(lp355
(I00
S'sonorant'
p356
tp357
asg22
V[ -sonorant ]
p358
sbasg21
I00
sg22
g358
sg23
I00
sg24
S'R'
sbsg40
(irule
FeatureMatrix
p359
(dp360
g35
(lp361
(I00
g250
tp362
asg22
V[ -tense ]
p363
sbsg22
V[ -tense ] ---> place1 /  _ [ -sonorant ]
p364
sba(irule
Rule
p365
(dp366
g15
(irule
Guard
p367
(dp368
g18
I00
sg19
(lp369
sg21
I00
sg22
V
sg23
I00
sg24
S'L'
sbsg25
(irule
PlaceSpecification
p370
(dp371
g28
I1
sbsg29
(irule
Guard
p372
(dp373
g18
I00
sg19
(lp374
(irule
FeatureMatrix
p375
(dp376
g35
(lp377
(I00
g250
tp378
asg22
V[ -tense ]
p379
sbasg21
I00
sg22
g379
sg23
I00
sg24
S'R'
sbsg40
(irule
FeatureMatrix
p380
(dp381
g35
(lp382
(I00
S'continuant'
p383
tp384
asg22
V[ -continuant ]
p385
sbsg22
V[ -continuant ] ---> place1 /  _ [ -tense ]
p386
sba(irule
Rule
p387
(dp388
g15
(irule
Guard
p389
(dp390
g18
I00
sg19
(lp391
sg21
I00
sg22
V
sg23
I00
sg24
S'L'
sbsg25
(irule
PlaceSpecification
p392
(dp393
g28
I1
sbsg29
(irule
Guard
p394
(dp395
g18
I00
sg19
(lp396
(irule
FeatureMatrix
p397
(dp398
g35
(lp399
(I01
g273
tp400
asg22
V[ +anterior ]
p401
sbasg21
I00
sg22
g401
sg23
I00
sg24
S'R'
sbsg40
(irule
FeatureMatrix
p402
(dp403
g35
(lp404
(I00
g383
tp405
asg22
V[ -continuant ]
p406
sbsg22
V[ -continuant ] ---> place1 /  _ [ +anterior ]
p407
sba(irule
Rule
p408
(dp409
g15
(irule
Guard
p410
(dp411
g18
I00
sg19
(lp412
sg21
I00
sg22
V
sg23
I00
sg24
S'L'
sbsg25
(irule
PlaceSpecification
p413
(dp414
g28
I1
sbsg29
(irule
Guard
p415
(dp416
g18
I00
sg19
(lp417
(irule
FeatureMatrix
p418
(dp419
g35
(lp420
(I01
g273
tp421
asg22
V[ +anterior ]
p422
sbasg21
I00
sg22
g422
sg23
I00
sg24
S'R'
sbsg40
(irule
FeatureMatrix
p423
(dp424
g35
(lp425
(I00
g250
tp426
asg22
V[ -tense ]
p427
sbsg22
V[ -tense ] ---> place1 /  _ [ +anterior ]
p428
sba(irule
Rule
p429
(dp430
g15
(irule
Guard
p431
(dp432
g18
I00
sg19
(lp433
sg21
I00
sg22
V
sg23
I00
sg24
S'L'
sbsg25
(irule
PlaceSpecification
p434
(dp435
g28
I1
sbsg29
(irule
Guard
p436
(dp437
g18
I00
sg19
(lp438
(irule
FeatureMatrix
p439
(dp440
g35
(lp441
(I01
g273
tp442
asg22
V[ +anterior ]
p443
sbasg21
I00
sg22
g443
sg23
I00
sg24
S'R'
sbsg40
(irule
FeatureMatrix
p444
(dp445
g35
(lp446
(I00
g256
tp447
asg22
V[ -vowel ]
p448
sbsg22
V[ -vowel ] ---> place1 /  _ [ +anterior ]
p449
sba(irule
Rule
p450
(dp451
g15
(irule
Guard
p452
(dp453
g18
I00
sg19
(lp454
sg21
I00
sg22
V
sg23
I00
sg24
S'L'
sbsg25
(irule
PlaceSpecification
p455
(dp456
g28
I1
sbsg29
(irule
Guard
p457
(dp458
g18
I00
sg19
(lp459
(irule
FeatureMatrix
p460
(dp461
g35
(lp462
(I00
g256
tp463
asg22
V[ -vowel ]
p464
sbasg21
I00
sg22
g464
sg23
I00
sg24
S'R'
sbsg40
(irule
FeatureMatrix
p465
(dp466
g35
(lp467
(I01
g339
tp468
asg22
V[ +nasal ]
p469
sbsg22
V[ +nasal ] ---> place1 /  _ [ -vowel ]
p470
sba(irule
Rule
p471
(dp472
g15
(irule
Guard
p473
(dp474
g18
I00
sg19
(lp475
sg21
I00
sg22
V
sg23
I00
sg24
S'L'
sbsg25
(irule
PlaceSpecification
p476
(dp477
g28
I1
sbsg29
(irule
Guard
p478
(dp479
g18
I00
sg19
(lp480
(irule
FeatureMatrix
p481
(dp482
g35
(lp483
(I00
g256
tp484
asg22
V[ -vowel ]
p485
sbasg21
I00
sg22
g485
sg23
I00
sg24
S'R'
sbsg40
(irule
FeatureMatrix
p486
(dp487
g35
(lp488
(I00
g250
tp489
asg22
V[ -tense ]
p490
sbsg22
V[ -tense ] ---> place1 /  _ [ -vowel ]
p491
sba(irule
Rule
p492
(dp493
g15
(irule
Guard
p494
(dp495
g18
I00
sg19
(lp496
sg21
I00
sg22
V
sg23
I00
sg24
S'L'
sbsg25
(irule
PlaceSpecification
p497
(dp498
g28
I1
sbsg29
(irule
Guard
p499
(dp500
g18
I00
sg19
(lp501
(irule
FeatureMatrix
p502
(dp503
g35
(lp504
(I00
g250
tp505
asg22
V[ -tense ]
p506
sbasg21
I00
sg22
g506
sg23
I00
sg24
S'R'
sbsg40
(irule
ConstantPhoneme
p507
(dp508
S'p'
V\u014b
sbsg22
V\u014b ---> place1 /  _ [ -tense ]
p509
sba(irule
Rule
p510
(dp511
g15
(irule
Guard
p512
(dp513
g18
I00
sg19
(lp514
sg21
I00
sg22
V
sg23
I00
sg24
S'L'
sbsg25
(irule
PlaceSpecification
p515
(dp516
g28
I1
sbsg29
(irule
Guard
p517
(dp518
g18
I00
sg19
(lp519
(irule
FeatureMatrix
p520
(dp521
g35
(lp522
(I01
g273
tp523
asg22
V[ +anterior ]
p524
sbasg21
I00
sg22
g524
sg23
I00
sg24
S'R'
sbsg40
(irule
FeatureMatrix
p525
(dp526
g35
(lp527
(I01
g339
tp528
asg22
V[ +nasal ]
p529
sbsg22
V[ +nasal ] ---> place1 /  _ [ +anterior ]
p530
sba(irule
Rule
p531
(dp532
g15
(irule
Guard
p533
(dp534
g18
I00
sg19
(lp535
sg21
I00
sg22
V
sg23
I00
sg24
S'L'
sbsg25
(irule
PlaceSpecification
p536
(dp537
g28
I1
sbsg29
(irule
Guard
p538
(dp539
g18
I00
sg19
(lp540
(irule
FeatureMatrix
p541
(dp542
g35
(lp543
(I00
g256
tp544
asg22
V[ -vowel ]
p545
sbasg21
I00
sg22
g545
sg23
I00
sg24
S'R'
sbsg40
(irule
FeatureMatrix
p546
(dp547
g35
(lp548
(I00
g383
tp549
asg22
V[ -continuant ]
p550
sbsg22
V[ -continuant ] ---> place1 /  _ [ -vowel ]
p551
sba(irule
Rule
p552
(dp553
g15
(irule
Guard
p554
(dp555
g18
I00
sg19
(lp556
sg21
I00
sg22
V
sg23
I00
sg24
S'L'
sbsg25
(irule
PlaceSpecification
p557
(dp558
g28
I1
sbsg29
(irule
Guard
p559
(dp560
g18
I00
sg19
(lp561
(irule
FeatureMatrix
p562
(dp563
g35
(lp564
(I00
g256
tp565
asg22
V[ -vowel ]
p566
sbasg21
I00
sg22
g566
sg23
I00
sg24
S'R'
sbsg40
(irule
ConstantPhoneme
p567
(dp568
S'p'
V\u014b
sbsg22
V\u014b ---> place1 /  _ [ -vowel ]
p569
sba(irule
Rule
p570
(dp571
g15
(irule
Guard
p572
(dp573
g18
I00
sg19
(lp574
sg21
I00
sg22
V
sg23
I00
sg24
S'L'
sbsg25
(irule
PlaceSpecification
p575
(dp576
g28
I1
sbsg29
(irule
Guard
p577
(dp578
g18
I00
sg19
(lp579
(irule
FeatureMatrix
p580
(dp581
g35
(lp582
(I00
g356
tp583
asg22
V[ -sonorant ]
p584
sbasg21
I00
sg22
g584
sg23
I00
sg24
S'R'
sbsg40
(irule
FeatureMatrix
p585
(dp586
g35
(lp587
(I00
g383
tp588
asg22
V[ -continuant ]
p589
sbsg22
V[ -continuant ] ---> place1 /  _ [ -sonorant ]
p590
sba(irule
Rule
p591
(dp592
g15
(irule
Guard
p593
(dp594
g18
I00
sg19
(lp595
sg21
I00
sg22
V
sg23
I00
sg24
S'L'
sbsg25
(irule
PlaceSpecification
p596
(dp597
g28
I1
sbsg29
(irule
Guard
p598
(dp599
g18
I00
sg19
(lp600
(irule
FeatureMatrix
p601
(dp602
g35
(lp603
(I00
g356
tp604
asg22
V[ -sonorant ]
p605
sbasg21
I00
sg22
g605
sg23
I00
sg24
S'R'
sbsg40
(irule
FeatureMatrix
p606
(dp607
g35
(lp608
(I00
g256
tp609
asg22
V[ -vowel ]
p610
sbsg22
V[ -vowel ] ---> place1 /  _ [ -sonorant ]
p611
sba(irule
Rule
p612
(dp613
g15
(irule
Guard
p614
(dp615
g18
I00
sg19
(lp616
sg21
I00
sg22
V
sg23
I00
sg24
S'L'
sbsg25
(irule
PlaceSpecification
p617
(dp618
g28
I1
sbsg29
(irule
Guard
p619
(dp620
g18
I00
sg19
(lp621
(irule
FeatureMatrix
p622
(dp623
g35
(lp624
(I00
g356
tp625
asg22
V[ -sonorant ]
p626
sbasg21
I00
sg22
g626
sg23
I00
sg24
S'R'
sbsg40
(irule
ConstantPhoneme
p627
(dp628
S'p'
V\u014b
sbsg22
V\u014b ---> place1 /  _ [ -sonorant ]
p629
sba(irule
Rule
p630
(dp631
g15
(irule
Guard
p632
(dp633
g18
I00
sg19
(lp634
(irule
FeatureMatrix
p635
(dp636
g35
(lp637
(I01
S'low'
p638
tp639
asg22
V[ +low ]
p640
sbasg21
I00
sg22
g640
sg23
I00
sg24
S'L'
sbsg25
(irule
PlaceSpecification
p641
(dp642
g28
I1
sbsg29
(irule
Guard
p643
(dp644
g18
I00
sg19
(lp645
(irule
FeatureMatrix
p646
(dp647
g35
(lp648
(I00
g250
tp649
asg22
V[ -tense ]
p650
sbasg21
I00
sg22
g650
sg23
I00
sg24
S'R'
sbsg40
(irule
FeatureMatrix
p651
(dp652
g35
(lp653
sg22
V[  ]
p654
sbsg22
V[  ] ---> place1 / [ +low ] _ [ -tense ]
p655
sba(irule
Rule
p656
(dp657
g15
(irule
Guard
p658
(dp659
g18
I00
sg19
(lp660
sg21
I00
sg22
V
sg23
I00
sg24
S'L'
sbsg25
(irule
PlaceSpecification
p661
(dp662
g28
I1
sbsg29
(irule
Guard
p663
(dp664
g18
I00
sg19
(lp665
(irule
FeatureMatrix
p666
(dp667
g35
(lp668
(I01
g273
tp669
asg22
V[ +anterior ]
p670
sbasg21
I00
sg22
g670
sg23
I00
sg24
S'R'
sbsg40
(irule
FeatureMatrix
p671
(dp672
g35
(lp673
(I00
g256
tp674
a(I00
S'sibilant'
p675
tp676
asg22
V[ -sibilant -vowel ]
p677
sbsg22
V[ -sibilant -vowel ] ---> place1 /  _ [ +anterior ]
p678
sba(irule
Rule
p679
(dp680
g15
(irule
Guard
p681
(dp682
g18
I00
sg19
(lp683
(irule
ConstantPhoneme
p684
(dp685
S'p'
Va
sbasg21
I00
sg22
Va
sg23
I00
sg24
S'L'
sbsg25
(irule
PlaceSpecification
p686
(dp687
g28
I1
sbsg29
(irule
Guard
p688
(dp689
g18
I00
sg19
(lp690
(irule
FeatureMatrix
p691
(dp692
g35
(lp693
(I00
g256
tp694
asg22
V[ -vowel ]
p695
sbasg21
I00
sg22
g695
sg23
I00
sg24
S'R'
sbsg40
(irule
FeatureMatrix
p696
(dp697
g35
(lp698
sg22
V[  ]
p699
sbsg22
V[  ] ---> place1 / a _ [ -vowel ]
p700
sba(irule
Rule
p701
(dp702
g15
(irule
Guard
p703
(dp704
g18
I00
sg19
(lp705
(irule
FeatureMatrix
p706
(dp707
g35
(lp708
(I01
g638
tp709
asg22
V[ +low ]
p710
sbasg21
I00
sg22
g710
sg23
I00
sg24
S'L'
sbsg25
(irule
PlaceSpecification
p711
(dp712
g28
I1
sbsg29
(irule
Guard
p713
(dp714
g18
I00
sg19
(lp715
(irule
FeatureMatrix
p716
(dp717
g35
(lp718
(I00
g256
tp719
asg22
V[ -vowel ]
p720
sbasg21
I00
sg22
g720
sg23
I00
sg24
S'R'
sbsg40
(irule
FeatureMatrix
p721
(dp722
g35
(lp723
sg22
V[  ]
p724
sbsg22
V[  ] ---> place1 / [ +low ] _ [ -vowel ]
p725
sba(irule
Rule
p726
(dp727
g15
(irule
Guard
p728
(dp729
g18
I00
sg19
(lp730
(irule
FeatureMatrix
p731
(dp732
g35
(lp733
(I01
g638
tp734
asg22
V[ +low ]
p735
sbasg21
I00
sg22
g735
sg23
I00
sg24
S'L'
sbsg25
(irule
PlaceSpecification
p736
(dp737
g28
I1
sbsg29
(irule
Guard
p738
(dp739
g18
I00
sg19
(lp740
(irule
FeatureMatrix
p741
(dp742
g35
(lp743
(I01
g273
tp744
asg22
V[ +anterior ]
p745
sbasg21
I00
sg22
g745
sg23
I00
sg24
S'R'
sbsg40
(irule
FeatureMatrix
p746
(dp747
g35
(lp748
sg22
V[  ]
p749
sbsg22
V[  ] ---> place1 / [ +low ] _ [ +anterior ]
p750
sba(irule
Rule
p751
(dp752
g15
(irule
Guard
p753
(dp754
g18
I00
sg19
(lp755
(irule
FeatureMatrix
p756
(dp757
g35
(lp758
sg22
V[  ]
p759
sbasg21
I00
sg22
g759
sg23
I00
sg24
S'L'
sbsg25
(irule
PlaceSpecification
p760
(dp761
g28
I1
sbsg29
(irule
Guard
p762
(dp763
g18
I00
sg19
(lp764
(irule
FeatureMatrix
p765
(dp766
g35
(lp767
(I00
g250
tp768
asg22
V[ -tense ]
p769
sbasg21
I00
sg22
g769
sg23
I00
sg24
S'R'
sbsg40
(irule
FeatureMatrix
p770
(dp771
g35
(lp772
(I00
g256
tp773
asg22
V[ -vowel ]
p774
sbsg22
V[ -vowel ] ---> place1 / [  ] _ [ -tense ]
p775
sba(irule
Rule
p776
(dp777
g15
(irule
Guard
p778
(dp779
g18
I00
sg19
(lp780
sg21
I00
sg22
V
sg23
I00
sg24
S'L'
sbsg25
(irule
PlaceSpecification
p781
(dp782
g28
I1
sbsg29
(irule
Guard
p783
(dp784
g18
I00
sg19
(lp785
(irule
FeatureMatrix
p786
(dp787
g35
(lp788
(I00
g250
tp789
asg22
V[ -tense ]
p790
sbasg21
I00
sg22
g790
sg23
I00
sg24
S'R'
sbsg40
(irule
FeatureMatrix
p791
(dp792
g35
(lp793
(I01
S'high'
p794
tp795
a(I00
g256
tp796
asg22
V[ +high -vowel ]
p797
sbsg22
V[ +high -vowel ] ---> place1 /  _ [ -tense ]
p798
sba(irule
Rule
p799
(dp800
g15
(irule
Guard
p801
(dp802
g18
I00
sg19
(lp803
sg21
I00
sg22
V
sg23
I00
sg24
S'L'
sbsg25
(irule
PlaceSpecification
p804
(dp805
g28
I1
sbsg29
(irule
Guard
p806
(dp807
g18
I00
sg19
(lp808
(irule
FeatureMatrix
p809
(dp810
g35
(lp811
(I00
g250
tp812
asg22
V[ -tense ]
p813
sbasg21
I00
sg22
g813
sg23
I00
sg24
S'R'
sbsg40
(irule
FeatureMatrix
p814
(dp815
g35
(lp816
(I00
g256
tp817
a(I01
S'voice'
p818
tp819
asg22
V[ +voice -vowel ]
p820
sbsg22
V[ +voice -vowel ] ---> place1 /  _ [ -tense ]
p821
sba(irule
Rule
p822
(dp823
g15
(irule
Guard
p824
(dp825
g18
I00
sg19
(lp826
sg21
I00
sg22
V
sg23
I00
sg24
S'L'
sbsg25
(irule
PlaceSpecification
p827
(dp828
g28
I1
sbsg29
(irule
Guard
p829
(dp830
g18
I00
sg19
(lp831
(irule
FeatureMatrix
p832
(dp833
g35
(lp834
(I00
g250
tp835
asg22
V[ -tense ]
p836
sbasg21
I00
sg22
g836
sg23
I00
sg24
S'R'
sbsg40
(irule
FeatureMatrix
p837
(dp838
g35
(lp839
(I01
g339
tp840
a(I00
g675
tp841
asg22
V[ +nasal -sibilant ]
p842
sbsg22
V[ +nasal -sibilant ] ---> place1 /  _ [ -tense ]
p843
sba(irule
Rule
p844
(dp845
g15
(irule
Guard
p846
(dp847
g18
I00
sg19
(lp848
(irule
ConstantPhoneme
p849
(dp850
S'p'
Va
sbasg21
I00
sg22
Va
sg23
I00
sg24
S'L'
sbsg25
(irule
PlaceSpecification
p851
(dp852
g28
I1
sbsg29
(irule
Guard
p853
(dp854
g18
I00
sg19
(lp855
(irule
FeatureMatrix
p856
(dp857
g35
(lp858
(I00
g250
tp859
asg22
V[ -tense ]
p860
sbasg21
I00
sg22
g860
sg23
I00
sg24
S'R'
sbsg40
(irule
FeatureMatrix
p861
(dp862
g35
(lp863
sg22
V[  ]
p864
sbsg22
V[  ] ---> place1 / a _ [ -tense ]
p865
sba(irule
Rule
p866
(dp867
g15
(irule
Guard
p868
(dp869
g18
I00
sg19
(lp870
(irule
ConstantPhoneme
p871
(dp872
S'p'
Va
sbasg21
I00
sg22
Va
sg23
I00
sg24
S'L'
sbsg25
(irule
PlaceSpecification
p873
(dp874
g28
I1
sbsg29
(irule
Guard
p875
(dp876
g18
I00
sg19
(lp877
(irule
FeatureMatrix
p878
(dp879
g35
(lp880
(I00
g356
tp881
asg22
V[ -sonorant ]
p882
sbasg21
I00
sg22
g882
sg23
I00
sg24
S'R'
sbsg40
(irule
FeatureMatrix
p883
(dp884
g35
(lp885
sg22
V[  ]
p886
sbsg22
V[  ] ---> place1 / a _ [ -sonorant ]
p887
sba(irule
Rule
p888
(dp889
g15
(irule
Guard
p890
(dp891
g18
I00
sg19
(lp892
sg21
I00
sg22
V
sg23
I00
sg24
S'L'
sbsg25
(irule
PlaceSpecification
p893
(dp894
g28
I1
sbsg29
(irule
Guard
p895
(dp896
g18
I00
sg19
(lp897
(irule
FeatureMatrix
p898
(dp899
g35
(lp900
(I00
g256
tp901
asg22
V[ -vowel ]
p902
sba(irule
FeatureMatrix
p903
(dp904
g35
(lp905
sg22
V[  ]
p906
sbasg21
I00
sg22
V[ -vowel ] [  ]
p907
sg23
I00
sg24
S'R'
sbsg40
(irule
FeatureMatrix
p908
(dp909
g35
(lp910
(I01
g339
tp911
asg22
V[ +nasal ]
p912
sbsg22
V[ +nasal ] ---> place1 /  _ [ -vowel ] [  ]
p913
sba(irule
Rule
p914
(dp915
g15
(irule
Guard
p916
(dp917
g18
I00
sg19
(lp918
sg21
I00
sg22
V
sg23
I00
sg24
S'L'
sbsg25
(irule
PlaceSpecification
p919
(dp920
g28
I1
sbsg29
(irule
Guard
p921
(dp922
g18
I00
sg19
(lp923
(irule
FeatureMatrix
p924
(dp925
g35
(lp926
(I00
g250
tp927
asg22
V[ -tense ]
p928
sbasg21
I00
sg22
g928
sg23
I00
sg24
S'R'
sbsg40
(irule
FeatureMatrix
p929
(dp930
g35
(lp931
(I00
g638
tp932
a(I00
g256
tp933
asg22
V[ -low -vowel ]
p934
sbsg22
V[ -low -vowel ] ---> place1 /  _ [ -tense ]
p935
sba(irule
Rule
p936
(dp937
g15
(irule
Guard
p938
(dp939
g18
I00
sg19
(lp940
(irule
FeatureMatrix
p941
(dp942
g35
(lp943
(I01
g638
tp944
asg22
V[ +low ]
p945
sbasg21
I00
sg22
g945
sg23
I00
sg24
S'L'
sbsg25
(irule
PlaceSpecification
p946
(dp947
g28
I1
sbsg29
(irule
Guard
p948
(dp949
g18
I00
sg19
(lp950
(irule
FeatureMatrix
p951
(dp952
g35
(lp953
(I00
g794
tp954
asg22
V[ -high ]
p955
sbasg21
I00
sg22
g955
sg23
I00
sg24
S'R'
sbsg40
(irule
FeatureMatrix
p956
(dp957
g35
(lp958
sg22
V[  ]
p959
sbsg22
V[  ] ---> place1 / [ +low ] _ [ -high ]
p960
sba(irule
Rule
p961
(dp962
g15
(irule
Guard
p963
(dp964
g18
I00
sg19
(lp965
sg21
I00
sg22
V
sg23
I00
sg24
S'L'
sbsg25
(irule
PlaceSpecification
p966
(dp967
g28
I1
sbsg29
(irule
Guard
p968
(dp969
g18
I00
sg19
(lp970
(irule
FeatureMatrix
p971
(dp972
g35
(lp973
(I00
g250
tp974
asg22
V[ -tense ]
p975
sbasg21
I00
sg22
g975
sg23
I00
sg24
S'R'
sbsg40
(irule
FeatureMatrix
p976
(dp977
g35
(lp978
(I00
g250
tp979
a(I00
g675
tp980
asg22
V[ -sibilant -tense ]
p981
sbsg22
V[ -sibilant -tense ] ---> place1 /  _ [ -tense ]
p982
sba(irule
Rule
p983
(dp984
g15
(irule
Guard
p985
(dp986
g18
I00
sg19
(lp987
sg21
I00
sg22
V
sg23
I00
sg24
S'L'
sbsg25
(irule
PlaceSpecification
p988
(dp989
g28
I1
sbsg29
(irule
Guard
p990
(dp991
g18
I00
sg19
(lp992
(irule
FeatureMatrix
p993
(dp994
g35
(lp995
(I00
g356
tp996
asg22
V[ -sonorant ]
p997
sbasg21
I00
sg22
g997
sg23
I00
sg24
S'R'
sbsg40
(irule
FeatureMatrix
p998
(dp999
g35
(lp1000
(I00
g256
tp1001
a(I00
g675
tp1002
asg22
V[ -sibilant -vowel ]
p1003
sbsg22
V[ -sibilant -vowel ] ---> place1 /  _ [ -sonorant ]
p1004
sba(irule
Rule
p1005
(dp1006
g15
(irule
Guard
p1007
(dp1008
g18
I00
sg19
(lp1009
sg21
I00
sg22
V
sg23
I00
sg24
S'L'
sbsg25
(irule
PlaceSpecification
p1010
(dp1011
g28
I1
sbsg29
(irule
Guard
p1012
(dp1013
g18
I00
sg19
(lp1014
(irule
FeatureMatrix
p1015
(dp1016
g35
(lp1017
(I00
g250
tp1018
asg22
V[ -tense ]
p1019
sbasg21
I00
sg22
g1019
sg23
I00
sg24
S'R'
sbsg40
(irule
FeatureMatrix
p1020
(dp1021
g35
(lp1022
(I00
g256
tp1023
a(I00
g675
tp1024
asg22
V[ -sibilant -vowel ]
p1025
sbsg22
V[ -sibilant -vowel ] ---> place1 /  _ [ -tense ]
p1026
sba(irule
Rule
p1027
(dp1028
g15
(irule
Guard
p1029
(dp1030
g18
I00
sg19
(lp1031
(irule
FeatureMatrix
p1032
(dp1033
g35
(lp1034
sg22
V[  ]
p1035
sbasg21
I00
sg22
g1035
sg23
I00
sg24
S'L'
sbsg25
(irule
PlaceSpecification
p1036
(dp1037
g28
I1
sbsg29
(irule
Guard
p1038
(dp1039
g18
I00
sg19
(lp1040
(irule
FeatureMatrix
p1041
(dp1042
g35
(lp1043
(I00
g250
tp1044
asg22
V[ -tense ]
p1045
sbasg21
I00
sg22
g1045
sg23
I00
sg24
S'R'
sbsg40
(irule
FeatureMatrix
p1046
(dp1047
g35
(lp1048
(I00
g250
tp1049
asg22
V[ -tense ]
p1050
sbsg22
V[ -tense ] ---> place1 / [  ] _ [ -tense ]
p1051
sba(irule
Rule
p1052
(dp1053
g15
(irule
Guard
p1054
(dp1055
g18
I00
sg19
(lp1056
(irule
FeatureMatrix
p1057
(dp1058
g35
(lp1059
sg22
V[  ]
p1060
sbasg21
I00
sg22
g1060
sg23
I00
sg24
S'L'
sbsg25
(irule
PlaceSpecification
p1061
(dp1062
g28
I1
sbsg29
(irule
Guard
p1063
(dp1064
g18
I00
sg19
(lp1065
(irule
FeatureMatrix
p1066
(dp1067
g35
(lp1068
(I00
g250
tp1069
asg22
V[ -tense ]
p1070
sbasg21
I00
sg22
g1070
sg23
I00
sg24
S'R'
sbsg40
(irule
FeatureMatrix
p1071
(dp1072
g35
(lp1073
(I00
g383
tp1074
asg22
V[ -continuant ]
p1075
sbsg22
V[ -continuant ] ---> place1 / [  ] _ [ -tense ]
p1076
sba(irule
Rule
p1077
(dp1078
g15
(irule
Guard
p1079
(dp1080
g18
I00
sg19
(lp1081
(irule
FeatureMatrix
p1082
(dp1083
g35
(lp1084
sg22
V[  ]
p1085
sbasg21
I00
sg22
g1085
sg23
I00
sg24
S'L'
sbsg25
(irule
PlaceSpecification
p1086
(dp1087
g28
I1
sbsg29
(irule
Guard
p1088
(dp1089
g18
I00
sg19
(lp1090
(irule
FeatureMatrix
p1091
(dp1092
g35
(lp1093
(I00
g250
tp1094
asg22
V[ -tense ]
p1095
sbasg21
I00
sg22
g1095
sg23
I00
sg24
S'R'
sbsg40
(irule
FeatureMatrix
p1096
(dp1097
g35
(lp1098
(I01
g339
tp1099
asg22
V[ +nasal ]
p1100
sbsg22
V[ +nasal ] ---> place1 / [  ] _ [ -tense ]
p1101
sba(irule
Rule
p1102
(dp1103
g15
(irule
Guard
p1104
(dp1105
g18
I00
sg19
(lp1106
sg21
I00
sg22
V
sg23
I00
sg24
S'L'
sbsg25
(irule
PlaceSpecification
p1107
(dp1108
g28
I1
sbsg29
(irule
Guard
p1109
(dp1110
g18
I00
sg19
(lp1111
(irule
FeatureMatrix
p1112
(dp1113
g35
(lp1114
(I01
g273
tp1115
asg22
V[ +anterior ]
p1116
sbasg21
I00
sg22
g1116
sg23
I00
sg24
S'R'
sbsg40
(irule
FeatureMatrix
p1117
(dp1118
g35
(lp1119
(I00
g273
tp1120
a(I01
g339
tp1121
asg22
V[ +nasal -anterior ]
p1122
sbsg22
V[ +nasal -anterior ] ---> place1 /  _ [ +anterior ]
p1123
sba(irule
Rule
p1124
(dp1125
g15
(irule
Guard
p1126
(dp1127
g18
I00
sg19
(lp1128
sg21
I00
sg22
V
sg23
I00
sg24
S'L'
sbsg25
(irule
PlaceSpecification
p1129
(dp1130
g28
I1
sbsg29
(irule
Guard
p1131
(dp1132
g18
I00
sg19
(lp1133
(irule
FeatureMatrix
p1134
(dp1135
g35
(lp1136
(I00
g256
tp1137
asg22
V[ -vowel ]
p1138
sbasg21
I00
sg22
g1138
sg23
I00
sg24
S'R'
sbsg40
(irule
FeatureMatrix
p1139
(dp1140
g35
(lp1141
(I00
g256
tp1142
a(I00
g675
tp1143
asg22
V[ -sibilant -vowel ]
p1144
sbsg22
V[ -sibilant -vowel ] ---> place1 /  _ [ -vowel ]
p1145
sba(irule
Rule
p1146
(dp1147
g15
(irule
Guard
p1148
(dp1149
g18
I00
sg19
(lp1150
sg21
I00
sg22
V
sg23
I00
sg24
S'L'
sbsg25
(irule
PlaceSpecification
p1151
(dp1152
g28
I1
sbsg29
(irule
Guard
p1153
(dp1154
g18
I00
sg19
(lp1155
(irule
FeatureMatrix
p1156
(dp1157
g35
(lp1158
(I00
g256
tp1159
asg22
V[ -vowel ]
p1160
sbasg21
I00
sg22
g1160
sg23
I00
sg24
S'R'
sbsg40
(irule
FeatureMatrix
p1161
(dp1162
g35
(lp1163
(I00
g638
tp1164
a(I00
g256
tp1165
asg22
V[ -low -vowel ]
p1166
sbsg22
V[ -low -vowel ] ---> place1 /  _ [ -vowel ]
p1167
sba(irule
Rule
p1168
(dp1169
g15
(irule
Guard
p1170
(dp1171
g18
I00
sg19
(lp1172
(irule
FeatureMatrix
p1173
(dp1174
g35
(lp1175
sg22
V[  ]
p1176
sbasg21
I00
sg22
g1176
sg23
I00
sg24
S'L'
sbsg25
(irule
PlaceSpecification
p1177
(dp1178
g28
I1
sbsg29
(irule
Guard
p1179
(dp1180
g18
I00
sg19
(lp1181
(irule
FeatureMatrix
p1182
(dp1183
g35
(lp1184
(I00
g250
tp1185
asg22
V[ -tense ]
p1186
sbasg21
I00
sg22
g1186
sg23
I00
sg24
S'R'
sbsg40
(irule
ConstantPhoneme
p1187
(dp1188
S'p'
V\u014b
sbsg22
V\u014b ---> place1 / [  ] _ [ -tense ]
p1189
sba(irule
Rule
p1190
(dp1191
g15
(irule
Guard
p1192
(dp1193
g18
I00
sg19
(lp1194
sg21
I00
sg22
V
sg23
I00
sg24
S'L'
sbsg25
(irule
PlaceSpecification
p1195
(dp1196
g28
I1
sbsg29
(irule
Guard
p1197
(dp1198
g18
I00
sg19
(lp1199
(irule
FeatureMatrix
p1200
(dp1201
g35
(lp1202
(I00
g250
tp1203
a(I00
g638
tp1204
asg22
V[ -low -tense ]
p1205
sbasg21
I00
sg22
g1205
sg23
I00
sg24
S'R'
sbsg40
(irule
FeatureMatrix
p1206
(dp1207
g35
(lp1208
(I00
g256
tp1209
asg22
V[ -vowel ]
p1210
sbsg22
V[ -vowel ] ---> place1 /  _ [ -low -tense ]
p1211
sba(irule
Rule
p1212
(dp1213
g15
(irule
Guard
p1214
(dp1215
g18
I00
sg19
(lp1216
sg21
I00
sg22
V
sg23
I00
sg24
S'L'
sbsg25
(irule
PlaceSpecification
p1217
(dp1218
g28
I1
sbsg29
(irule
Guard
p1219
(dp1220
g18
I00
sg19
(lp1221
(irule
FeatureMatrix
p1222
(dp1223
g35
(lp1224
(I00
g250
tp1225
asg22
V[ -tense ]
p1226
sbasg21
I00
sg22
g1226
sg23
I00
sg24
S'R'
sbsg40
(irule
FeatureMatrix
p1227
(dp1228
g35
(lp1229
(I00
g383
tp1230
a(I01
S'back'
p1231
tp1232
asg22
V[ +back -continuant ]
p1233
sbsg22
V[ +back -continuant ] ---> place1 /  _ [ -tense ]
p1234
sba(irule
Rule
p1235
(dp1236
g15
(irule
Guard
p1237
(dp1238
g18
I00
sg19
(lp1239
sg21
I00
sg22
V
sg23
I00
sg24
S'L'
sbsg25
(irule
PlaceSpecification
p1240
(dp1241
g28
I1
sbsg29
(irule
Guard
p1242
(dp1243
g18
I00
sg19
(lp1244
(irule
FeatureMatrix
p1245
(dp1246
g35
(lp1247
(I00
g250
tp1248
asg22
V[ -tense ]
p1249
sbasg21
I00
sg22
g1249
sg23
I00
sg24
S'R'
sbsg40
(irule
FeatureMatrix
p1250
(dp1251
g35
(lp1252
(I00
g250
tp1253
a(I00
g638
tp1254
asg22
V[ -low -tense ]
p1255
sbsg22
V[ -low -tense ] ---> place1 /  _ [ -tense ]
p1256
sba(irule
Rule
p1257
(dp1258
g15
(irule
Guard
p1259
(dp1260
g18
I00
sg19
(lp1261
sg21
I00
sg22
V
sg23
I00
sg24
S'L'
sbsg25
(irule
PlaceSpecification
p1262
(dp1263
g28
I1
sbsg29
(irule
Guard
p1264
(dp1265
g18
I00
sg19
(lp1266
(irule
FeatureMatrix
p1267
(dp1268
g35
(lp1269
(I00
g356
tp1270
asg22
V[ -sonorant ]
p1271
sba(irule
FeatureMatrix
p1272
(dp1273
g35
(lp1274
sg22
V[  ]
p1275
sbasg21
I00
sg22
V[ -sonorant ] [  ]
p1276
sg23
I00
sg24
S'R'
sbsg40
(irule
FeatureMatrix
p1277
(dp1278
g35
(lp1279
(I00
g383
tp1280
asg22
V[ -continuant ]
p1281
sbsg22
V[ -continuant ] ---> place1 /  _ [ -sonorant ] [  ]
p1282
sba(irule
Rule
p1283
(dp1284
g15
(irule
Guard
p1285
(dp1286
g18
I00
sg19
(lp1287
sg21
I00
sg22
V
sg23
I00
sg24
S'L'
sbsg25
(irule
PlaceSpecification
p1288
(dp1289
g28
I1
sbsg29
(irule
Guard
p1290
(dp1291
g18
I00
sg19
(lp1292
(irule
FeatureMatrix
p1293
(dp1294
g35
(lp1295
(I00
g250
tp1296
asg22
V[ -tense ]
p1297
sbasg21
I00
sg22
g1297
sg23
I00
sg24
S'R'
sbsg40
(irule
FeatureMatrix
p1298
(dp1299
g35
(lp1300
(I00
g273
tp1301
a(I01
g339
tp1302
asg22
V[ +nasal -anterior ]
p1303
sbsg22
V[ +nasal -anterior ] ---> place1 /  _ [ -tense ]
p1304
sba(irule
Rule
p1305
(dp1306
g15
(irule
Guard
p1307
(dp1308
g18
I00
sg19
(lp1309
sg21
I00
sg22
V
sg23
I00
sg24
S'L'
sbsg25
(irule
PlaceSpecification
p1310
(dp1311
g28
I1
sbsg29
(irule
Guard
p1312
(dp1313
g18
I00
sg19
(lp1314
(irule
FeatureMatrix
p1315
(dp1316
g35
(lp1317
(I00
g256
tp1318
asg22
V[ -vowel ]
p1319
sbasg21
I00
sg22
g1319
sg23
I00
sg24
S'R'
sbsg40
(irule
FeatureMatrix
p1320
(dp1321
g35
(lp1322
(I00
g250
tp1323
a(I00
g638
tp1324
asg22
V[ -low -tense ]
p1325
sbsg22
V[ -low -tense ] ---> place1 /  _ [ -vowel ]
p1326
sba(irule
Rule
p1327
(dp1328
g15
(irule
Guard
p1329
(dp1330
g18
I00
sg19
(lp1331
sg21
I00
sg22
V
sg23
I00
sg24
S'L'
sbsg25
(irule
PlaceSpecification
p1332
(dp1333
g28
I1
sbsg29
(irule
Guard
p1334
(dp1335
g18
I00
sg19
(lp1336
(irule
FeatureMatrix
p1337
(dp1338
g35
(lp1339
(I01
g273
tp1340
asg22
V[ +anterior ]
p1341
sbasg21
I00
sg22
g1341
sg23
I00
sg24
S'R'
sbsg40
(irule
FeatureMatrix
p1342
(dp1343
g35
(lp1344
(I00
g256
tp1345
a(I01
g818
tp1346
asg22
V[ +voice -vowel ]
p1347
sbsg22
V[ +voice -vowel ] ---> place1 /  _ [ +anterior ]
p1348
sba(irule
Rule
p1349
(dp1350
g15
(irule
Guard
p1351
(dp1352
g18
I00
sg19
(lp1353
(irule
FeatureMatrix
p1354
(dp1355
g35
(lp1356
sg22
V[  ]
p1357
sbasg21
I00
sg22
g1357
sg23
I00
sg24
S'L'
sbsg25
(irule
PlaceSpecification
p1358
(dp1359
g28
I1
sbsg29
(irule
Guard
p1360
(dp1361
g18
I00
sg19
(lp1362
(irule
FeatureMatrix
p1363
(dp1364
g35
(lp1365
(I01
g273
tp1366
asg22
V[ +anterior ]
p1367
sbasg21
I00
sg22
g1367
sg23
I00
sg24
S'R'
sbsg40
(irule
FeatureMatrix
p1368
(dp1369
g35
(lp1370
(I00
g256
tp1371
asg22
V[ -vowel ]
p1372
sbsg22
V[ -vowel ] ---> place1 / [  ] _ [ +anterior ]
p1373
sba(irule
Rule
p1374
(dp1375
g15
(irule
Guard
p1376
(dp1377
g18
I00
sg19
(lp1378
(irule
FeatureMatrix
p1379
(dp1380
g35
(lp1381
sg22
V[  ]
p1382
sbasg21
I00
sg22
g1382
sg23
I00
sg24
S'L'
sbsg25
(irule
PlaceSpecification
p1383
(dp1384
g28
I1
sbsg29
(irule
Guard
p1385
(dp1386
g18
I00
sg19
(lp1387
(irule
FeatureMatrix
p1388
(dp1389
g35
(lp1390
(I00
g256
tp1391
asg22
V[ -vowel ]
p1392
sbasg21
I00
sg22
g1392
sg23
I00
sg24
S'R'
sbsg40
(irule
FeatureMatrix
p1393
(dp1394
g35
(lp1395
(I01
g339
tp1396
asg22
V[ +nasal ]
p1397
sbsg22
V[ +nasal ] ---> place1 / [  ] _ [ -vowel ]
p1398
sba(irule
Rule
p1399
(dp1400
g15
(irule
Guard
p1401
(dp1402
g18
I00
sg19
(lp1403
sg21
I00
sg22
V
sg23
I00
sg24
S'L'
sbsg25
(irule
PlaceSpecification
p1404
(dp1405
g28
I1
sbsg29
(irule
Guard
p1406
(dp1407
g18
I00
sg19
(lp1408
(irule
FeatureMatrix
p1409
(dp1410
g35
(lp1411
(I00
g256
tp1412
asg22
V[ -vowel ]
p1413
sba(irule
FeatureMatrix
p1414
(dp1415
g35
(lp1416
sg22
V[  ]
p1417
sbasg21
I00
sg22
V[ -vowel ] [  ]
p1418
sg23
I00
sg24
S'R'
sbsg40
(irule
FeatureMatrix
p1419
(dp1420
g35
(lp1421
(I00
g256
tp1422
asg22
V[ -vowel ]
p1423
sbsg22
V[ -vowel ] ---> place1 /  _ [ -vowel ] [  ]
p1424
sba(irule
Rule
p1425
(dp1426
g15
(irule
Guard
p1427
(dp1428
g18
I00
sg19
(lp1429
(irule
FeatureMatrix
p1430
(dp1431
g35
(lp1432
sg22
V[  ]
p1433
sbasg21
I00
sg22
g1433
sg23
I00
sg24
S'L'
sbsg25
(irule
PlaceSpecification
p1434
(dp1435
g28
I1
sbsg29
(irule
Guard
p1436
(dp1437
g18
I00
sg19
(lp1438
(irule
FeatureMatrix
p1439
(dp1440
g35
(lp1441
(I01
g273
tp1442
asg22
V[ +anterior ]
p1443
sbasg21
I00
sg22
g1443
sg23
I00
sg24
S'R'
sbsg40
(irule
FeatureMatrix
p1444
(dp1445
g35
(lp1446
(I01
g339
tp1447
asg22
V[ +nasal ]
p1448
sbsg22
V[ +nasal ] ---> place1 / [  ] _ [ +anterior ]
p1449
sba(irule
Rule
p1450
(dp1451
g15
(irule
Guard
p1452
(dp1453
g18
I00
sg19
(lp1454
(irule
FeatureMatrix
p1455
(dp1456
g35
(lp1457
sg22
V[  ]
p1458
sbasg21
I00
sg22
g1458
sg23
I00
sg24
S'L'
sbsg25
(irule
PlaceSpecification
p1459
(dp1460
g28
I1
sbsg29
(irule
Guard
p1461
(dp1462
g18
I00
sg19
(lp1463
(irule
FeatureMatrix
p1464
(dp1465
g35
(lp1466
(I01
g273
tp1467
asg22
V[ +anterior ]
p1468
sbasg21
I00
sg22
g1468
sg23
I00
sg24
S'R'
sbsg40
(irule
FeatureMatrix
p1469
(dp1470
g35
(lp1471
(I00
g383
tp1472
asg22
V[ -continuant ]
p1473
sbsg22
V[ -continuant ] ---> place1 / [  ] _ [ +anterior ]
p1474
sba(irule
Rule
p1475
(dp1476
g15
(irule
Guard
p1477
(dp1478
g18
I00
sg19
(lp1479
(irule
FeatureMatrix
p1480
(dp1481
g35
(lp1482
sg22
V[  ]
p1483
sbasg21
I00
sg22
g1483
sg23
I00
sg24
S'L'
sbsg25
(irule
PlaceSpecification
p1484
(dp1485
g28
I1
sbsg29
(irule
Guard
p1486
(dp1487
g18
I00
sg19
(lp1488
(irule
FeatureMatrix
p1489
(dp1490
g35
(lp1491
(I00
g356
tp1492
asg22
V[ -sonorant ]
p1493
sbasg21
I00
sg22
g1493
sg23
I00
sg24
S'R'
sbsg40
(irule
FeatureMatrix
p1494
(dp1495
g35
(lp1496
(I00
g256
tp1497
asg22
V[ -vowel ]
p1498
sbsg22
V[ -vowel ] ---> place1 / [  ] _ [ -sonorant ]
p1499
sba(irule
Rule
p1500
(dp1501
g15
(irule
Guard
p1502
(dp1503
g18
I00
sg19
(lp1504
(irule
FeatureMatrix
p1505
(dp1506
g35
(lp1507
sg22
V[  ]
p1508
sbasg21
I00
sg22
g1508
sg23
I00
sg24
S'L'
sbsg25
(irule
PlaceSpecification
p1509
(dp1510
g28
I1
sbsg29
(irule
Guard
p1511
(dp1512
g18
I00
sg19
(lp1513
(irule
FeatureMatrix
p1514
(dp1515
g35
(lp1516
(I00
g256
tp1517
asg22
V[ -vowel ]
p1518
sbasg21
I00
sg22
g1518
sg23
I00
sg24
S'R'
sbsg40
(irule
FeatureMatrix
p1519
(dp1520
g35
(lp1521
(I00
g256
tp1522
asg22
V[ -vowel ]
p1523
sbsg22
V[ -vowel ] ---> place1 / [  ] _ [ -vowel ]
p1524
sba(irule
Rule
p1525
(dp1526
g15
(irule
Guard
p1527
(dp1528
g18
I00
sg19
(lp1529
sg21
I00
sg22
V
sg23
I00
sg24
S'L'
sbsg25
(irule
PlaceSpecification
p1530
(dp1531
g28
I1
sbsg29
(irule
Guard
p1532
(dp1533
g18
I00
sg19
(lp1534
(irule
FeatureMatrix
p1535
(dp1536
g35
(lp1537
(I00
g356
tp1538
asg22
V[ -sonorant ]
p1539
sbasg21
I00
sg22
g1539
sg23
I00
sg24
S'R'
sbsg40
(irule
FeatureMatrix
p1540
(dp1541
g35
(lp1542
(I00
g256
tp1543
a(I01
g818
tp1544
asg22
V[ +voice -vowel ]
p1545
sbsg22
V[ +voice -vowel ] ---> place1 /  _ [ -sonorant ]
p1546
sba(irule
Rule
p1547
(dp1548
g15
(irule
Guard
p1549
(dp1550
g18
I00
sg19
(lp1551
(irule
FeatureMatrix
p1552
(dp1553
g35
(lp1554
sg22
V[  ]
p1555
sbasg21
I00
sg22
g1555
sg23
I00
sg24
S'L'
sbsg25
(irule
PlaceSpecification
p1556
(dp1557
g28
I1
sbsg29
(irule
Guard
p1558
(dp1559
g18
I00
sg19
(lp1560
(irule
FeatureMatrix
p1561
(dp1562
g35
(lp1563
(I00
g256
tp1564
asg22
V[ -vowel ]
p1565
sbasg21
I00
sg22
g1565
sg23
I00
sg24
S'R'
sbsg40
(irule
FeatureMatrix
p1566
(dp1567
g35
(lp1568
(I00
g383
tp1569
asg22
V[ -continuant ]
p1570
sbsg22
V[ -continuant ] ---> place1 / [  ] _ [ -vowel ]
p1571
sba(irule
Rule
p1572
(dp1573
g15
(irule
Guard
p1574
(dp1575
g18
I00
sg19
(lp1576
sg21
I00
sg22
V
sg23
I00
sg24
S'L'
sbsg25
(irule
PlaceSpecification
p1577
(dp1578
g28
I1
sbsg29
(irule
Guard
p1579
(dp1580
g18
I00
sg19
(lp1581
(irule
FeatureMatrix
p1582
(dp1583
g35
(lp1584
(I01
g273
tp1585
asg22
V[ +anterior ]
p1586
sbasg21
I00
sg22
g1586
sg23
I00
sg24
S'R'
sbsg40
(irule
FeatureMatrix
p1587
(dp1588
g35
(lp1589
(I00
g250
tp1590
a(I00
g638
tp1591
asg22
V[ -low -tense ]
p1592
sbsg22
V[ -low -tense ] ---> place1 /  _ [ +anterior ]
p1593
sba(irule
Rule
p1594
(dp1595
g15
(irule
Guard
p1596
(dp1597
g18
I00
sg19
(lp1598
(irule
ConstantPhoneme
p1599
(dp1600
S'p'
Va
sbasg21
I00
sg22
Va
sg23
I00
sg24
S'L'
sbsg25
(irule
PlaceSpecification
p1601
(dp1602
g28
I1
sbsg29
(irule
Guard
p1603
(dp1604
g18
I00
sg19
(lp1605
(irule
FeatureMatrix
p1606
(dp1607
g35
(lp1608
(I01
g273
tp1609
asg22
V[ +anterior ]
p1610
sbasg21
I00
sg22
g1610
sg23
I00
sg24
S'R'
sbsg40
(irule
FeatureMatrix
p1611
(dp1612
g35
(lp1613
sg22
V[  ]
p1614
sbsg22
V[  ] ---> place1 / a _ [ +anterior ]
p1615
sba(irule
Rule
p1616
(dp1617
g15
(irule
Guard
p1618
(dp1619
g18
I00
sg19
(lp1620
(irule
FeatureMatrix
p1621
(dp1622
g35
(lp1623
sg22
V[  ]
p1624
sbasg21
I00
sg22
g1624
sg23
I00
sg24
S'L'
sbsg25
(irule
PlaceSpecification
p1625
(dp1626
g28
I1
sbsg29
(irule
Guard
p1627
(dp1628
g18
I00
sg19
(lp1629
(irule
FeatureMatrix
p1630
(dp1631
g35
(lp1632
(I01
g273
tp1633
asg22
V[ +anterior ]
p1634
sbasg21
I00
sg22
g1634
sg23
I00
sg24
S'R'
sbsg40
(irule
FeatureMatrix
p1635
(dp1636
g35
(lp1637
(I00
g250
tp1638
asg22
V[ -tense ]
p1639
sbsg22
V[ -tense ] ---> place1 / [  ] _ [ +anterior ]
p1640
sba(irule
Rule
p1641
(dp1642
g15
(irule
Guard
p1643
(dp1644
g18
I00
sg19
(lp1645
sg21
I00
sg22
V
sg23
I00
sg24
S'L'
sbsg25
(irule
PlaceSpecification
p1646
(dp1647
g28
I1
sbsg29
(irule
Guard
p1648
(dp1649
g18
I00
sg19
(lp1650
(irule
FeatureMatrix
p1651
(dp1652
g35
(lp1653
(I00
g250
tp1654
asg22
V[ -tense ]
p1655
sbasg21
I00
sg22
g1655
sg23
I00
sg24
S'R'
sbsg40
(irule
FeatureMatrix
p1656
(dp1657
g35
(lp1658
(I00
g383
tp1659
a(I00
S'coronal'
p1660
tp1661
asg22
V[ -continuant -coronal ]
p1662
sbsg22
V[ -continuant -coronal ] ---> place1 /  _ [ -tense ]
p1663
sba(irule
Rule
p1664
(dp1665
g15
(irule
Guard
p1666
(dp1667
g18
I00
sg19
(lp1668
sg21
I00
sg22
V
sg23
I00
sg24
S'L'
sbsg25
(irule
PlaceSpecification
p1669
(dp1670
g28
I1
sbsg29
(irule
Guard
p1671
(dp1672
g18
I00
sg19
(lp1673
(irule
FeatureMatrix
p1674
(dp1675
g35
(lp1676
(I00
g256
tp1677
asg22
V[ -vowel ]
p1678
sbasg21
I00
sg22
g1678
sg23
I00
sg24
S'R'
sbsg40
(irule
FeatureMatrix
p1679
(dp1680
g35
(lp1681
(I00
g256
tp1682
a(I01
g818
tp1683
asg22
V[ +voice -vowel ]
p1684
sbsg22
V[ +voice -vowel ] ---> place1 /  _ [ -vowel ]
p1685
sba(irule
Rule
p1686
(dp1687
g15
(irule
Guard
p1688
(dp1689
g18
I00
sg19
(lp1690
sg21
I00
sg22
V
sg23
I00
sg24
S'L'
sbsg25
(irule
PlaceSpecification
p1691
(dp1692
g28
I1
sbsg29
(irule
Guard
p1693
(dp1694
g18
I00
sg19
(lp1695
(irule
FeatureMatrix
p1696
(dp1697
g35
(lp1698
(I00
g250
tp1699
asg22
V[ -tense ]
p1700
sba(irule
FeatureMatrix
p1701
(dp1702
g35
(lp1703
sg22
V[  ]
p1704
sbasg21
I00
sg22
V[ -tense ] [  ]
p1705
sg23
I00
sg24
S'R'
sbsg40
(irule
ConstantPhoneme
p1706
(dp1707
S'p'
V\u014b
sbsg22
V\u014b ---> place1 /  _ [ -tense ] [  ]
p1708
sba(irule
Rule
p1709
(dp1710
g15
(irule
Guard
p1711
(dp1712
g18
I00
sg19
(lp1713
(irule
FeatureMatrix
p1714
(dp1715
g35
(lp1716
(I01
g638
tp1717
asg22
V[ +low ]
p1718
sbasg21
I00
sg22
g1718
sg23
I00
sg24
S'L'
sbsg25
(irule
PlaceSpecification
p1719
(dp1720
g28
I1
sbsg29
(irule
Guard
p1721
(dp1722
g18
I00
sg19
(lp1723
(irule
FeatureMatrix
p1724
(dp1725
g35
(lp1726
(I00
g356
tp1727
asg22
V[ -sonorant ]
p1728
sbasg21
I00
sg22
g1728
sg23
I00
sg24
S'R'
sbsg40
(irule
FeatureMatrix
p1729
(dp1730
g35
(lp1731
sg22
V[  ]
p1732
sbsg22
V[  ] ---> place1 / [ +low ] _ [ -sonorant ]
p1733
sba(irule
Rule
p1734
(dp1735
g15
(irule
Guard
p1736
(dp1737
g18
I00
sg19
(lp1738
sg21
I00
sg22
V
sg23
I00
sg24
S'L'
sbsg25
(irule
PlaceSpecification
p1739
(dp1740
g28
I1
sbsg29
(irule
Guard
p1741
(dp1742
g18
I00
sg19
(lp1743
(irule
FeatureMatrix
p1744
(dp1745
g35
(lp1746
(I00
g250
tp1747
asg22
V[ -tense ]
p1748
sbasg21
I00
sg22
g1748
sg23
I00
sg24
S'R'
sbsg40
(irule
FeatureMatrix
p1749
(dp1750
g35
(lp1751
(I00
g383
tp1752
a(I00
g675
tp1753
asg22
V[ -continuant -sibilant ]
p1754
sbsg22
V[ -continuant -sibilant ] ---> place1 /  _ [ -tense ]
p1755
sba(irule
Rule
p1756
(dp1757
g15
(irule
Guard
p1758
(dp1759
g18
I00
sg19
(lp1760
sg21
I00
sg22
V
sg23
I00
sg24
S'L'
sbsg25
(irule
PlaceSpecification
p1761
(dp1762
g28
I1
sbsg29
(irule
Guard
p1763
(dp1764
g18
I00
sg19
(lp1765
(irule
FeatureMatrix
p1766
(dp1767
g35
(lp1768
(I00
g250
tp1769
asg22
V[ -tense ]
p1770
sbasg21
I00
sg22
g1770
sg23
I00
sg24
S'R'
sbsg40
(irule
FeatureMatrix
p1771
(dp1772
g35
(lp1773
(I01
g794
tp1774
a(I00
g250
tp1775
asg22
V[ +high -tense ]
p1776
sbsg22
V[ +high -tense ] ---> place1 /  _ [ -tense ]
p1777
sba(irule
Rule
p1778
(dp1779
g15
(irule
Guard
p1780
(dp1781
g18
I00
sg19
(lp1782
(irule
ConstantPhoneme
p1783
(dp1784
S'p'
Va
sbasg21
I00
sg22
Va
sg23
I00
sg24
S'L'
sbsg25
(irule
PlaceSpecification
p1785
(dp1786
g28
I1
sbsg29
(irule
Guard
p1787
(dp1788
g18
I00
sg19
(lp1789
(irule
FeatureMatrix
p1790
(dp1791
g35
(lp1792
(I00
g794
tp1793
asg22
V[ -high ]
p1794
sbasg21
I00
sg22
g1794
sg23
I00
sg24
S'R'
sbsg40
(irule
FeatureMatrix
p1795
(dp1796
g35
(lp1797
sg22
V[  ]
p1798
sbsg22
V[  ] ---> place1 / a _ [ -high ]
p1799
sba(irule
Rule
p1800
(dp1801
g15
(irule
Guard
p1802
(dp1803
g18
I00
sg19
(lp1804
(irule
FeatureMatrix
p1805
(dp1806
g35
(lp1807
sg22
V[  ]
p1808
sbasg21
I00
sg22
g1808
sg23
I00
sg24
S'L'
sbsg25
(irule
PlaceSpecification
p1809
(dp1810
g28
I1
sbsg29
(irule
Guard
p1811
(dp1812
g18
I00
sg19
(lp1813
(irule
FeatureMatrix
p1814
(dp1815
g35
(lp1816
(I00
g356
tp1817
asg22
V[ -sonorant ]
p1818
sbasg21
I00
sg22
g1818
sg23
I00
sg24
S'R'
sbsg40
(irule
FeatureMatrix
p1819
(dp1820
g35
(lp1821
(I01
g339
tp1822
asg22
V[ +nasal ]
p1823
sbsg22
V[ +nasal ] ---> place1 / [  ] _ [ -sonorant ]
p1824
sba(irule
Rule
p1825
(dp1826
g15
(irule
Guard
p1827
(dp1828
g18
I00
sg19
(lp1829
(irule
FeatureMatrix
p1830
(dp1831
g35
(lp1832
sg22
V[  ]
p1833
sbasg21
I00
sg22
g1833
sg23
I00
sg24
S'L'
sbsg25
(irule
PlaceSpecification
p1834
(dp1835
g28
I1
sbsg29
(irule
Guard
p1836
(dp1837
g18
I00
sg19
(lp1838
(irule
FeatureMatrix
p1839
(dp1840
g35
(lp1841
(I00
g256
tp1842
asg22
V[ -vowel ]
p1843
sbasg21
I00
sg22
g1843
sg23
I00
sg24
S'R'
sbsg40
(irule
FeatureMatrix
p1844
(dp1845
g35
(lp1846
(I00
g250
tp1847
asg22
V[ -tense ]
p1848
sbsg22
V[ -tense ] ---> place1 / [  ] _ [ -vowel ]
p1849
sba(irule
Rule
p1850
(dp1851
g15
(irule
Guard
p1852
(dp1853
g18
I00
sg19
(lp1854
sg21
I00
sg22
V
sg23
I00
sg24
S'L'
sbsg25
(irule
PlaceSpecification
p1855
(dp1856
g28
I1
sbsg29
(irule
Guard
p1857
(dp1858
g18
I00
sg19
(lp1859
(irule
FeatureMatrix
p1860
(dp1861
g35
(lp1862
(I00
g250
tp1863
asg22
V[ -tense ]
p1864
sbasg21
I00
sg22
g1864
sg23
I00
sg24
S'R'
sbsg40
(irule
FeatureMatrix
p1865
(dp1866
g35
(lp1867
(I00
g1660
tp1868
a(I00
g256
tp1869
asg22
V[ -coronal -vowel ]
p1870
sbsg22
V[ -coronal -vowel ] ---> place1 /  _ [ -tense ]
p1871
sba(irule
Rule
p1872
(dp1873
g15
(irule
Guard
p1874
(dp1875
g18
I00
sg19
(lp1876
(irule
FeatureMatrix
p1877
(dp1878
g35
(lp1879
sg22
V[  ]
p1880
sbasg21
I00
sg22
g1880
sg23
I00
sg24
S'L'
sbsg25
(irule
PlaceSpecification
p1881
(dp1882
g28
I1
sbsg29
(irule
Guard
p1883
(dp1884
g18
I00
sg19
(lp1885
(irule
FeatureMatrix
p1886
(dp1887
g35
(lp1888
(I00
g256
tp1889
asg22
V[ -vowel ]
p1890
sbasg21
I00
sg22
g1890
sg23
I00
sg24
S'R'
sbsg40
(irule
ConstantPhoneme
p1891
(dp1892
S'p'
V\u014b
sbsg22
V\u014b ---> place1 / [  ] _ [ -vowel ]
p1893
sba(irule
Rule
p1894
(dp1895
g15
(irule
Guard
p1896
(dp1897
g18
I00
sg19
(lp1898
sg21
I00
sg22
V
sg23
I00
sg24
S'L'
sbsg25
(irule
PlaceSpecification
p1899
(dp1900
g28
I1
sbsg29
(irule
Guard
p1901
(dp1902
g18
I00
sg19
(lp1903
(irule
FeatureMatrix
p1904
(dp1905
g35
(lp1906
(I01
g273
tp1907
asg22
V[ +anterior ]
p1908
sba(irule
FeatureMatrix
p1909
(dp1910
g35
(lp1911
sg22
V[  ]
p1912
sbasg21
I00
sg22
V[ +anterior ] [  ]
p1913
sg23
I00
sg24
S'R'
sbsg40
(irule
FeatureMatrix
p1914
(dp1915
g35
(lp1916
(I01
g339
tp1917
asg22
V[ +nasal ]
p1918
sbsg22
V[ +nasal ] ---> place1 /  _ [ +anterior ] [  ]
p1919
sba(irule
Rule
p1920
(dp1921
g15
(irule
Guard
p1922
(dp1923
g18
I00
sg19
(lp1924
sg21
I00
sg22
V
sg23
I00
sg24
S'L'
sbsg25
(irule
PlaceSpecification
p1925
(dp1926
g28
I1
sbsg29
(irule
Guard
p1927
(dp1928
g18
I00
sg19
(lp1929
(irule
FeatureMatrix
p1930
(dp1931
g35
(lp1932
(I00
g250
tp1933
asg22
V[ -tense ]
p1934
sbasg21
I00
sg22
g1934
sg23
I00
sg24
S'R'
sbsg40
(irule
FeatureMatrix
p1935
(dp1936
g35
(lp1937
(I00
g250
tp1938
a(I00
g256
tp1939
asg22
V[ -tense -vowel ]
p1940
sbsg22
V[ -tense -vowel ] ---> place1 /  _ [ -tense ]
p1941
sba(irule
Rule
p1942
(dp1943
g15
(irule
Guard
p1944
(dp1945
g18
I00
sg19
(lp1946
sg21
I00
sg22
V
sg23
I00
sg24
S'L'
sbsg25
(irule
PlaceSpecification
p1947
(dp1948
g28
I1
sbsg29
(irule
Guard
p1949
(dp1950
g18
I00
sg19
(lp1951
(irule
FeatureMatrix
p1952
(dp1953
g35
(lp1954
(I00
S'rounded'
p1955
tp1956
a(I00
g250
tp1957
asg22
V[ -rounded -tense ]
p1958
sbasg21
I00
sg22
g1958
sg23
I00
sg24
S'R'
sbsg40
(irule
FeatureMatrix
p1959
(dp1960
g35
(lp1961
(I00
g256
tp1962
asg22
V[ -vowel ]
p1963
sbsg22
V[ -vowel ] ---> place1 /  _ [ -rounded -tense ]
p1964
sba(irule
Rule
p1965
(dp1966
g15
(irule
Guard
p1967
(dp1968
g18
I00
sg19
(lp1969
(irule
FeatureMatrix
p1970
(dp1971
g35
(lp1972
sg22
V[  ]
p1973
sbasg21
I00
sg22
g1973
sg23
I00
sg24
S'L'
sbsg25
(irule
PlaceSpecification
p1974
(dp1975
g28
I1
sbsg29
(irule
Guard
p1976
(dp1977
g18
I00
sg19
(lp1978
(irule
FeatureMatrix
p1979
(dp1980
g35
(lp1981
(I01
g273
tp1982
asg22
V[ +anterior ]
p1983
sbasg21
I00
sg22
g1983
sg23
I00
sg24
S'R'
sbsg40
(irule
ConstantPhoneme
p1984
(dp1985
S'p'
V\u014b
sbsg22
V\u014b ---> place1 / [  ] _ [ +anterior ]
p1986
sba(irule
Rule
p1987
(dp1988
g15
(irule
Guard
p1989
(dp1990
g18
I00
sg19
(lp1991
sg21
I00
sg22
V
sg23
I00
sg24
S'L'
sbsg25
(irule
PlaceSpecification
p1992
(dp1993
g28
I1
sbsg29
(irule
Guard
p1994
(dp1995
g18
I00
sg19
(lp1996
(irule
FeatureMatrix
p1997
(dp1998
g35
(lp1999
(I00
g356
tp2000
asg22
V[ -sonorant ]
p2001
sba(irule
FeatureMatrix
p2002
(dp2003
g35
(lp2004
sg22
V[  ]
p2005
sbasg21
I00
sg22
V[ -sonorant ] [  ]
p2006
sg23
I00
sg24
S'R'
sbsg40
(irule
FeatureMatrix
p2007
(dp2008
g35
(lp2009
(I01
g339
tp2010
asg22
V[ +nasal ]
p2011
sbsg22
V[ +nasal ] ---> place1 /  _ [ -sonorant ] [  ]
p2012
sba(irule
Rule
p2013
(dp2014
g15
(irule
Guard
p2015
(dp2016
g18
I00
sg19
(lp2017
sg21
I00
sg22
V
sg23
I00
sg24
S'L'
sbsg25
(irule
PlaceSpecification
p2018
(dp2019
g28
I1
sbsg29
(irule
Guard
p2020
(dp2021
g18
I00
sg19
(lp2022
(irule
FeatureMatrix
p2023
(dp2024
g35
(lp2025
(I00
g256
tp2026
asg22
V[ -vowel ]
p2027
sba(irule
FeatureMatrix
p2028
(dp2029
g35
(lp2030
sg22
V[  ]
p2031
sbasg21
I00
sg22
V[ -vowel ] [  ]
p2032
sg23
I00
sg24
S'R'
sbsg40
(irule
ConstantPhoneme
p2033
(dp2034
S'p'
V\u014b
sbsg22
V\u014b ---> place1 /  _ [ -vowel ] [  ]
p2035
sba(irule
Rule
p2036
(dp2037
g15
(irule
Guard
p2038
(dp2039
g18
I00
sg19
(lp2040
(irule
FeatureMatrix
p2041
(dp2042
g35
(lp2043
sg22
V[  ]
p2044
sbasg21
I00
sg22
g2044
sg23
I00
sg24
S'L'
sbsg25
(irule
PlaceSpecification
p2045
(dp2046
g28
I1
sbsg29
(irule
Guard
p2047
(dp2048
g18
I00
sg19
(lp2049
(irule
FeatureMatrix
p2050
(dp2051
g35
(lp2052
(I00
g356
tp2053
asg22
V[ -sonorant ]
p2054
sbasg21
I00
sg22
g2054
sg23
I00
sg24
S'R'
sbsg40
(irule
FeatureMatrix
p2055
(dp2056
g35
(lp2057
(I00
g383
tp2058
asg22
V[ -continuant ]
p2059
sbsg22
V[ -continuant ] ---> place1 / [  ] _ [ -sonorant ]
p2060
sba(irule
Rule
p2061
(dp2062
g15
(irule
Guard
p2063
(dp2064
g18
I00
sg19
(lp2065
(irule
FeatureMatrix
p2066
(dp2067
g35
(lp2068
sg22
V[  ]
p2069
sbasg21
I00
sg22
g2069
sg23
I00
sg24
S'L'
sbsg25
(irule
PlaceSpecification
p2070
(dp2071
g28
I1
sbsg29
(irule
Guard
p2072
(dp2073
g18
I00
sg19
(lp2074
(irule
FeatureMatrix
p2075
(dp2076
g35
(lp2077
(I00
g356
tp2078
asg22
V[ -sonorant ]
p2079
sbasg21
I00
sg22
g2079
sg23
I00
sg24
S'R'
sbsg40
(irule
ConstantPhoneme
p2080
(dp2081
S'p'
V\u014b
sbsg22
V\u014b ---> place1 / [  ] _ [ -sonorant ]
p2082
sba(irule
Rule
p2083
(dp2084
g15
(irule
Guard
p2085
(dp2086
g18
I00
sg19
(lp2087
(irule
FeatureMatrix
p2088
(dp2089
g35
(lp2090
sg22
V[  ]
p2091
sbasg21
I00
sg22
g2091
sg23
I00
sg24
S'L'
sbsg25
(irule
PlaceSpecification
p2092
(dp2093
g28
I1
sbsg29
(irule
Guard
p2094
(dp2095
g18
I00
sg19
(lp2096
(irule
FeatureMatrix
p2097
(dp2098
g35
(lp2099
(I00
g356
tp2100
asg22
V[ -sonorant ]
p2101
sbasg21
I00
sg22
g2101
sg23
I00
sg24
S'R'
sbsg40
(irule
FeatureMatrix
p2102
(dp2103
g35
(lp2104
(I00
g250
tp2105
asg22
V[ -tense ]
p2106
sbsg22
V[ -tense ] ---> place1 / [  ] _ [ -sonorant ]
p2107
sba(irule
Rule
p2108
(dp2109
g15
(irule
Guard
p2110
(dp2111
g18
I00
sg19
(lp2112
sg21
I00
sg22
V
sg23
I00
sg24
S'L'
sbsg25
(irule
PlaceSpecification
p2113
(dp2114
g28
I1
sbsg29
(irule
Guard
p2115
(dp2116
g18
I00
sg19
(lp2117
(irule
FeatureMatrix
p2118
(dp2119
g35
(lp2120
(I00
g356
tp2121
asg22
V[ -sonorant ]
p2122
sbasg21
I00
sg22
g2122
sg23
I00
sg24
S'R'
sbsg40
(irule
FeatureMatrix
p2123
(dp2124
g35
(lp2125
(I01
g1231
tp2126
a(I01
g794
tp2127
asg22
V[ +back +high ]
p2128
sbsg22
V[ +back +high ] ---> place1 /  _ [ -sonorant ]
p2129
sba(irule
Rule
p2130
(dp2131
g15
(irule
Guard
p2132
(dp2133
g18
I00
sg19
(lp2134
sg21
I00
sg22
V
sg23
I00
sg24
S'L'
sbsg25
(irule
PlaceSpecification
p2135
(dp2136
g28
I1
sbsg29
(irule
Guard
p2137
(dp2138
g18
I00
sg19
(lp2139
(irule
FeatureMatrix
p2140
(dp2141
g35
(lp2142
(I00
g250
tp2143
asg22
V[ -tense ]
p2144
sbasg21
I00
sg22
g2144
sg23
I00
sg24
S'R'
sbsg40
(irule
FeatureMatrix
p2145
(dp2146
g35
(lp2147
(I00
g250
tp2148
a(I01
g818
tp2149
asg22
V[ +voice -tense ]
p2150
sbsg22
V[ +voice -tense ] ---> place1 /  _ [ -tense ]
p2151
sba(irule
Rule
p2152
(dp2153
g15
(irule
Guard
p2154
(dp2155
g18
I00
sg19
(lp2156
sg21
I00
sg22
V
sg23
I00
sg24
S'L'
sbsg25
(irule
PlaceSpecification
p2157
(dp2158
g28
I1
sbsg29
(irule
Guard
p2159
(dp2160
g18
I00
sg19
(lp2161
(irule
FeatureMatrix
p2162
(dp2163
g35
(lp2164
(I00
g250
tp2165
a(I00
g638
tp2166
asg22
V[ -low -tense ]
p2167
sbasg21
I00
sg22
g2167
sg23
I00
sg24
S'R'
sbsg40
(irule
FeatureMatrix
p2168
(dp2169
g35
(lp2170
(I01
g339
tp2171
asg22
V[ +nasal ]
p2172
sbsg22
V[ +nasal ] ---> place1 /  _ [ -low -tense ]
p2173
sba(irule
Rule
p2174
(dp2175
g15
(irule
Guard
p2176
(dp2177
g18
I00
sg19
(lp2178
sg21
I00
sg22
V
sg23
I00
sg24
S'L'
sbsg25
(irule
PlaceSpecification
p2179
(dp2180
g28
I1
sbsg29
(irule
Guard
p2181
(dp2182
g18
I00
sg19
(lp2183
(irule
FeatureMatrix
p2184
(dp2185
g35
(lp2186
(I00
g250
tp2187
a(I00
g638
tp2188
asg22
V[ -low -tense ]
p2189
sbasg21
I00
sg22
g2189
sg23
I00
sg24
S'R'
sbsg40
(irule
FeatureMatrix
p2190
(dp2191
g35
(lp2192
(I00
g250
tp2193
asg22
V[ -tense ]
p2194
sbsg22
V[ -tense ] ---> place1 /  _ [ -low -tense ]
p2195
sba(irule
Rule
p2196
(dp2197
g15
(irule
Guard
p2198
(dp2199
g18
I00
sg19
(lp2200
sg21
I00
sg22
V
sg23
I00
sg24
S'L'
sbsg25
(irule
PlaceSpecification
p2201
(dp2202
g28
I1
sbsg29
(irule
Guard
p2203
(dp2204
g18
I00
sg19
(lp2205
(irule
FeatureMatrix
p2206
(dp2207
g35
(lp2208
(I00
g356
tp2209
asg22
V[ -sonorant ]
p2210
sbasg21
I00
sg22
g2210
sg23
I00
sg24
S'R'
sbsg40
(irule
FeatureMatrix
p2211
(dp2212
g35
(lp2213
(I00
g273
tp2214
a(I01
g339
tp2215
asg22
V[ +nasal -anterior ]
p2216
sbsg22
V[ +nasal -anterior ] ---> place1 /  _ [ -sonorant ]
p2217
sba(irule
Rule
p2218
(dp2219
g15
(irule
Guard
p2220
(dp2221
g18
I00
sg19
(lp2222
sg21
I00
sg22
V
sg23
I00
sg24
S'L'
sbsg25
(irule
PlaceSpecification
p2223
(dp2224
g28
I1
sbsg29
(irule
Guard
p2225
(dp2226
g18
I00
sg19
(lp2227
(irule
FeatureMatrix
p2228
(dp2229
g35
(lp2230
(I00
g250
tp2231
asg22
V[ -tense ]
p2232
sbasg21
I00
sg22
g2232
sg23
I00
sg24
S'R'
sbsg40
(irule
FeatureMatrix
p2233
(dp2234
g35
(lp2235
(I01
g339
tp2236
a(I01
g818
tp2237
asg22
V[ +nasal +voice ]
p2238
sbsg22
V[ +nasal +voice ] ---> place1 /  _ [ -tense ]
p2239
sba(irule
Rule
p2240
(dp2241
g15
(irule
Guard
p2242
(dp2243
g18
I00
sg19
(lp2244
sg21
I00
sg22
V
sg23
I00
sg24
S'L'
sbsg25
(irule
PlaceSpecification
p2245
(dp2246
g28
I1
sbsg29
(irule
Guard
p2247
(dp2248
g18
I00
sg19
(lp2249
(irule
FeatureMatrix
p2250
(dp2251
g35
(lp2252
(I00
g250
tp2253
asg22
V[ -tense ]
p2254
sbasg21
I00
sg22
g2254
sg23
I00
sg24
S'R'
sbsg40
(irule
FeatureMatrix
p2255
(dp2256
g35
(lp2257
(I00
g1955
tp2258
a(I00
g256
tp2259
asg22
V[ -rounded -vowel ]
p2260
sbsg22
V[ -rounded -vowel ] ---> place1 /  _ [ -tense ]
p2261
sba(irule
Rule
p2262
(dp2263
g15
(irule
Guard
p2264
(dp2265
g18
I00
sg19
(lp2266
sg21
I00
sg22
V
sg23
I00
sg24
S'L'
sbsg25
(irule
PlaceSpecification
p2267
(dp2268
g28
I1
sbsg29
(irule
Guard
p2269
(dp2270
g18
I00
sg19
(lp2271
(irule
FeatureMatrix
p2272
(dp2273
g35
(lp2274
(I00
g256
tp2275
asg22
V[ -vowel ]
p2276
sbasg21
I00
sg22
g2276
sg23
I00
sg24
S'R'
sbsg40
(irule
FeatureMatrix
p2277
(dp2278
g35
(lp2279
(I01
g794
tp2280
a(I00
g256
tp2281
asg22
V[ +high -vowel ]
p2282
sbsg22
V[ +high -vowel ] ---> place1 /  _ [ -vowel ]
p2283
sba(irule
Rule
p2284
(dp2285
g15
(irule
Guard
p2286
(dp2287
g18
I00
sg19
(lp2288
sg21
I00
sg22
V
sg23
I00
sg24
S'L'
sbsg25
(irule
PlaceSpecification
p2289
(dp2290
g28
I1
sbsg29
(irule
Guard
p2291
(dp2292
g18
I00
sg19
(lp2293
(irule
FeatureMatrix
p2294
(dp2295
g35
(lp2296
(I00
g250
tp2297
asg22
V[ -tense ]
p2298
sbasg21
I00
sg22
g2298
sg23
I00
sg24
S'R'
sbsg40
(irule
FeatureMatrix
p2299
(dp2300
g35
(lp2301
(I00
g383
tp2302
a(I00
g256
tp2303
asg22
V[ -continuant -vowel ]
p2304
sbsg22
V[ -continuant -vowel ] ---> place1 /  _ [ -tense ]
p2305
sba(irule
Rule
p2306
(dp2307
g15
(irule
Guard
p2308
(dp2309
g18
I00
sg19
(lp2310
sg21
I00
sg22
V
sg23
I00
sg24
S'L'
sbsg25
(irule
PlaceSpecification
p2311
(dp2312
g28
I1
sbsg29
(irule
Guard
p2313
(dp2314
g18
I00
sg19
(lp2315
(irule
FeatureMatrix
p2316
(dp2317
g35
(lp2318
(I00
g250
tp2319
asg22
V[ -tense ]
p2320
sbasg21
I00
sg22
g2320
sg23
I00
sg24
S'R'
sbsg40
(irule
FeatureMatrix
p2321
(dp2322
g35
(lp2323
(I00
S'liquid'
p2324
tp2325
a(I00
g383
tp2326
asg22
V[ -continuant -liquid ]
p2327
sbsg22
V[ -continuant -liquid ] ---> place1 /  _ [ -tense ]
p2328
sba(irule
Rule
p2329
(dp2330
g15
(irule
Guard
p2331
(dp2332
g18
I00
sg19
(lp2333
sg21
I00
sg22
V
sg23
I00
sg24
S'L'
sbsg25
(irule
PlaceSpecification
p2334
(dp2335
g28
I1
sbsg29
(irule
Guard
p2336
(dp2337
g18
I00
sg19
(lp2338
(irule
FeatureMatrix
p2339
(dp2340
g35
(lp2341
(I01
g273
tp2342
asg22
V[ +anterior ]
p2343
sbasg21
I00
sg22
g2343
sg23
I00
sg24
S'R'
sbsg40
(irule
FeatureMatrix
p2344
(dp2345
g35
(lp2346
(I00
g638
tp2347
a(I00
g256
tp2348
asg22
V[ -low -vowel ]
p2349
sbsg22
V[ -low -vowel ] ---> place1 /  _ [ +anterior ]
p2350
sba(irule
Rule
p2351
(dp2352
g15
(irule
Guard
p2353
(dp2354
g18
I00
sg19
(lp2355
sg21
I00
sg22
V
sg23
I00
sg24
S'L'
sbsg25
(irule
PlaceSpecification
p2356
(dp2357
g28
I1
sbsg29
(irule
Guard
p2358
(dp2359
g18
I00
sg19
(lp2360
(irule
FeatureMatrix
p2361
(dp2362
g35
(lp2363
(I00
g250
tp2364
asg22
V[ -tense ]
p2365
sbasg21
I00
sg22
g2365
sg23
I00
sg24
S'R'
sbsg40
(irule
FeatureMatrix
p2366
(dp2367
g35
(lp2368
(I01
g356
tp2369
a(I00
g256
tp2370
asg22
V[ +sonorant -vowel ]
p2371
sbsg22
V[ +sonorant -vowel ] ---> place1 /  _ [ -tense ]
p2372
sba(irule
Rule
p2373
(dp2374
g15
(irule
Guard
p2375
(dp2376
g18
I00
sg19
(lp2377
sg21
I00
sg22
V
sg23
I00
sg24
S'L'
sbsg25
(irule
PlaceSpecification
p2378
(dp2379
g28
I1
sbsg29
(irule
Guard
p2380
(dp2381
g18
I00
sg19
(lp2382
(irule
FeatureMatrix
p2383
(dp2384
g35
(lp2385
(I00
g250
tp2386
asg22
V[ -tense ]
p2387
sbasg21
I00
sg22
g2387
sg23
I00
sg24
S'R'
sbsg40
(irule
FeatureMatrix
p2388
(dp2389
g35
(lp2390
(I00
g1955
tp2391
a(I00
g383
tp2392
asg22
V[ -continuant -rounded ]
p2393
sbsg22
V[ -continuant -rounded ] ---> place1 /  _ [ -tense ]
p2394
sba(irule
Rule
p2395
(dp2396
g15
(irule
Guard
p2397
(dp2398
g18
I00
sg19
(lp2399
sg21
I00
sg22
V
sg23
I00
sg24
S'L'
sbsg25
(irule
PlaceSpecification
p2400
(dp2401
g28
I1
sbsg29
(irule
Guard
p2402
(dp2403
g18
I00
sg19
(lp2404
(irule
FeatureMatrix
p2405
(dp2406
g35
(lp2407
(I01
g273
tp2408
asg22
V[ +anterior ]
p2409
sbasg21
I00
sg22
g2409
sg23
I00
sg24
S'R'
sbsg40
(irule
FeatureMatrix
p2410
(dp2411
g35
(lp2412
(I01
g794
tp2413
a(I00
g256
tp2414
asg22
V[ +high -vowel ]
p2415
sbsg22
V[ +high -vowel ] ---> place1 /  _ [ +anterior ]
p2416
sba(irule
Rule
p2417
(dp2418
g15
(irule
Guard
p2419
(dp2420
g18
I00
sg19
(lp2421
sg21
I00
sg22
V
sg23
I00
sg24
S'L'
sbsg25
(irule
PlaceSpecification
p2422
(dp2423
g28
I1
sbsg29
(irule
Guard
p2424
(dp2425
g18
I00
sg19
(lp2426
(irule
FeatureMatrix
p2427
(dp2428
g35
(lp2429
(I00
g250
tp2430
a(I00
g256
tp2431
asg22
V[ -tense -vowel ]
p2432
sbasg21
I00
sg22
g2432
sg23
I00
sg24
S'R'
sbsg40
(irule
FeatureMatrix
p2433
(dp2434
g35
(lp2435
(I00
g250
tp2436
asg22
V[ -tense ]
p2437
sbsg22
V[ -tense ] ---> place1 /  _ [ -tense -vowel ]
p2438
sba(irule
Rule
p2439
(dp2440
g15
(irule
Guard
p2441
(dp2442
g18
I00
sg19
(lp2443
sg21
I00
sg22
V
sg23
I00
sg24
S'L'
sbsg25
(irule
PlaceSpecification
p2444
(dp2445
g28
I1
sbsg29
(irule
Guard
p2446
(dp2447
g18
I00
sg19
(lp2448
(irule
FeatureMatrix
p2449
(dp2450
g35
(lp2451
(I00
g638
tp2452
a(I00
g256
tp2453
asg22
V[ -low -vowel ]
p2454
sbasg21
I00
sg22
g2454
sg23
I00
sg24
S'R'
sbsg40
(irule
ConstantPhoneme
p2455
(dp2456
S'p'
V\u014b
sbsg22
V\u014b ---> place1 /  _ [ -low -vowel ]
p2457
sba(irule
Rule
p2458
(dp2459
g15
(irule
Guard
p2460
(dp2461
g18
I00
sg19
(lp2462
sg21
I00
sg22
V
sg23
I00
sg24
S'L'
sbsg25
(irule
PlaceSpecification
p2463
(dp2464
g28
I1
sbsg29
(irule
Guard
p2465
(dp2466
g18
I00
sg19
(lp2467
(irule
FeatureMatrix
p2468
(dp2469
g35
(lp2470
(I00
g250
tp2471
asg22
V[ -tense ]
p2472
sbasg21
I00
sg22
g2472
sg23
I00
sg24
S'R'
sbsg40
(irule
FeatureMatrix
p2473
(dp2474
g35
(lp2475
(I00
g2324
tp2476
a(I00
g256
tp2477
asg22
V[ -liquid -vowel ]
p2478
sbsg22
V[ -liquid -vowel ] ---> place1 /  _ [ -tense ]
p2479
sbaa(lp2480
(irule
Rule
p2481
(dp2482
g15
(irule
Guard
p2483
(dp2484
g18
I00
sg19
(lp2485
sg21
I00
sg22
V
sg23
I00
sg24
S'L'
sbsg25
(irule
OffsetSpecification
p2486
(dp2487
g28
I1
sbsg29
(irule
Guard
p2488
(dp2489
g18
I00
sg19
(lp2490
(irule
FeatureMatrix
p2491
(dp2492
g35
(lp2493
(I00
S'voice'
tp2494
asg22
V[ -voice ]
p2495
sbasg21
I00
sg22
g2495
sg23
I00
sg24
S'R'
sbsg40
(irule
FeatureMatrix
p2496
(dp2497
g35
(lp2498
(I00
S'tense'
tp2499
asg22
V[ -tense ]
p2500
sbsg22
V[ -tense ] ---> 1 /  _ [ -voice ]
p2501
sba(irule
Rule
p2502
(dp2503
g15
(irule
Guard
p2504
(dp2505
g18
I00
sg19
(lp2506
sg21
I00
sg22
V
sg23
I00
sg24
S'L'
sbsg25
(irule
OffsetSpecification
p2507
(dp2508
g28
I1
sbsg29
(irule
Guard
p2509
(dp2510
g18
I00
sg19
(lp2511
(irule
FeatureMatrix
p2512
(dp2513
g35
(lp2514
(I00
S'voice'
p2515
tp2516
asg22
V[ -voice ]
p2517
sbasg21
I00
sg22
g2517
sg23
I00
sg24
S'R'
sbsg40
(irule
FeatureMatrix
p2518
(dp2519
g35
(lp2520
(I00
S'vowel'
p2521
tp2522
asg22
V[ -vowel ]
p2523
sbsg22
V[ -vowel ] ---> 1 /  _ [ -voice ]
p2524
sba(irule
Rule
p2525
(dp2526
g15
(irule
Guard
p2527
(dp2528
g18
I00
sg19
(lp2529
sg21
I00
sg22
V
sg23
I00
sg24
S'L'
sbsg25
(irule
OffsetSpecification
p2530
(dp2531
g28
I1
sbsg29
(irule
Guard
p2532
(dp2533
g18
I00
sg19
(lp2534
(irule
FeatureMatrix
p2535
(dp2536
g35
(lp2537
(I00
g2515
tp2538
asg22
V[ -voice ]
p2539
sbasg21
I00
sg22
g2539
sg23
I00
sg24
S'R'
sbsg40
(irule
FeatureMatrix
p2540
(dp2541
g35
(lp2542
(I00
S'continuant'
p2543
tp2544
asg22
V[ -continuant ]
p2545
sbsg22
V[ -continuant ] ---> 1 /  _ [ -voice ]
p2546
sba(irule
Rule
p2547
(dp2548
g15
(irule
Guard
p2549
(dp2550
g18
I00
sg19
(lp2551
sg21
I00
sg22
V
sg23
I00
sg24
S'L'
sbsg25
(irule
OffsetSpecification
p2552
(dp2553
g28
I1
sbsg29
(irule
Guard
p2554
(dp2555
g18
I00
sg19
(lp2556
(irule
FeatureMatrix
p2557
(dp2558
g35
(lp2559
(I00
g2515
tp2560
asg22
V[ -voice ]
p2561
sbasg21
I00
sg22
g2561
sg23
I00
sg24
S'R'
sbsg40
(irule
FeatureMatrix
p2562
(dp2563
g35
(lp2564
(I01
S'nasal'
p2565
tp2566
asg22
V[ +nasal ]
p2567
sbsg22
V[ +nasal ] ---> 1 /  _ [ -voice ]
p2568
sba(irule
Rule
p2569
(dp2570
g15
(irule
Guard
p2571
(dp2572
g18
I00
sg19
(lp2573
sg21
I00
sg22
V
sg23
I00
sg24
S'L'
sbsg25
(irule
OffsetSpecification
p2574
(dp2575
g28
I1
sbsg29
(irule
Guard
p2576
(dp2577
g18
I00
sg19
(lp2578
(irule
FeatureMatrix
p2579
(dp2580
g35
(lp2581
(I00
g2515
tp2582
asg22
V[ -voice ]
p2583
sbasg21
I00
sg22
g2583
sg23
I00
sg24
S'R'
sbsg40
(irule
FeatureMatrix
p2584
(dp2585
g35
(lp2586
(I01
S'anterior'
p2587
tp2588
asg22
V[ +anterior ]
p2589
sbsg22
V[ +anterior ] ---> 1 /  _ [ -voice ]
p2590
sba(irule
Rule
p2591
(dp2592
g15
(irule
Guard
p2593
(dp2594
g18
I00
sg19
(lp2595
(irule
FeatureMatrix
p2596
(dp2597
g35
(lp2598
sg22
V[  ]
p2599
sbasg21
I00
sg22
g2599
sg23
I00
sg24
S'L'
sbsg25
(irule
OffsetSpecification
p2600
(dp2601
g28
I1
sbsg29
(irule
Guard
p2602
(dp2603
g18
I00
sg19
(lp2604
(irule
FeatureMatrix
p2605
(dp2606
g35
(lp2607
(I00
g2515
tp2608
asg22
V[ -voice ]
p2609
sbasg21
I00
sg22
g2609
sg23
I00
sg24
S'R'
sbsg40
(irule
FeatureMatrix
p2610
(dp2611
g35
(lp2612
(I00
g2521
tp2613
asg22
V[ -vowel ]
p2614
sbsg22
V[ -vowel ] ---> 1 / [  ] _ [ -voice ]
p2615
sba(irule
Rule
p2616
(dp2617
g15
(irule
Guard
p2618
(dp2619
g18
I00
sg19
(lp2620
(irule
FeatureMatrix
p2621
(dp2622
g35
(lp2623
sg22
V[  ]
p2624
sbasg21
I00
sg22
g2624
sg23
I00
sg24
S'L'
sbsg25
(irule
OffsetSpecification
p2625
(dp2626
g28
I1
sbsg29
(irule
Guard
p2627
(dp2628
g18
I00
sg19
(lp2629
(irule
FeatureMatrix
p2630
(dp2631
g35
(lp2632
(I00
g2515
tp2633
asg22
V[ -voice ]
p2634
sbasg21
I00
sg22
g2634
sg23
I00
sg24
S'R'
sbsg40
(irule
FeatureMatrix
p2635
(dp2636
g35
(lp2637
(I01
g2587
tp2638
asg22
V[ +anterior ]
p2639
sbsg22
V[ +anterior ] ---> 1 / [  ] _ [ -voice ]
p2640
sba(irule
Rule
p2641
(dp2642
g15
(irule
Guard
p2643
(dp2644
g18
I00
sg19
(lp2645
(irule
FeatureMatrix
p2646
(dp2647
g35
(lp2648
(I01
g2521
tp2649
asg22
V[ +vowel ]
p2650
sbasg21
I00
sg22
g2650
sg23
I00
sg24
S'L'
sbsg25
(irule
OffsetSpecification
p2651
(dp2652
g28
I1
sbsg29
(irule
Guard
p2653
(dp2654
g18
I00
sg19
(lp2655
(irule
FeatureMatrix
p2656
(dp2657
g35
(lp2658
(I00
g2515
tp2659
asg22
V[ -voice ]
p2660
sbasg21
I00
sg22
g2660
sg23
I00
sg24
S'R'
sbsg40
(irule
FeatureMatrix
p2661
(dp2662
g35
(lp2663
sg22
V[  ]
p2664
sbsg22
V[  ] ---> 1 / [ +vowel ] _ [ -voice ]
p2665
sba(irule
Rule
p2666
(dp2667
g15
(irule
Guard
p2668
(dp2669
g18
I00
sg19
(lp2670
(irule
FeatureMatrix
p2671
(dp2672
g35
(lp2673
(I01
S'tense'
p2674
tp2675
asg22
V[ +tense ]
p2676
sbasg21
I00
sg22
g2676
sg23
I00
sg24
S'L'
sbsg25
(irule
OffsetSpecification
p2677
(dp2678
g28
I1
sbsg29
(irule
Guard
p2679
(dp2680
g18
I00
sg19
(lp2681
(irule
FeatureMatrix
p2682
(dp2683
g35
(lp2684
(I00
g2515
tp2685
asg22
V[ -voice ]
p2686
sbasg21
I00
sg22
g2686
sg23
I00
sg24
S'R'
sbsg40
(irule
FeatureMatrix
p2687
(dp2688
g35
(lp2689
sg22
V[  ]
p2690
sbsg22
V[  ] ---> 1 / [ +tense ] _ [ -voice ]
p2691
sba(irule
Rule
p2692
(dp2693
g15
(irule
Guard
p2694
(dp2695
g18
I00
sg19
(lp2696
(irule
FeatureMatrix
p2697
(dp2698
g35
(lp2699
sg22
V[  ]
p2700
sbasg21
I00
sg22
g2700
sg23
I00
sg24
S'L'
sbsg25
(irule
OffsetSpecification
p2701
(dp2702
g28
I1
sbsg29
(irule
Guard
p2703
(dp2704
g18
I00
sg19
(lp2705
(irule
FeatureMatrix
p2706
(dp2707
g35
(lp2708
(I00
g2515
tp2709
asg22
V[ -voice ]
p2710
sbasg21
I00
sg22
g2710
sg23
I00
sg24
S'R'
sbsg40
(irule
FeatureMatrix
p2711
(dp2712
g35
(lp2713
(I00
g2674
tp2714
asg22
V[ -tense ]
p2715
sbsg22
V[ -tense ] ---> 1 / [  ] _ [ -voice ]
p2716
sba(irule
Rule
p2717
(dp2718
g15
(irule
Guard
p2719
(dp2720
g18
I00
sg19
(lp2721
(irule
FeatureMatrix
p2722
(dp2723
g35
(lp2724
sg22
V[  ]
p2725
sbasg21
I00
sg22
g2725
sg23
I00
sg24
S'L'
sbsg25
(irule
OffsetSpecification
p2726
(dp2727
g28
I1
sbsg29
(irule
Guard
p2728
(dp2729
g18
I00
sg19
(lp2730
(irule
FeatureMatrix
p2731
(dp2732
g35
(lp2733
(I00
g2515
tp2734
asg22
V[ -voice ]
p2735
sbasg21
I00
sg22
g2735
sg23
I00
sg24
S'R'
sbsg40
(irule
FeatureMatrix
p2736
(dp2737
g35
(lp2738
(I00
g2543
tp2739
asg22
V[ -continuant ]
p2740
sbsg22
V[ -continuant ] ---> 1 / [  ] _ [ -voice ]
p2741
sba(irule
Rule
p2742
(dp2743
g15
(irule
Guard
p2744
(dp2745
g18
I00
sg19
(lp2746
(irule
FeatureMatrix
p2747
(dp2748
g35
(lp2749
(I01
S'low'
p2750
tp2751
asg22
V[ +low ]
p2752
sbasg21
I00
sg22
g2752
sg23
I00
sg24
S'L'
sbsg25
(irule
OffsetSpecification
p2753
(dp2754
g28
I1
sbsg29
(irule
Guard
p2755
(dp2756
g18
I00
sg19
(lp2757
(irule
FeatureMatrix
p2758
(dp2759
g35
(lp2760
(I00
g2515
tp2761
asg22
V[ -voice ]
p2762
sbasg21
I00
sg22
g2762
sg23
I00
sg24
S'R'
sbsg40
(irule
FeatureMatrix
p2763
(dp2764
g35
(lp2765
sg22
V[  ]
p2766
sbsg22
V[  ] ---> 1 / [ +low ] _ [ -voice ]
p2767
sba(irule
Rule
p2768
(dp2769
g15
(irule
Guard
p2770
(dp2771
g18
I00
sg19
(lp2772
(irule
FeatureMatrix
p2773
(dp2774
g35
(lp2775
sg22
V[  ]
p2776
sbasg21
I00
sg22
g2776
sg23
I00
sg24
S'L'
sbsg25
(irule
OffsetSpecification
p2777
(dp2778
g28
I1
sbsg29
(irule
Guard
p2779
(dp2780
g18
I00
sg19
(lp2781
(irule
FeatureMatrix
p2782
(dp2783
g35
(lp2784
(I00
g2515
tp2785
asg22
V[ -voice ]
p2786
sbasg21
I00
sg22
g2786
sg23
I00
sg24
S'R'
sbsg40
(irule
FeatureMatrix
p2787
(dp2788
g35
(lp2789
(I01
g2565
tp2790
asg22
V[ +nasal ]
p2791
sbsg22
V[ +nasal ] ---> 1 / [  ] _ [ -voice ]
p2792
sba(irule
Rule
p2793
(dp2794
g15
(irule
Guard
p2795
(dp2796
g18
I00
sg19
(lp2797
sg21
I00
sg22
V
sg23
I00
sg24
S'L'
sbsg25
(irule
OffsetSpecification
p2798
(dp2799
g28
I1
sbsg29
(irule
Guard
p2800
(dp2801
g18
I00
sg19
(lp2802
(irule
FeatureMatrix
p2803
(dp2804
g35
(lp2805
(I00
g2515
tp2806
asg22
V[ -voice ]
p2807
sbasg21
I00
sg22
g2807
sg23
I00
sg24
S'R'
sbsg40
(irule
FeatureMatrix
p2808
(dp2809
g35
(lp2810
(I00
g2543
tp2811
a(I00
S'sibilant'
p2812
tp2813
asg22
V[ -continuant -sibilant ]
p2814
sbsg22
V[ -continuant -sibilant ] ---> 1 /  _ [ -voice ]
p2815
sba(irule
Rule
p2816
(dp2817
g15
(irule
Guard
p2818
(dp2819
g18
I00
sg19
(lp2820
sg21
I00
sg22
V
sg23
I00
sg24
S'L'
sbsg25
(irule
OffsetSpecification
p2821
(dp2822
g28
I1
sbsg29
(irule
Guard
p2823
(dp2824
g18
I00
sg19
(lp2825
(irule
FeatureMatrix
p2826
(dp2827
g35
(lp2828
(I00
g2521
tp2829
a(I00
g2515
tp2830
asg22
V[ -voice -vowel ]
p2831
sbasg21
I00
sg22
g2831
sg23
I00
sg24
S'R'
sbsg40
(irule
FeatureMatrix
p2832
(dp2833
g35
(lp2834
(I00
g2521
tp2835
asg22
V[ -vowel ]
p2836
sbsg22
V[ -vowel ] ---> 1 /  _ [ -voice -vowel ]
p2837
sba(irule
Rule
p2838
(dp2839
g15
(irule
Guard
p2840
(dp2841
g18
I00
sg19
(lp2842
sg21
I00
sg22
V
sg23
I00
sg24
S'L'
sbsg25
(irule
OffsetSpecification
p2843
(dp2844
g28
I1
sbsg29
(irule
Guard
p2845
(dp2846
g18
I00
sg19
(lp2847
(irule
FeatureMatrix
p2848
(dp2849
g35
(lp2850
(I00
S'sonorant'
p2851
tp2852
a(I00
g2515
tp2853
asg22
V[ -sonorant -voice ]
p2854
sbasg21
I00
sg22
g2854
sg23
I00
sg24
S'R'
sbsg40
(irule
FeatureMatrix
p2855
(dp2856
g35
(lp2857
(I00
g2521
tp2858
asg22
V[ -vowel ]
p2859
sbsg22
V[ -vowel ] ---> 1 /  _ [ -sonorant -voice ]
p2860
sba(irule
Rule
p2861
(dp2862
g15
(irule
Guard
p2863
(dp2864
g18
I00
sg19
(lp2865
sg21
I00
sg22
V
sg23
I00
sg24
S'L'
sbsg25
(irule
OffsetSpecification
p2866
(dp2867
g28
I1
sbsg29
(irule
Guard
p2868
(dp2869
g18
I00
sg19
(lp2870
(irule
FeatureMatrix
p2871
(dp2872
g35
(lp2873
(I00
g2521
tp2874
a(I00
g2515
tp2875
asg22
V[ -voice -vowel ]
p2876
sbasg21
I00
sg22
g2876
sg23
I00
sg24
S'R'
sbsg40
(irule
FeatureMatrix
p2877
(dp2878
g35
(lp2879
(I01
g2565
tp2880
asg22
V[ +nasal ]
p2881
sbsg22
V[ +nasal ] ---> 1 /  _ [ -voice -vowel ]
p2882
sba(irule
Rule
p2883
(dp2884
g15
(irule
Guard
p2885
(dp2886
g18
I00
sg19
(lp2887
sg21
I00
sg22
V
sg23
I00
sg24
S'L'
sbsg25
(irule
OffsetSpecification
p2888
(dp2889
g28
I1
sbsg29
(irule
Guard
p2890
(dp2891
g18
I00
sg19
(lp2892
(irule
FeatureMatrix
p2893
(dp2894
g35
(lp2895
(I00
g2521
tp2896
a(I00
g2515
tp2897
asg22
V[ -voice -vowel ]
p2898
sbasg21
I00
sg22
g2898
sg23
I00
sg24
S'R'
sbsg40
(irule
FeatureMatrix
p2899
(dp2900
g35
(lp2901
(I00
g2543
tp2902
asg22
V[ -continuant ]
p2903
sbsg22
V[ -continuant ] ---> 1 /  _ [ -voice -vowel ]
p2904
sba(irule
Rule
p2905
(dp2906
g15
(irule
Guard
p2907
(dp2908
g18
I00
sg19
(lp2909
sg21
I00
sg22
V
sg23
I00
sg24
S'L'
sbsg25
(irule
OffsetSpecification
p2910
(dp2911
g28
I1
sbsg29
(irule
Guard
p2912
(dp2913
g18
I00
sg19
(lp2914
(irule
FeatureMatrix
p2915
(dp2916
g35
(lp2917
(I00
g2515
tp2918
asg22
V[ -voice ]
p2919
sbasg21
I00
sg22
g2919
sg23
I00
sg24
S'R'
sbsg40
(irule
FeatureMatrix
p2920
(dp2921
g35
(lp2922
(I00
g2521
tp2923
a(I00
g2812
tp2924
asg22
V[ -sibilant -vowel ]
p2925
sbsg22
V[ -sibilant -vowel ] ---> 1 /  _ [ -voice ]
p2926
sba(irule
Rule
p2927
(dp2928
g15
(irule
Guard
p2929
(dp2930
g18
I00
sg19
(lp2931
sg21
I00
sg22
V
sg23
I00
sg24
S'L'
sbsg25
(irule
OffsetSpecification
p2932
(dp2933
g28
I1
sbsg29
(irule
Guard
p2934
(dp2935
g18
I00
sg19
(lp2936
(irule
FeatureMatrix
p2937
(dp2938
g35
(lp2939
(I00
g2521
tp2940
a(I00
g2515
tp2941
asg22
V[ -voice -vowel ]
p2942
sbasg21
I00
sg22
g2942
sg23
I00
sg24
S'R'
sbsg40
(irule
FeatureMatrix
p2943
(dp2944
g35
(lp2945
(I01
g2587
tp2946
asg22
V[ +anterior ]
p2947
sbsg22
V[ +anterior ] ---> 1 /  _ [ -voice -vowel ]
p2948
sba(irule
Rule
p2949
(dp2950
g15
(irule
Guard
p2951
(dp2952
g18
I00
sg19
(lp2953
sg21
I00
sg22
V
sg23
I00
sg24
S'L'
sbsg25
(irule
OffsetSpecification
p2954
(dp2955
g28
I1
sbsg29
(irule
Guard
p2956
(dp2957
g18
I00
sg19
(lp2958
(irule
FeatureMatrix
p2959
(dp2960
g35
(lp2961
(I00
g2750
tp2962
a(I00
g2515
tp2963
asg22
V[ -low -voice ]
p2964
sbasg21
I00
sg22
g2964
sg23
I00
sg24
S'R'
sbsg40
(irule
FeatureMatrix
p2965
(dp2966
g35
(lp2967
(I00
g2521
tp2968
asg22
V[ -vowel ]
p2969
sbsg22
V[ -vowel ] ---> 1 /  _ [ -low -voice ]
p2970
sba(irule
Rule
p2971
(dp2972
g15
(irule
Guard
p2973
(dp2974
g18
I00
sg19
(lp2975
sg21
I00
sg22
V
sg23
I00
sg24
S'L'
sbsg25
(irule
OffsetSpecification
p2976
(dp2977
g28
I1
sbsg29
(irule
Guard
p2978
(dp2979
g18
I00
sg19
(lp2980
(irule
FeatureMatrix
p2981
(dp2982
g35
(lp2983
(I00
g2515
tp2984
asg22
V[ -voice ]
p2985
sba(irule
FeatureMatrix
p2986
(dp2987
g35
(lp2988
sg22
V[  ]
p2989
sbasg21
I00
sg22
V[ -voice ] [  ]
p2990
sg23
I00
sg24
S'R'
sbsg40
(irule
FeatureMatrix
p2991
(dp2992
g35
(lp2993
(I00
g2521
tp2994
asg22
V[ -vowel ]
p2995
sbsg22
V[ -vowel ] ---> 1 /  _ [ -voice ] [  ]
p2996
sba(irule
Rule
p2997
(dp2998
g15
(irule
Guard
p2999
(dp3000
g18
I00
sg19
(lp3001
sg21
I00
sg22
V
sg23
I00
sg24
S'L'
sbsg25
(irule
OffsetSpecification
p3002
(dp3003
g28
I1
sbsg29
(irule
Guard
p3004
(dp3005
g18
I00
sg19
(lp3006
(irule
FeatureMatrix
p3007
(dp3008
g35
(lp3009
(I00
g2515
tp3010
asg22
V[ -voice ]
p3011
sbasg21
I00
sg22
g3011
sg23
I00
sg24
S'R'
sbsg40
(irule
FeatureMatrix
p3012
(dp3013
g35
(lp3014
(I00
g2521
tp3015
a(I01
g2515
tp3016
asg22
V[ +voice -vowel ]
p3017
sbsg22
V[ +voice -vowel ] ---> 1 /  _ [ -voice ]
p3018
sba(irule
Rule
p3019
(dp3020
g15
(irule
Guard
p3021
(dp3022
g18
I00
sg19
(lp3023
sg21
I00
sg22
V
sg23
I00
sg24
S'L'
sbsg25
(irule
OffsetSpecification
p3024
(dp3025
g28
I1
sbsg29
(irule
Guard
p3026
(dp3027
g18
I00
sg19
(lp3028
(irule
FeatureMatrix
p3029
(dp3030
g35
(lp3031
(I00
g2750
tp3032
a(I00
g2515
tp3033
asg22
V[ -low -voice ]
p3034
sbasg21
I00
sg22
g3034
sg23
I00
sg24
S'R'
sbsg40
(irule
FeatureMatrix
p3035
(dp3036
g35
(lp3037
(I01
g2565
tp3038
asg22
V[ +nasal ]
p3039
sbsg22
V[ +nasal ] ---> 1 /  _ [ -low -voice ]
p3040
sba(irule
Rule
p3041
(dp3042
g15
(irule
Guard
p3043
(dp3044
g18
I00
sg19
(lp3045
(irule
ConstantPhoneme
p3046
(dp3047
S'p'
Va
sbasg21
I00
sg22
Va
sg23
I00
sg24
S'L'
sbsg25
(irule
OffsetSpecification
p3048
(dp3049
g28
I1
sbsg29
(irule
Guard
p3050
(dp3051
g18
I00
sg19
(lp3052
(irule
FeatureMatrix
p3053
(dp3054
g35
(lp3055
(I00
g2515
tp3056
asg22
V[ -voice ]
p3057
sbasg21
I00
sg22
g3057
sg23
I00
sg24
S'R'
sbsg40
(irule
FeatureMatrix
p3058
(dp3059
g35
(lp3060
sg22
V[  ]
p3061
sbsg22
V[  ] ---> 1 / a _ [ -voice ]
p3062
sba(irule
Rule
p3063
(dp3064
g15
(irule
Guard
p3065
(dp3066
g18
I00
sg19
(lp3067
sg21
I00
sg22
V
sg23
I00
sg24
S'L'
sbsg25
(irule
OffsetSpecification
p3068
(dp3069
g28
I1
sbsg29
(irule
Guard
p3070
(dp3071
g18
I00
sg19
(lp3072
(irule
FeatureMatrix
p3073
(dp3074
g35
(lp3075
(I00
g2674
tp3076
a(I00
g2515
tp3077
asg22
V[ -tense -voice ]
p3078
sbasg21
I00
sg22
g3078
sg23
I00
sg24
S'R'
sbsg40
(irule
FeatureMatrix
p3079
(dp3080
g35
(lp3081
(I00
g2521
tp3082
asg22
V[ -vowel ]
p3083
sbsg22
V[ -vowel ] ---> 1 /  _ [ -tense -voice ]
p3084
sba(irule
Rule
p3085
(dp3086
g15
(irule
Guard
p3087
(dp3088
g18
I00
sg19
(lp3089
sg21
I00
sg22
V
sg23
I00
sg24
S'L'
sbsg25
(irule
OffsetSpecification
p3090
(dp3091
g28
I1
sbsg29
(irule
Guard
p3092
(dp3093
g18
I00
sg19
(lp3094
(irule
FeatureMatrix
p3095
(dp3096
g35
(lp3097
(I00
g2515
tp3098
asg22
V[ -voice ]
p3099
sbasg21
I00
sg22
g3099
sg23
I00
sg24
S'R'
sbsg40
(irule
FeatureMatrix
p3100
(dp3101
g35
(lp3102
(I00
S'liquid'
p3103
tp3104
a(I00
g2521
tp3105
asg22
V[ -liquid -vowel ]
p3106
sbsg22
V[ -liquid -vowel ] ---> 1 /  _ [ -voice ]
p3107
sba(irule
Rule
p3108
(dp3109
g15
(irule
Guard
p3110
(dp3111
g18
I00
sg19
(lp3112
sg21
I00
sg22
V
sg23
I00
sg24
S'L'
sbsg25
(irule
OffsetSpecification
p3113
(dp3114
g28
I1
sbsg29
(irule
Guard
p3115
(dp3116
g18
I00
sg19
(lp3117
(irule
FeatureMatrix
p3118
(dp3119
g35
(lp3120
(I00
S'back'
p3121
tp3122
a(I00
g2515
tp3123
asg22
V[ -back -voice ]
p3124
sbasg21
I00
sg22
g3124
sg23
I00
sg24
S'R'
sbsg40
(irule
FeatureMatrix
p3125
(dp3126
g35
(lp3127
(I01
g2565
tp3128
asg22
V[ +nasal ]
p3129
sbsg22
V[ +nasal ] ---> 1 /  _ [ -back -voice ]
p3130
sba(irule
Rule
p3131
(dp3132
g15
(irule
Guard
p3133
(dp3134
g18
I00
sg19
(lp3135
sg21
I00
sg22
V
sg23
I00
sg24
S'L'
sbsg25
(irule
OffsetSpecification
p3136
(dp3137
g28
I1
sbsg29
(irule
Guard
p3138
(dp3139
g18
I00
sg19
(lp3140
(irule
FeatureMatrix
p3141
(dp3142
g35
(lp3143
(I00
g2515
tp3144
asg22
V[ -voice ]
p3145
sbasg21
I00
sg22
g3145
sg23
I00
sg24
S'R'
sbsg40
(irule
FeatureMatrix
p3146
(dp3147
g35
(lp3148
(I00
g2750
tp3149
a(I00
g2521
tp3150
asg22
V[ -low -vowel ]
p3151
sbsg22
V[ -low -vowel ] ---> 1 /  _ [ -voice ]
p3152
sba(irule
Rule
p3153
(dp3154
g15
(irule
Guard
p3155
(dp3156
g18
I00
sg19
(lp3157
sg21
I00
sg22
V
sg23
I00
sg24
S'L'
sbsg25
(irule
OffsetSpecification
p3158
(dp3159
g28
I1
sbsg29
(irule
Guard
p3160
(dp3161
g18
I00
sg19
(lp3162
(irule
FeatureMatrix
p3163
(dp3164
g35
(lp3165
(I00
S'high'
p3166
tp3167
a(I00
g2515
tp3168
asg22
V[ -high -voice ]
p3169
sbasg21
I00
sg22
g3169
sg23
I00
sg24
S'R'
sbsg40
(irule
FeatureMatrix
p3170
(dp3171
g35
(lp3172
(I01
g2587
tp3173
asg22
V[ +anterior ]
p3174
sbsg22
V[ +anterior ] ---> 1 /  _ [ -high -voice ]
p3175
sba(irule
Rule
p3176
(dp3177
g15
(irule
Guard
p3178
(dp3179
g18
I00
sg19
(lp3180
sg21
I00
sg22
V
sg23
I00
sg24
S'L'
sbsg25
(irule
OffsetSpecification
p3181
(dp3182
g28
I1
sbsg29
(irule
Guard
p3183
(dp3184
g18
I00
sg19
(lp3185
(irule
FeatureMatrix
p3186
(dp3187
g35
(lp3188
(I00
g3166
tp3189
a(I00
g2515
tp3190
asg22
V[ -high -voice ]
p3191
sbasg21
I00
sg22
g3191
sg23
I00
sg24
S'R'
sbsg40
(irule
FeatureMatrix
p3192
(dp3193
g35
(lp3194
(I00
g2521
tp3195
asg22
V[ -vowel ]
p3196
sbsg22
V[ -vowel ] ---> 1 /  _ [ -high -voice ]
p3197
sba(irule
Rule
p3198
(dp3199
g15
(irule
Guard
p3200
(dp3201
g18
I00
sg19
(lp3202
sg21
I00
sg22
V
sg23
I00
sg24
S'L'
sbsg25
(irule
OffsetSpecification
p3203
(dp3204
g28
I1
sbsg29
(irule
Guard
p3205
(dp3206
g18
I00
sg19
(lp3207
(irule
FeatureMatrix
p3208
(dp3209
g35
(lp3210
(I00
g2515
tp3211
asg22
V[ -voice ]
p3212
sbasg21
I00
sg22
g3212
sg23
I00
sg24
S'R'
sbsg40
(irule
FeatureMatrix
p3213
(dp3214
g35
(lp3215
(I00
g3121
tp3216
a(I00
g2521
tp3217
asg22
V[ -back -vowel ]
p3218
sbsg22
V[ -back -vowel ] ---> 1 /  _ [ -voice ]
p3219
sba(irule
Rule
p3220
(dp3221
g15
(irule
Guard
p3222
(dp3223
g18
I00
sg19
(lp3224
sg21
I00
sg22
V
sg23
I00
sg24
S'L'
sbsg25
(irule
OffsetSpecification
p3225
(dp3226
g28
I1
sbsg29
(irule
Guard
p3227
(dp3228
g18
I00
sg19
(lp3229
(irule
FeatureMatrix
p3230
(dp3231
g35
(lp3232
(I00
g2515
tp3233
asg22
V[ -voice ]
p3234
sba(irule
FeatureMatrix
p3235
(dp3236
g35
(lp3237
sg22
V[  ]
p3238
sbasg21
I00
sg22
V[ -voice ] [  ]
p3239
sg23
I00
sg24
S'R'
sbsg40
(irule
FeatureMatrix
p3240
(dp3241
g35
(lp3242
(I00
g2543
tp3243
asg22
V[ -continuant ]
p3244
sbsg22
V[ -continuant ] ---> 1 /  _ [ -voice ] [  ]
p3245
sba(irule
Rule
p3246
(dp3247
g15
(irule
Guard
p3248
(dp3249
g18
I00
sg19
(lp3250
sg21
I00
sg22
V
sg23
I00
sg24
S'L'
sbsg25
(irule
OffsetSpecification
p3251
(dp3252
g28
I1
sbsg29
(irule
Guard
p3253
(dp3254
g18
I00
sg19
(lp3255
(irule
FeatureMatrix
p3256
(dp3257
g35
(lp3258
(I00
g2750
tp3259
a(I00
g2515
tp3260
asg22
V[ -low -voice ]
p3261
sbasg21
I00
sg22
g3261
sg23
I00
sg24
S'R'
sbsg40
(irule
FeatureMatrix
p3262
(dp3263
g35
(lp3264
(I01
g2587
tp3265
asg22
V[ +anterior ]
p3266
sbsg22
V[ +anterior ] ---> 1 /  _ [ -low -voice ]
p3267
sba(irule
Rule
p3268
(dp3269
g15
(irule
Guard
p3270
(dp3271
g18
I00
sg19
(lp3272
sg21
I00
sg22
V
sg23
I00
sg24
S'L'
sbsg25
(irule
OffsetSpecification
p3273
(dp3274
g28
I1
sbsg29
(irule
Guard
p3275
(dp3276
g18
I00
sg19
(lp3277
(irule
FeatureMatrix
p3278
(dp3279
g35
(lp3280
(I00
g2674
tp3281
a(I00
g2515
tp3282
asg22
V[ -tense -voice ]
p3283
sbasg21
I00
sg22
g3283
sg23
I00
sg24
S'R'
sbsg40
(irule
FeatureMatrix
p3284
(dp3285
g35
(lp3286
(I01
g2565
tp3287
asg22
V[ +nasal ]
p3288
sbsg22
V[ +nasal ] ---> 1 /  _ [ -tense -voice ]
p3289
sba(irule
Rule
p3290
(dp3291
g15
(irule
Guard
p3292
(dp3293
g18
I00
sg19
(lp3294
sg21
I00
sg22
V
sg23
I00
sg24
S'L'
sbsg25
(irule
OffsetSpecification
p3295
(dp3296
g28
I1
sbsg29
(irule
Guard
p3297
(dp3298
g18
I00
sg19
(lp3299
(irule
FeatureMatrix
p3300
(dp3301
g35
(lp3302
(I00
g2515
tp3303
asg22
V[ -voice ]
p3304
sbasg21
I00
sg22
g3304
sg23
I00
sg24
S'R'
sbsg40
(irule
FeatureMatrix
p3305
(dp3306
g35
(lp3307
(I01
g2587
tp3308
a(I00
g3121
tp3309
asg22
V[ +anterior -back ]
p3310
sbsg22
V[ +anterior -back ] ---> 1 /  _ [ -voice ]
p3311
sba(irule
Rule
p3312
(dp3313
g15
(irule
Guard
p3314
(dp3315
g18
I00
sg19
(lp3316
sg21
I00
sg22
V
sg23
I00
sg24
S'L'
sbsg25
(irule
OffsetSpecification
p3317
(dp3318
g28
I1
sbsg29
(irule
Guard
p3319
(dp3320
g18
I00
sg19
(lp3321
(irule
FeatureMatrix
p3322
(dp3323
g35
(lp3324
(I00
g2515
tp3325
asg22
V[ -voice ]
p3326
sbasg21
I00
sg22
g3326
sg23
I00
sg24
S'R'
sbsg40
(irule
FeatureMatrix
p3327
(dp3328
g35
(lp3329
(I00
g3166
tp3330
a(I00
g2521
tp3331
asg22
V[ -high -vowel ]
p3332
sbsg22
V[ -high -vowel ] ---> 1 /  _ [ -voice ]
p3333
sba(irule
Rule
p3334
(dp3335
g15
(irule
Guard
p3336
(dp3337
g18
I00
sg19
(lp3338
sg21
I00
sg22
V
sg23
I00
sg24
S'L'
sbsg25
(irule
OffsetSpecification
p3339
(dp3340
g28
I1
sbsg29
(irule
Guard
p3341
(dp3342
g18
I00
sg19
(lp3343
(irule
FeatureMatrix
p3344
(dp3345
g35
(lp3346
(I00
g3166
tp3347
a(I00
g2515
tp3348
asg22
V[ -high -voice ]
p3349
sbasg21
I00
sg22
g3349
sg23
I00
sg24
S'R'
sbsg40
(irule
FeatureMatrix
p3350
(dp3351
g35
(lp3352
(I00
g2674
tp3353
asg22
V[ -tense ]
p3354
sbsg22
V[ -tense ] ---> 1 /  _ [ -high -voice ]
p3355
sba(irule
Rule
p3356
(dp3357
g15
(irule
Guard
p3358
(dp3359
g18
I00
sg19
(lp3360
sg21
I00
sg22
V
sg23
I00
sg24
S'L'
sbsg25
(irule
OffsetSpecification
p3361
(dp3362
g28
I1
sbsg29
(irule
Guard
p3363
(dp3364
g18
I00
sg19
(lp3365
(irule
FeatureMatrix
p3366
(dp3367
g35
(lp3368
(I00
g2674
tp3369
a(I00
g2515
tp3370
asg22
V[ -tense -voice ]
p3371
sbasg21
I00
sg22
g3371
sg23
I00
sg24
S'R'
sbsg40
(irule
FeatureMatrix
p3372
(dp3373
g35
(lp3374
(I01
g2587
tp3375
asg22
V[ +anterior ]
p3376
sbsg22
V[ +anterior ] ---> 1 /  _ [ -tense -voice ]
p3377
sba(irule
Rule
p3378
(dp3379
g15
(irule
Guard
p3380
(dp3381
g18
I00
sg19
(lp3382
sg21
I00
sg22
V
sg23
I00
sg24
S'L'
sbsg25
(irule
OffsetSpecification
p3383
(dp3384
g28
I1
sbsg29
(irule
Guard
p3385
(dp3386
g18
I00
sg19
(lp3387
(irule
FeatureMatrix
p3388
(dp3389
g35
(lp3390
(I00
g2515
tp3391
asg22
V[ -voice ]
p3392
sbasg21
I00
sg22
g3392
sg23
I00
sg24
S'R'
sbsg40
(irule
FeatureMatrix
p3393
(dp3394
g35
(lp3395
(I00
g2543
tp3396
a(I01
g2851
tp3397
asg22
V[ +sonorant -continuant ]
p3398
sbsg22
V[ +sonorant -continuant ] ---> 1 /  _ [ -voice ]
p3399
sba(irule
Rule
p3400
(dp3401
g15
(irule
Guard
p3402
(dp3403
g18
I00
sg19
(lp3404
sg21
I00
sg22
V
sg23
I00
sg24
S'L'
sbsg25
(irule
OffsetSpecification
p3405
(dp3406
g28
I1
sbsg29
(irule
Guard
p3407
(dp3408
g18
I00
sg19
(lp3409
(irule
FeatureMatrix
p3410
(dp3411
g35
(lp3412
(I00
g2515
tp3413
asg22
V[ -voice ]
p3414
sbasg21
I00
sg22
g3414
sg23
I00
sg24
S'R'
sbsg40
(irule
FeatureMatrix
p3415
(dp3416
g35
(lp3417
(I01
g2851
tp3418
a(I00
g2521
tp3419
asg22
V[ +sonorant -vowel ]
p3420
sbsg22
V[ +sonorant -vowel ] ---> 1 /  _ [ -voice ]
p3421
sba(irule
Rule
p3422
(dp3423
g15
(irule
Guard
p3424
(dp3425
g18
I00
sg19
(lp3426
sg21
I00
sg22
V
sg23
I00
sg24
S'L'
sbsg25
(irule
OffsetSpecification
p3427
(dp3428
g28
I1
sbsg29
(irule
Guard
p3429
(dp3430
g18
I00
sg19
(lp3431
(irule
FeatureMatrix
p3432
(dp3433
g35
(lp3434
(I00
g2515
tp3435
asg22
V[ -voice ]
p3436
sbasg21
I00
sg22
g3436
sg23
I00
sg24
S'R'
sbsg40
(irule
FeatureMatrix
p3437
(dp3438
g35
(lp3439
(I00
S'rounded'
p3440
tp3441
a(I00
g2521
tp3442
asg22
V[ -rounded -vowel ]
p3443
sbsg22
V[ -rounded -vowel ] ---> 1 /  _ [ -voice ]
p3444
sba(irule
Rule
p3445
(dp3446
g15
(irule
Guard
p3447
(dp3448
g18
I00
sg19
(lp3449
sg21
I00
sg22
V
sg23
I00
sg24
S'L'
sbsg25
(irule
OffsetSpecification
p3450
(dp3451
g28
I1
sbsg29
(irule
Guard
p3452
(dp3453
g18
I00
sg19
(lp3454
(irule
FeatureMatrix
p3455
(dp3456
g35
(lp3457
(I00
g3121
tp3458
a(I00
g2515
tp3459
asg22
V[ -back -voice ]
p3460
sbasg21
I00
sg22
g3460
sg23
I00
sg24
S'R'
sbsg40
(irule
FeatureMatrix
p3461
(dp3462
g35
(lp3463
(I00
g2521
tp3464
asg22
V[ -vowel ]
p3465
sbsg22
V[ -vowel ] ---> 1 /  _ [ -back -voice ]
p3466
sba(irule
Rule
p3467
(dp3468
g15
(irule
Guard
p3469
(dp3470
g18
I00
sg19
(lp3471
sg21
I00
sg22
V
sg23
I00
sg24
S'L'
sbsg25
(irule
OffsetSpecification
p3472
(dp3473
g28
I1
sbsg29
(irule
Guard
p3474
(dp3475
g18
I00
sg19
(lp3476
(irule
FeatureMatrix
p3477
(dp3478
g35
(lp3479
(I01
g2587
tp3480
a(I00
g2515
tp3481
asg22
V[ +anterior -voice ]
p3482
sbasg21
I00
sg22
g3482
sg23
I00
sg24
S'R'
sbsg40
(irule
FeatureMatrix
p3483
(dp3484
g35
(lp3485
(I00
g2521
tp3486
asg22
V[ -vowel ]
p3487
sbsg22
V[ -vowel ] ---> 1 /  _ [ +anterior -voice ]
p3488
sba(irule
Rule
p3489
(dp3490
g15
(irule
Guard
p3491
(dp3492
g18
I00
sg19
(lp3493
sg21
I00
sg22
V
sg23
I00
sg24
S'L'
sbsg25
(irule
OffsetSpecification
p3494
(dp3495
g28
I1
sbsg29
(irule
Guard
p3496
(dp3497
g18
I00
sg19
(lp3498
(irule
FeatureMatrix
p3499
(dp3500
g35
(lp3501
(I00
g2515
tp3502
asg22
V[ -voice ]
p3503
sbasg21
I00
sg22
g3503
sg23
I00
sg24
S'R'
sbsg40
(irule
FeatureMatrix
p3504
(dp3505
g35
(lp3506
(I00
g2543
tp3507
a(I01
g2515
tp3508
asg22
V[ +voice -continuant ]
p3509
sbsg22
V[ +voice -continuant ] ---> 1 /  _ [ -voice ]
p3510
sba(irule
Rule
p3511
(dp3512
g15
(irule
Guard
p3513
(dp3514
g18
I00
sg19
(lp3515
sg21
I00
sg22
V
sg23
I00
sg24
S'L'
sbsg25
(irule
OffsetSpecification
p3516
(dp3517
g28
I1
sbsg29
(irule
Guard
p3518
(dp3519
g18
I00
sg19
(lp3520
(irule
FeatureMatrix
p3521
(dp3522
g35
(lp3523
(I01
g2587
tp3524
a(I00
g2515
tp3525
asg22
V[ +anterior -voice ]
p3526
sbasg21
I00
sg22
g3526
sg23
I00
sg24
S'R'
sbsg40
(irule
FeatureMatrix
p3527
(dp3528
g35
(lp3529
(I00
g2674
tp3530
asg22
V[ -tense ]
p3531
sbsg22
V[ -tense ] ---> 1 /  _ [ +anterior -voice ]
p3532
sba(irule
Rule
p3533
(dp3534
g15
(irule
Guard
p3535
(dp3536
g18
I00
sg19
(lp3537
sg21
I00
sg22
V
sg23
I00
sg24
S'L'
sbsg25
(irule
OffsetSpecification
p3538
(dp3539
g28
I1
sbsg29
(irule
Guard
p3540
(dp3541
g18
I00
sg19
(lp3542
(irule
FeatureMatrix
p3543
(dp3544
g35
(lp3545
(I00
g2515
tp3546
asg22
V[ -voice ]
p3547
sbasg21
I00
sg22
g3547
sg23
I00
sg24
S'R'
sbsg40
(irule
FeatureMatrix
p3548
(dp3549
g35
(lp3550
(I01
g2587
tp3551
a(I00
g2521
tp3552
asg22
V[ +anterior -vowel ]
p3553
sbsg22
V[ +anterior -vowel ] ---> 1 /  _ [ -voice ]
p3554
sba(irule
Rule
p3555
(dp3556
g15
(irule
Guard
p3557
(dp3558
g18
I00
sg19
(lp3559
sg21
I00
sg22
V
sg23
I00
sg24
S'L'
sbsg25
(irule
OffsetSpecification
p3560
(dp3561
g28
I1
sbsg29
(irule
Guard
p3562
(dp3563
g18
I00
sg19
(lp3564
(irule
FeatureMatrix
p3565
(dp3566
g35
(lp3567
(I00
g2515
tp3568
asg22
V[ -voice ]
p3569
sbasg21
I00
sg22
g3569
sg23
I00
sg24
S'R'
sbsg40
(irule
FeatureMatrix
p3570
(dp3571
g35
(lp3572
(I00
g2674
tp3573
a(I00
g2750
tp3574
asg22
V[ -low -tense ]
p3575
sbsg22
V[ -low -tense ] ---> 1 /  _ [ -voice ]
p3576
sba(irule
Rule
p3577
(dp3578
g15
(irule
Guard
p3579
(dp3580
g18
I00
sg19
(lp3581
sg21
I00
sg22
V
sg23
I00
sg24
S'L'
sbsg25
(irule
OffsetSpecification
p3582
(dp3583
g28
I1
sbsg29
(irule
Guard
p3584
(dp3585
g18
I00
sg19
(lp3586
(irule
FeatureMatrix
p3587
(dp3588
g35
(lp3589
(I00
g2515
tp3590
asg22
V[ -voice ]
p3591
sbasg21
I00
sg22
g3591
sg23
I00
sg24
S'R'
sbsg40
(irule
FeatureMatrix
p3592
(dp3593
g35
(lp3594
(I01
g2587
tp3595
a(I00
g3103
tp3596
asg22
V[ +anterior -liquid ]
p3597
sbsg22
V[ +anterior -liquid ] ---> 1 /  _ [ -voice ]
p3598
sba(irule
Rule
p3599
(dp3600
g15
(irule
Guard
p3601
(dp3602
g18
I00
sg19
(lp3603
sg21
I00
sg22
V
sg23
I00
sg24
S'L'
sbsg25
(irule
OffsetSpecification
p3604
(dp3605
g28
I1
sbsg29
(irule
Guard
p3606
(dp3607
g18
I00
sg19
(lp3608
(irule
FeatureMatrix
p3609
(dp3610
g35
(lp3611
(I00
g2515
tp3612
asg22
V[ -voice ]
p3613
sbasg21
I00
sg22
g3613
sg23
I00
sg24
S'R'
sbsg40
(irule
FeatureMatrix
p3614
(dp3615
g35
(lp3616
(I01
g2587
tp3617
a(I00
g2812
tp3618
asg22
V[ +anterior -sibilant ]
p3619
sbsg22
V[ +anterior -sibilant ] ---> 1 /  _ [ -voice ]
p3620
sba(irule
Rule
p3621
(dp3622
g15
(irule
Guard
p3623
(dp3624
g18
I00
sg19
(lp3625
sg21
I00
sg22
V
sg23
I00
sg24
S'L'
sbsg25
(irule
OffsetSpecification
p3626
(dp3627
g28
I1
sbsg29
(irule
Guard
p3628
(dp3629
g18
I00
sg19
(lp3630
(irule
FeatureMatrix
p3631
(dp3632
g35
(lp3633
(I00
g2515
tp3634
asg22
V[ -voice ]
p3635
sbasg21
I00
sg22
g3635
sg23
I00
sg24
S'R'
sbsg40
(irule
FeatureMatrix
p3636
(dp3637
g35
(lp3638
(I01
g2587
tp3639
a(I00
g3440
tp3640
asg22
V[ +anterior -rounded ]
p3641
sbsg22
V[ +anterior -rounded ] ---> 1 /  _ [ -voice ]
p3642
sba(irule
Rule
p3643
(dp3644
g15
(irule
Guard
p3645
(dp3646
g18
I00
sg19
(lp3647
sg21
I00
sg22
V
sg23
I00
sg24
S'L'
sbsg25
(irule
OffsetSpecification
p3648
(dp3649
g28
I1
sbsg29
(irule
Guard
p3650
(dp3651
g18
I00
sg19
(lp3652
(irule
FeatureMatrix
p3653
(dp3654
g35
(lp3655
(I00
g2515
tp3656
asg22
V[ -voice ]
p3657
sba(irule
FeatureMatrix
p3658
(dp3659
g35
(lp3660
sg22
V[  ]
p3661
sbasg21
I00
sg22
V[ -voice ] [  ]
p3662
sg23
I00
sg24
S'R'
sbsg40
(irule
FeatureMatrix
p3663
(dp3664
g35
(lp3665
(I01
g2565
tp3666
asg22
V[ +nasal ]
p3667
sbsg22
V[ +nasal ] ---> 1 /  _ [ -voice ] [  ]
p3668
sba(irule
Rule
p3669
(dp3670
g15
(irule
Guard
p3671
(dp3672
g18
I00
sg19
(lp3673
sg21
I00
sg22
V
sg23
I00
sg24
S'L'
sbsg25
(irule
OffsetSpecification
p3674
(dp3675
g28
I1
sbsg29
(irule
Guard
p3676
(dp3677
g18
I00
sg19
(lp3678
(irule
FeatureMatrix
p3679
(dp3680
g35
(lp3681
(I00
g2515
tp3682
asg22
V[ -voice ]
p3683
sbasg21
I00
sg22
g3683
sg23
I00
sg24
S'R'
sbsg40
(irule
FeatureMatrix
p3684
(dp3685
g35
(lp3686
(I00
g2543
tp3687
a(I00
g3121
tp3688
asg22
V[ -back -continuant ]
p3689
sbsg22
V[ -back -continuant ] ---> 1 /  _ [ -voice ]
p3690
sba(irule
Rule
p3691
(dp3692
g15
(irule
Guard
p3693
(dp3694
g18
I00
sg19
(lp3695
sg21
I00
sg22
V
sg23
I00
sg24
S'L'
sbsg25
(irule
OffsetSpecification
p3696
(dp3697
g28
I1
sbsg29
(irule
Guard
p3698
(dp3699
g18
I00
sg19
(lp3700
(irule
FeatureMatrix
p3701
(dp3702
g35
(lp3703
(I00
g2515
tp3704
asg22
V[ -voice ]
p3705
sbasg21
I00
sg22
g3705
sg23
I00
sg24
S'R'
sbsg40
(irule
FeatureMatrix
p3706
(dp3707
g35
(lp3708
(I01
g2565
tp3709
a(I00
g3166
tp3710
asg22
V[ +nasal -high ]
p3711
sbsg22
V[ +nasal -high ] ---> 1 /  _ [ -voice ]
p3712
sba(irule
Rule
p3713
(dp3714
g15
(irule
Guard
p3715
(dp3716
g18
I00
sg19
(lp3717
sg21
I00
sg22
V
sg23
I00
sg24
S'L'
sbsg25
(irule
OffsetSpecification
p3718
(dp3719
g28
I1
sbsg29
(irule
Guard
p3720
(dp3721
g18
I00
sg19
(lp3722
(irule
FeatureMatrix
p3723
(dp3724
g35
(lp3725
(I00
g2565
tp3726
a(I00
g2515
tp3727
asg22
V[ -nasal -voice ]
p3728
sbasg21
I00
sg22
g3728
sg23
I00
sg24
S'R'
sbsg40
(irule
FeatureMatrix
p3729
(dp3730
g35
(lp3731
(I00
g2521
tp3732
asg22
V[ -vowel ]
p3733
sbsg22
V[ -vowel ] ---> 1 /  _ [ -nasal -voice ]
p3734
sba(irule
Rule
p3735
(dp3736
g15
(irule
Guard
p3737
(dp3738
g18
I00
sg19
(lp3739
sg21
I00
sg22
V
sg23
I00
sg24
S'L'
sbsg25
(irule
OffsetSpecification
p3740
(dp3741
g28
I1
sbsg29
(irule
Guard
p3742
(dp3743
g18
I00
sg19
(lp3744
(irule
FeatureMatrix
p3745
(dp3746
g35
(lp3747
(I00
g2515
tp3748
asg22
V[ -voice ]
p3749
sbasg21
I00
sg22
g3749
sg23
I00
sg24
S'R'
sbsg40
(irule
FeatureMatrix
p3750
(dp3751
g35
(lp3752
(I00
g3166
tp3753
a(I00
g2674
tp3754
asg22
V[ -high -tense ]
p3755
sbsg22
V[ -high -tense ] ---> 1 /  _ [ -voice ]
p3756
sba(irule
Rule
p3757
(dp3758
g15
(irule
Guard
p3759
(dp3760
g18
I00
sg19
(lp3761
sg21
I00
sg22
V
sg23
I00
sg24
S'L'
sbsg25
(irule
OffsetSpecification
p3762
(dp3763
g28
I1
sbsg29
(irule
Guard
p3764
(dp3765
g18
I00
sg19
(lp3766
(irule
FeatureMatrix
p3767
(dp3768
g35
(lp3769
(I00
g2674
tp3770
a(I00
g2515
tp3771
asg22
V[ -tense -voice ]
p3772
sbasg21
I00
sg22
g3772
sg23
I00
sg24
S'R'
sbsg40
(irule
FeatureMatrix
p3773
(dp3774
g35
(lp3775
(I00
g2543
tp3776
asg22
V[ -continuant ]
p3777
sbsg22
V[ -continuant ] ---> 1 /  _ [ -tense -voice ]
p3778
sba(irule
Rule
p3779
(dp3780
g15
(irule
Guard
p3781
(dp3782
g18
I00
sg19
(lp3783
sg21
I00
sg22
V
sg23
I00
sg24
S'L'
sbsg25
(irule
OffsetSpecification
p3784
(dp3785
g28
I1
sbsg29
(irule
Guard
p3786
(dp3787
g18
I00
sg19
(lp3788
(irule
FeatureMatrix
p3789
(dp3790
g35
(lp3791
(I00
g2515
tp3792
asg22
V[ -voice ]
p3793
sbasg21
I00
sg22
g3793
sg23
I00
sg24
S'R'
sbsg40
(irule
FeatureMatrix
p3794
(dp3795
g35
(lp3796
(I00
g2674
tp3797
a(I00
g2521
tp3798
asg22
V[ -tense -vowel ]
p3799
sbsg22
V[ -tense -vowel ] ---> 1 /  _ [ -voice ]
p3800
sba(irule
Rule
p3801
(dp3802
g15
(irule
Guard
p3803
(dp3804
g18
I00
sg19
(lp3805
sg21
I00
sg22
V
sg23
I00
sg24
S'L'
sbsg25
(irule
OffsetSpecification
p3806
(dp3807
g28
I1
sbsg29
(irule
Guard
p3808
(dp3809
g18
I00
sg19
(lp3810
(irule
FeatureMatrix
p3811
(dp3812
g35
(lp3813
(I00
g2515
tp3814
asg22
V[ -voice ]
p3815
sba(irule
FeatureMatrix
p3816
(dp3817
g35
(lp3818
sg22
V[  ]
p3819
sbasg21
I00
sg22
V[ -voice ] [  ]
p3820
sg23
I00
sg24
S'R'
sbsg40
(irule
FeatureMatrix
p3821
(dp3822
g35
(lp3823
(I01
g2587
tp3824
asg22
V[ +anterior ]
p3825
sbsg22
V[ +anterior ] ---> 1 /  _ [ -voice ] [  ]
p3826
sba(irule
Rule
p3827
(dp3828
g15
(irule
Guard
p3829
(dp3830
g18
I00
sg19
(lp3831
sg21
I00
sg22
V
sg23
I00
sg24
S'L'
sbsg25
(irule
OffsetSpecification
p3832
(dp3833
g28
I1
sbsg29
(irule
Guard
p3834
(dp3835
g18
I00
sg19
(lp3836
(irule
FeatureMatrix
p3837
(dp3838
g35
(lp3839
(I00
g2515
tp3840
asg22
V[ -voice ]
p3841
sbasg21
I00
sg22
g3841
sg23
I00
sg24
S'R'
sbsg40
(irule
FeatureMatrix
p3842
(dp3843
g35
(lp3844
(I00
g3121
tp3845
a(I00
g2674
tp3846
asg22
V[ -back -tense ]
p3847
sbsg22
V[ -back -tense ] ---> 1 /  _ [ -voice ]
p3848
sba(irule
Rule
p3849
(dp3850
g15
(irule
Guard
p3851
(dp3852
g18
I00
sg19
(lp3853
sg21
I00
sg22
V
sg23
I00
sg24
S'L'
sbsg25
(irule
OffsetSpecification
p3854
(dp3855
g28
I1
sbsg29
(irule
Guard
p3856
(dp3857
g18
I00
sg19
(lp3858
(irule
FeatureMatrix
p3859
(dp3860
g35
(lp3861
(I00
g2515
tp3862
asg22
V[ -voice ]
p3863
sbasg21
I00
sg22
g3863
sg23
I00
sg24
S'R'
sbsg40
(irule
FeatureMatrix
p3864
(dp3865
g35
(lp3866
(I00
g2543
tp3867
a(I00
g2521
tp3868
asg22
V[ -continuant -vowel ]
p3869
sbsg22
V[ -continuant -vowel ] ---> 1 /  _ [ -voice ]
p3870
sba(irule
Rule
p3871
(dp3872
g15
(irule
Guard
p3873
(dp3874
g18
I00
sg19
(lp3875
sg21
I00
sg22
V
sg23
I00
sg24
S'L'
sbsg25
(irule
OffsetSpecification
p3876
(dp3877
g28
I1
sbsg29
(irule
Guard
p3878
(dp3879
g18
I00
sg19
(lp3880
(irule
FeatureMatrix
p3881
(dp3882
g35
(lp3883
(I00
g2515
tp3884
asg22
V[ -voice ]
p3885
sba(irule
FeatureMatrix
p3886
(dp3887
g35
(lp3888
sg22
V[  ]
p3889
sbasg21
I00
sg22
V[ -voice ] [  ]
p3890
sg23
I00
sg24
S'R'
sbsg40
(irule
FeatureMatrix
p3891
(dp3892
g35
(lp3893
(I00
g2674
tp3894
asg22
V[ -tense ]
p3895
sbsg22
V[ -tense ] ---> 1 /  _ [ -voice ] [  ]
p3896
sba(irule
Rule
p3897
(dp3898
g15
(irule
Guard
p3899
(dp3900
g18
I00
sg19
(lp3901
sg21
I00
sg22
V
sg23
I00
sg24
S'L'
sbsg25
(irule
OffsetSpecification
p3902
(dp3903
g28
I1
sbsg29
(irule
Guard
p3904
(dp3905
g18
I00
sg19
(lp3906
(irule
FeatureMatrix
p3907
(dp3908
g35
(lp3909
(I00
g2515
tp3910
asg22
V[ -voice ]
p3911
sbasg21
I00
sg22
g3911
sg23
I00
sg24
S'R'
sbsg40
(irule
FeatureMatrix
p3912
(dp3913
g35
(lp3914
(I00
g2674
tp3915
a(I00
g2812
tp3916
asg22
V[ -sibilant -tense ]
p3917
sbsg22
V[ -sibilant -tense ] ---> 1 /  _ [ -voice ]
p3918
sba(irule
Rule
p3919
(dp3920
g15
(irule
Guard
p3921
(dp3922
g18
I00
sg19
(lp3923
sg21
I00
sg22
V
sg23
I00
sg24
S'L'
sbsg25
(irule
OffsetSpecification
p3924
(dp3925
g28
I1
sbsg29
(irule
Guard
p3926
(dp3927
g18
I00
sg19
(lp3928
(irule
FeatureMatrix
p3929
(dp3930
g35
(lp3931
(I00
g2515
tp3932
asg22
V[ -voice ]
p3933
sbasg21
I00
sg22
g3933
sg23
I00
sg24
S'R'
sbsg40
(irule
FeatureMatrix
p3934
(dp3935
g35
(lp3936
(I01
g2587
tp3937
a(I01
g2515
tp3938
asg22
V[ +anterior +voice ]
p3939
sbsg22
V[ +anterior +voice ] ---> 1 /  _ [ -voice ]
p3940
sba(irule
Rule
p3941
(dp3942
g15
(irule
Guard
p3943
(dp3944
g18
I00
sg19
(lp3945
sg21
I00
sg22
V
sg23
I00
sg24
S'L'
sbsg25
(irule
OffsetSpecification
p3946
(dp3947
g28
I1
sbsg29
(irule
Guard
p3948
(dp3949
g18
I00
sg19
(lp3950
(irule
FeatureMatrix
p3951
(dp3952
g35
(lp3953
(I00
g2515
tp3954
asg22
V[ -voice ]
p3955
sbasg21
I00
sg22
g3955
sg23
I00
sg24
S'R'
sbsg40
(irule
FeatureMatrix
p3956
(dp3957
g35
(lp3958
(I00
g2674
tp3959
a(I01
g2515
tp3960
asg22
V[ +voice -tense ]
p3961
sbsg22
V[ +voice -tense ] ---> 1 /  _ [ -voice ]
p3962
sba(irule
Rule
p3963
(dp3964
g15
(irule
Guard
p3965
(dp3966
g18
I00
sg19
(lp3967
sg21
I00
sg22
V
sg23
I00
sg24
S'L'
sbsg25
(irule
OffsetSpecification
p3968
(dp3969
g28
I1
sbsg29
(irule
Guard
p3970
(dp3971
g18
I00
sg19
(lp3972
(irule
FeatureMatrix
p3973
(dp3974
g35
(lp3975
(I00
g3103
tp3976
a(I00
g2515
tp3977
asg22
V[ -liquid -voice ]
p3978
sbasg21
I00
sg22
g3978
sg23
I00
sg24
S'R'
sbsg40
(irule
FeatureMatrix
p3979
(dp3980
g35
(lp3981
(I00
g2521
tp3982
asg22
V[ -vowel ]
p3983
sbsg22
V[ -vowel ] ---> 1 /  _ [ -liquid -voice ]
p3984
sba(irule
Rule
p3985
(dp3986
g15
(irule
Guard
p3987
(dp3988
g18
I00
sg19
(lp3989
sg21
I00
sg22
V
sg23
I00
sg24
S'L'
sbsg25
(irule
OffsetSpecification
p3990
(dp3991
g28
I1
sbsg29
(irule
Guard
p3992
(dp3993
g18
I00
sg19
(lp3994
(irule
FeatureMatrix
p3995
(dp3996
g35
(lp3997
(I00
g3121
tp3998
a(I00
g2515
tp3999
asg22
V[ -back -voice ]
p4000
sbasg21
I00
sg22
g4000
sg23
I00
sg24
S'R'
sbsg40
(irule
FeatureMatrix
p4001
(dp4002
g35
(lp4003
(I00
g2543
tp4004
asg22
V[ -continuant ]
p4005
sbsg22
V[ -continuant ] ---> 1 /  _ [ -back -voice ]
p4006
sba(irule
Rule
p4007
(dp4008
g15
(irule
Guard
p4009
(dp4010
g18
I00
sg19
(lp4011
sg21
I00
sg22
V
sg23
I00
sg24
S'L'
sbsg25
(irule
OffsetSpecification
p4012
(dp4013
g28
I1
sbsg29
(irule
Guard
p4014
(dp4015
g18
I00
sg19
(lp4016
(irule
FeatureMatrix
p4017
(dp4018
g35
(lp4019
(I00
g2515
tp4020
asg22
V[ -voice ]
p4021
sbasg21
I00
sg22
g4021
sg23
I00
sg24
S'R'
sbsg40
(irule
FeatureMatrix
p4022
(dp4023
g35
(lp4024
(I01
g2565
tp4025
a(I01
g2851
tp4026
asg22
V[ +nasal +sonorant ]
p4027
sbsg22
V[ +nasal +sonorant ] ---> 1 /  _ [ -voice ]
p4028
sba(irule
Rule
p4029
(dp4030
g15
(irule
Guard
p4031
(dp4032
g18
I00
sg19
(lp4033
sg21
I00
sg22
V
sg23
I00
sg24
S'L'
sbsg25
(irule
OffsetSpecification
p4034
(dp4035
g28
I1
sbsg29
(irule
Guard
p4036
(dp4037
g18
I00
sg19
(lp4038
(irule
FeatureMatrix
p4039
(dp4040
g35
(lp4041
(I00
g2515
tp4042
asg22
V[ -voice ]
p4043
sbasg21
I00
sg22
g4043
sg23
I00
sg24
S'R'
sbsg40
(irule
FeatureMatrix
p4044
(dp4045
g35
(lp4046
(I01
g2565
tp4047
a(I01
g2515
tp4048
asg22
V[ +nasal +voice ]
p4049
sbsg22
V[ +nasal +voice ] ---> 1 /  _ [ -voice ]
p4050
sba(irule
Rule
p4051
(dp4052
g15
(irule
Guard
p4053
(dp4054
g18
I00
sg19
(lp4055
sg21
I00
sg22
V
sg23
I00
sg24
S'L'
sbsg25
(irule
OffsetSpecification
p4056
(dp4057
g28
I1
sbsg29
(irule
Guard
p4058
(dp4059
g18
I00
sg19
(lp4060
(irule
FeatureMatrix
p4061
(dp4062
g35
(lp4063
(I00
g2515
tp4064
asg22
V[ -voice ]
p4065
sbasg21
I00
sg22
g4065
sg23
I00
sg24
S'R'
sbsg40
(irule
FeatureMatrix
p4066
(dp4067
g35
(lp4068
(I01
g2565
tp4069
a(I00
g2750
tp4070
asg22
V[ +nasal -low ]
p4071
sbsg22
V[ +nasal -low ] ---> 1 /  _ [ -voice ]
p4072
sba(irule
Rule
p4073
(dp4074
g15
(irule
Guard
p4075
(dp4076
g18
I00
sg19
(lp4077
sg21
I00
sg22
V
sg23
I00
sg24
S'L'
sbsg25
(irule
OffsetSpecification
p4078
(dp4079
g28
I1
sbsg29
(irule
Guard
p4080
(dp4081
g18
I00
sg19
(lp4082
(irule
FeatureMatrix
p4083
(dp4084
g35
(lp4085
(I00
g3121
tp4086
a(I00
g2515
tp4087
asg22
V[ -back -voice ]
p4088
sbasg21
I00
sg22
g4088
sg23
I00
sg24
S'R'
sbsg40
(irule
FeatureMatrix
p4089
(dp4090
g35
(lp4091
(I01
g2587
tp4092
asg22
V[ +anterior ]
p4093
sbsg22
V[ +anterior ] ---> 1 /  _ [ -back -voice ]
p4094
sba(irule
Rule
p4095
(dp4096
g15
(irule
Guard
p4097
(dp4098
g18
I00
sg19
(lp4099
sg21
I00
sg22
V
sg23
I00
sg24
S'L'
sbsg25
(irule
OffsetSpecification
p4100
(dp4101
g28
I1
sbsg29
(irule
Guard
p4102
(dp4103
g18
I00
sg19
(lp4104
(irule
FeatureMatrix
p4105
(dp4106
g35
(lp4107
(I00
g2515
tp4108
asg22
V[ -voice ]
p4109
sbasg21
I00
sg22
g4109
sg23
I00
sg24
S'R'
sbsg40
(irule
FeatureMatrix
p4110
(dp4111
g35
(lp4112
(I01
g2565
tp4113
a(I00
g2521
tp4114
asg22
V[ +nasal -vowel ]
p4115
sbsg22
V[ +nasal -vowel ] ---> 1 /  _ [ -voice ]
p4116
sba(irule
Rule
p4117
(dp4118
g15
(irule
Guard
p4119
(dp4120
g18
I00
sg19
(lp4121
sg21
I00
sg22
V
sg23
I00
sg24
S'L'
sbsg25
(irule
OffsetSpecification
p4122
(dp4123
g28
I1
sbsg29
(irule
Guard
p4124
(dp4125
g18
I00
sg19
(lp4126
(irule
FeatureMatrix
p4127
(dp4128
g35
(lp4129
(I00
g3440
tp4130
a(I00
g2515
tp4131
asg22
V[ -rounded -voice ]
p4132
sbasg21
I00
sg22
g4132
sg23
I00
sg24
S'R'
sbsg40
(irule
FeatureMatrix
p4133
(dp4134
g35
(lp4135
(I00
g2521
tp4136
asg22
V[ -vowel ]
p4137
sbsg22
V[ -vowel ] ---> 1 /  _ [ -rounded -voice ]
p4138
sba(irule
Rule
p4139
(dp4140
g15
(irule
Guard
p4141
(dp4142
g18
I00
sg19
(lp4143
sg21
I00
sg22
V
sg23
I00
sg24
S'L'
sbsg25
(irule
OffsetSpecification
p4144
(dp4145
g28
I1
sbsg29
(irule
Guard
p4146
(dp4147
g18
I00
sg19
(lp4148
(irule
FeatureMatrix
p4149
(dp4150
g35
(lp4151
(I00
g2515
tp4152
asg22
V[ -voice ]
p4153
sbasg21
I00
sg22
g4153
sg23
I00
sg24
S'R'
sbsg40
(irule
FeatureMatrix
p4154
(dp4155
g35
(lp4156
(I00
g3103
tp4157
a(I01
g2565
tp4158
asg22
V[ +nasal -liquid ]
p4159
sbsg22
V[ +nasal -liquid ] ---> 1 /  _ [ -voice ]
p4160
sba(irule
Rule
p4161
(dp4162
g15
(irule
Guard
p4163
(dp4164
g18
I00
sg19
(lp4165
sg21
I00
sg22
V
sg23
I00
sg24
S'L'
sbsg25
(irule
OffsetSpecification
p4166
(dp4167
g28
I1
sbsg29
(irule
Guard
p4168
(dp4169
g18
I00
sg19
(lp4170
(irule
FeatureMatrix
p4171
(dp4172
g35
(lp4173
(I00
g2515
tp4174
asg22
V[ -voice ]
p4175
sbasg21
I00
sg22
g4175
sg23
I00
sg24
S'R'
sbsg40
(irule
FeatureMatrix
p4176
(dp4177
g35
(lp4178
(I00
g3103
tp4179
a(I00
g2543
tp4180
asg22
V[ -continuant -liquid ]
p4181
sbsg22
V[ -continuant -liquid ] ---> 1 /  _ [ -voice ]
p4182
sba(irule
Rule
p4183
(dp4184
g15
(irule
Guard
p4185
(dp4186
g18
I00
sg19
(lp4187
sg21
I00
sg22
V
sg23
I00
sg24
S'L'
sbsg25
(irule
OffsetSpecification
p4188
(dp4189
g28
I1
sbsg29
(irule
Guard
p4190
(dp4191
g18
I00
sg19
(lp4192
(irule
FeatureMatrix
p4193
(dp4194
g35
(lp4195
(I00
g2515
tp4196
asg22
V[ -voice ]
p4197
sbasg21
I00
sg22
g4197
sg23
I00
sg24
S'R'
sbsg40
(irule
FeatureMatrix
p4198
(dp4199
g35
(lp4200
(I00
g2543
tp4201
a(I00
g2750
tp4202
asg22
V[ -continuant -low ]
p4203
sbsg22
V[ -continuant -low ] ---> 1 /  _ [ -voice ]
p4204
sba(irule
Rule
p4205
(dp4206
g15
(irule
Guard
p4207
(dp4208
g18
I00
sg19
(lp4209
sg21
I00
sg22
V
sg23
I00
sg24
S'L'
sbsg25
(irule
OffsetSpecification
p4210
(dp4211
g28
I1
sbsg29
(irule
Guard
p4212
(dp4213
g18
I00
sg19
(lp4214
(irule
FeatureMatrix
p4215
(dp4216
g35
(lp4217
(I00
g2515
tp4218
asg22
V[ -voice ]
p4219
sbasg21
I00
sg22
g4219
sg23
I00
sg24
S'R'
sbsg40
(irule
FeatureMatrix
p4220
(dp4221
g35
(lp4222
(I00
g3103
tp4223
a(I00
g2674
tp4224
asg22
V[ -liquid -tense ]
p4225
sbsg22
V[ -liquid -tense ] ---> 1 /  _ [ -voice ]
p4226
sba(irule
Rule
p4227
(dp4228
g15
(irule
Guard
p4229
(dp4230
g18
I00
sg19
(lp4231
sg21
I00
sg22
V
sg23
I00
sg24
S'L'
sbsg25
(irule
OffsetSpecification
p4232
(dp4233
g28
I1
sbsg29
(irule
Guard
p4234
(dp4235
g18
I00
sg19
(lp4236
(irule
FeatureMatrix
p4237
(dp4238
g35
(lp4239
(I00
g2521
tp4240
a(I00
g2515
tp4241
asg22
V[ -voice -vowel ]
p4242
sbasg21
I00
sg22
g4242
sg23
I00
sg24
S'R'
sbsg40
(irule
FeatureMatrix
p4243
(dp4244
g35
(lp4245
(I00
g2674
tp4246
asg22
V[ -tense ]
p4247
sbsg22
V[ -tense ] ---> 1 /  _ [ -voice -vowel ]
p4248
sba(irule
Rule
p4249
(dp4250
g15
(irule
Guard
p4251
(dp4252
g18
I00
sg19
(lp4253
sg21
I00
sg22
V
sg23
I00
sg24
S'L'
sbsg25
(irule
OffsetSpecification
p4254
(dp4255
g28
I1
sbsg29
(irule
Guard
p4256
(dp4257
g18
I00
sg19
(lp4258
(irule
FeatureMatrix
p4259
(dp4260
g35
(lp4261
(I00
g2515
tp4262
asg22
V[ -voice ]
p4263
sbasg21
I00
sg22
g4263
sg23
I00
sg24
S'R'
sbsg40
(irule
FeatureMatrix
p4264
(dp4265
g35
(lp4266
(I01
g2851
tp4267
a(I00
g2674
tp4268
asg22
V[ +sonorant -tense ]
p4269
sbsg22
V[ +sonorant -tense ] ---> 1 /  _ [ -voice ]
p4270
sba(irule
Rule
p4271
(dp4272
g15
(irule
Guard
p4273
(dp4274
g18
I00
sg19
(lp4275
sg21
I00
sg22
V
sg23
I00
sg24
S'L'
sbsg25
(irule
OffsetSpecification
p4276
(dp4277
g28
I1
sbsg29
(irule
Guard
p4278
(dp4279
g18
I00
sg19
(lp4280
(irule
FeatureMatrix
p4281
(dp4282
g35
(lp4283
(I00
g3166
tp4284
a(I00
g2515
tp4285
asg22
V[ -high -voice ]
p4286
sbasg21
I00
sg22
g4286
sg23
I00
sg24
S'R'
sbsg40
(irule
FeatureMatrix
p4287
(dp4288
g35
(lp4289
(I01
g2565
tp4290
asg22
V[ +nasal ]
p4291
sbsg22
V[ +nasal ] ---> 1 /  _ [ -high -voice ]
p4292
sba(irule
Rule
p4293
(dp4294
g15
(irule
Guard
p4295
(dp4296
g18
I00
sg19
(lp4297
sg21
I00
sg22
V
sg23
I00
sg24
S'L'
sbsg25
(irule
OffsetSpecification
p4298
(dp4299
g28
I1
sbsg29
(irule
Guard
p4300
(dp4301
g18
I00
sg19
(lp4302
(irule
FeatureMatrix
p4303
(dp4304
g35
(lp4305
(I00
g2515
tp4306
asg22
V[ -voice ]
p4307
sbasg21
I00
sg22
g4307
sg23
I00
sg24
S'R'
sbsg40
(irule
FeatureMatrix
p4308
(dp4309
g35
(lp4310
(I00
g3440
tp4311
a(I00
g2543
tp4312
asg22
V[ -continuant -rounded ]
p4313
sbsg22
V[ -continuant -rounded ] ---> 1 /  _ [ -voice ]
p4314
sba(irule
Rule
p4315
(dp4316
g15
(irule
Guard
p4317
(dp4318
g18
I00
sg19
(lp4319
sg21
I00
sg22
V
sg23
I00
sg24
S'L'
sbsg25
(irule
OffsetSpecification
p4320
(dp4321
g28
I1
sbsg29
(irule
Guard
p4322
(dp4323
g18
I00
sg19
(lp4324
(irule
FeatureMatrix
p4325
(dp4326
g35
(lp4327
(I00
g2674
tp4328
a(I00
g2515
tp4329
asg22
V[ -tense -voice ]
p4330
sbasg21
I00
sg22
g4330
sg23
I00
sg24
S'R'
sbsg40
(irule
FeatureMatrix
p4331
(dp4332
g35
(lp4333
(I00
g2674
tp4334
asg22
V[ -tense ]
p4335
sbsg22
V[ -tense ] ---> 1 /  _ [ -tense -voice ]
p4336
sba(irule
Rule
p4337
(dp4338
g15
(irule
Guard
p4339
(dp4340
g18
I00
sg19
(lp4341
sg21
I00
sg22
V
sg23
I00
sg24
S'L'
sbsg25
(irule
OffsetSpecification
p4342
(dp4343
g28
I1
sbsg29
(irule
Guard
p4344
(dp4345
g18
I00
sg19
(lp4346
(irule
FeatureMatrix
p4347
(dp4348
g35
(lp4349
(I00
g2515
tp4350
asg22
V[ -voice ]
p4351
sbasg21
I00
sg22
g4351
sg23
I00
sg24
S'R'
sbsg40
(irule
FeatureMatrix
p4352
(dp4353
g35
(lp4354
(I00
g2543
tp4355
a(I01
g2565
tp4356
asg22
V[ +nasal -continuant ]
p4357
sbsg22
V[ +nasal -continuant ] ---> 1 /  _ [ -voice ]
p4358
sba(irule
Rule
p4359
(dp4360
g15
(irule
Guard
p4361
(dp4362
g18
I00
sg19
(lp4363
sg21
I00
sg22
V
sg23
I00
sg24
S'L'
sbsg25
(irule
OffsetSpecification
p4364
(dp4365
g28
I1
sbsg29
(irule
Guard
p4366
(dp4367
g18
I00
sg19
(lp4368
(irule
FeatureMatrix
p4369
(dp4370
g35
(lp4371
(I00
g2515
tp4372
asg22
V[ -voice ]
p4373
sbasg21
I00
sg22
g4373
sg23
I00
sg24
S'R'
sbsg40
(irule
FeatureMatrix
p4374
(dp4375
g35
(lp4376
(I01
g2565
tp4377
a(I00
g3121
tp4378
asg22
V[ +nasal -back ]
p4379
sbsg22
V[ +nasal -back ] ---> 1 /  _ [ -voice ]
p4380
sba(irule
Rule
p4381
(dp4382
g15
(irule
Guard
p4383
(dp4384
g18
I00
sg19
(lp4385
sg21
I00
sg22
V
sg23
I00
sg24
S'L'
sbsg25
(irule
OffsetSpecification
p4386
(dp4387
g28
I1
sbsg29
(irule
Guard
p4388
(dp4389
g18
I00
sg19
(lp4390
(irule
FeatureMatrix
p4391
(dp4392
g35
(lp4393
(I00
g2515
tp4394
asg22
V[ -voice ]
p4395
sbasg21
I00
sg22
g4395
sg23
I00
sg24
S'R'
sbsg40
(irule
FeatureMatrix
p4396
(dp4397
g35
(lp4398
(I00
g3440
tp4399
a(I00
g2674
tp4400
asg22
V[ -rounded -tense ]
p4401
sbsg22
V[ -rounded -tense ] ---> 1 /  _ [ -voice ]
p4402
sba(irule
Rule
p4403
(dp4404
g15
(irule
Guard
p4405
(dp4406
g18
I00
sg19
(lp4407
sg21
I00
sg22
V
sg23
I00
sg24
S'L'
sbsg25
(irule
OffsetSpecification
p4408
(dp4409
g28
I1
sbsg29
(irule
Guard
p4410
(dp4411
g18
I00
sg19
(lp4412
(irule
FeatureMatrix
p4413
(dp4414
g35
(lp4415
(I00
g2515
tp4416
asg22
V[ -voice ]
p4417
sbasg21
I00
sg22
g4417
sg23
I00
sg24
S'R'
sbsg40
(irule
FeatureMatrix
p4418
(dp4419
g35
(lp4420
(I00
g3440
tp4421
a(I01
g2565
tp4422
asg22
V[ +nasal -rounded ]
p4423
sbsg22
V[ +nasal -rounded ] ---> 1 /  _ [ -voice ]
p4424
sba(irule
Rule
p4425
(dp4426
g15
(irule
Guard
p4427
(dp4428
g18
I00
sg19
(lp4429
sg21
I00
sg22
V
sg23
I00
sg24
S'L'
sbsg25
(irule
OffsetSpecification
p4430
(dp4431
g28
I1
sbsg29
(irule
Guard
p4432
(dp4433
g18
I00
sg19
(lp4434
(irule
FeatureMatrix
p4435
(dp4436
g35
(lp4437
(I00
g2565
tp4438
a(I00
g2515
tp4439
asg22
V[ -nasal -voice ]
p4440
sbasg21
I00
sg22
g4440
sg23
I00
sg24
S'R'
sbsg40
(irule
FeatureMatrix
p4441
(dp4442
g35
(lp4443
(I00
g2543
tp4444
asg22
V[ -continuant ]
p4445
sbsg22
V[ -continuant ] ---> 1 /  _ [ -nasal -voice ]
p4446
sba(irule
Rule
p4447
(dp4448
g15
(irule
Guard
p4449
(dp4450
g18
I00
sg19
(lp4451
sg21
I00
sg22
V
sg23
I00
sg24
S'L'
sbsg25
(irule
OffsetSpecification
p4452
(dp4453
g28
I1
sbsg29
(irule
Guard
p4454
(dp4455
g18
I00
sg19
(lp4456
(irule
FeatureMatrix
p4457
(dp4458
g35
(lp4459
(I00
g2851
tp4460
a(I00
g2515
tp4461
asg22
V[ -sonorant -voice ]
p4462
sbasg21
I00
sg22
g4462
sg23
I00
sg24
S'R'
sbsg40
(irule
FeatureMatrix
p4463
(dp4464
g35
(lp4465
(I01
g2587
tp4466
asg22
V[ +anterior ]
p4467
sbsg22
V[ +anterior ] ---> 1 /  _ [ -sonorant -voice ]
p4468
sba(irule
Rule
p4469
(dp4470
g15
(irule
Guard
p4471
(dp4472
g18
I00
sg19
(lp4473
sg21
I00
sg22
V
sg23
I00
sg24
S'L'
sbsg25
(irule
OffsetSpecification
p4474
(dp4475
g28
I1
sbsg29
(irule
Guard
p4476
(dp4477
g18
I00
sg19
(lp4478
(irule
FeatureMatrix
p4479
(dp4480
g35
(lp4481
(I00
g2515
tp4482
asg22
V[ -voice ]
p4483
sbasg21
I00
sg22
g4483
sg23
I00
sg24
S'R'
sbsg40
(irule
FeatureMatrix
p4484
(dp4485
g35
(lp4486
(I00
g2543
tp4487
a(I00
g3166
tp4488
asg22
V[ -continuant -high ]
p4489
sbsg22
V[ -continuant -high ] ---> 1 /  _ [ -voice ]
p4490
sba(irule
Rule
p4491
(dp4492
g15
(irule
Guard
p4493
(dp4494
g18
I00
sg19
(lp4495
sg21
I00
sg22
V
sg23
I00
sg24
S'L'
sbsg25
(irule
OffsetSpecification
p4496
(dp4497
g28
I1
sbsg29
(irule
Guard
p4498
(dp4499
g18
I00
sg19
(lp4500
(irule
FeatureMatrix
p4501
(dp4502
g35
(lp4503
(I00
g3166
tp4504
a(I00
g2515
tp4505
asg22
V[ -high -voice ]
p4506
sbasg21
I00
sg22
g4506
sg23
I00
sg24
S'R'
sbsg40
(irule
FeatureMatrix
p4507
(dp4508
g35
(lp4509
(I00
g2543
tp4510
asg22
V[ -continuant ]
p4511
sbsg22
V[ -continuant ] ---> 1 /  _ [ -high -voice ]
p4512
sba(irule
Rule
p4513
(dp4514
g15
(irule
Guard
p4515
(dp4516
g18
I00
sg19
(lp4517
sg21
I00
sg22
V
sg23
I00
sg24
S'L'
sbsg25
(irule
OffsetSpecification
p4518
(dp4519
g28
I1
sbsg29
(irule
Guard
p4520
(dp4521
g18
I00
sg19
(lp4522
(irule
FeatureMatrix
p4523
(dp4524
g35
(lp4525
(I00
g2515
tp4526
asg22
V[ -voice ]
p4527
sbasg21
I00
sg22
g4527
sg23
I00
sg24
S'R'
sbsg40
(irule
FeatureMatrix
p4528
(dp4529
g35
(lp4530
(I01
g2587
tp4531
a(I01
g2565
tp4532
asg22
V[ +anterior +nasal ]
p4533
sbsg22
V[ +anterior +nasal ] ---> 1 /  _ [ -voice ]
p4534
sba(irule
Rule
p4535
(dp4536
g15
(irule
Guard
p4537
(dp4538
g18
I00
sg19
(lp4539
sg21
I00
sg22
V
sg23
I00
sg24
S'L'
sbsg25
(irule
OffsetSpecification
p4540
(dp4541
g28
I1
sbsg29
(irule
Guard
p4542
(dp4543
g18
I00
sg19
(lp4544
(irule
FeatureMatrix
p4545
(dp4546
g35
(lp4547
(I00
g2515
tp4548
asg22
V[ -voice ]
p4549
sbasg21
I00
sg22
g4549
sg23
I00
sg24
S'R'
sbsg40
(irule
FeatureMatrix
p4550
(dp4551
g35
(lp4552
(I01
g2587
tp4553
a(I00
g2750
tp4554
asg22
V[ +anterior -low ]
p4555
sbsg22
V[ +anterior -low ] ---> 1 /  _ [ -voice ]
p4556
sba(irule
Rule
p4557
(dp4558
g15
(irule
Guard
p4559
(dp4560
g18
I00
sg19
(lp4561
sg21
I00
sg22
V
sg23
I00
sg24
S'L'
sbsg25
(irule
OffsetSpecification
p4562
(dp4563
g28
I1
sbsg29
(irule
Guard
p4564
(dp4565
g18
I00
sg19
(lp4566
(irule
FeatureMatrix
p4567
(dp4568
g35
(lp4569
(I00
g2515
tp4570
asg22
V[ -voice ]
p4571
sbasg21
I00
sg22
g4571
sg23
I00
sg24
S'R'
sbsg40
(irule
FeatureMatrix
p4572
(dp4573
g35
(lp4574
(I01
g2587
tp4575
a(I01
g2851
tp4576
asg22
V[ +anterior +sonorant ]
p4577
sbsg22
V[ +anterior +sonorant ] ---> 1 /  _ [ -voice ]
p4578
sba(irule
Rule
p4579
(dp4580
g15
(irule
Guard
p4581
(dp4582
g18
I00
sg19
(lp4583
sg21
I00
sg22
V
sg23
I00
sg24
S'L'
sbsg25
(irule
OffsetSpecification
p4584
(dp4585
g28
I1
sbsg29
(irule
Guard
p4586
(dp4587
g18
I00
sg19
(lp4588
(irule
FeatureMatrix
p4589
(dp4590
g35
(lp4591
(I00
g2750
tp4592
a(I00
g2515
tp4593
asg22
V[ -low -voice ]
p4594
sbasg21
I00
sg22
g4594
sg23
I00
sg24
S'R'
sbsg40
(irule
FeatureMatrix
p4595
(dp4596
g35
(lp4597
(I00
g2543
tp4598
asg22
V[ -continuant ]
p4599
sbsg22
V[ -continuant ] ---> 1 /  _ [ -low -voice ]
p4600
sba(irule
Rule
p4601
(dp4602
g15
(irule
Guard
p4603
(dp4604
g18
I00
sg19
(lp4605
sg21
I00
sg22
V
sg23
I00
sg24
S'L'
sbsg25
(irule
OffsetSpecification
p4606
(dp4607
g28
I1
sbsg29
(irule
Guard
p4608
(dp4609
g18
I00
sg19
(lp4610
(irule
FeatureMatrix
p4611
(dp4612
g35
(lp4613
(I00
g3440
tp4614
a(I00
g2515
tp4615
asg22
V[ -rounded -voice ]
p4616
sbasg21
I00
sg22
g4616
sg23
I00
sg24
S'R'
sbsg40
(irule
FeatureMatrix
p4617
(dp4618
g35
(lp4619
(I00
g2674
tp4620
asg22
V[ -tense ]
p4621
sbsg22
V[ -tense ] ---> 1 /  _ [ -rounded -voice ]
p4622
sba(irule
Rule
p4623
(dp4624
g15
(irule
Guard
p4625
(dp4626
g18
I00
sg19
(lp4627
sg21
I00
sg22
V
sg23
I00
sg24
S'L'
sbsg25
(irule
OffsetSpecification
p4628
(dp4629
g28
I1
sbsg29
(irule
Guard
p4630
(dp4631
g18
I00
sg19
(lp4632
(irule
FeatureMatrix
p4633
(dp4634
g35
(lp4635
(I00
g2851
tp4636
a(I00
g2515
tp4637
asg22
V[ -sonorant -voice ]
p4638
sbasg21
I00
sg22
g4638
sg23
I00
sg24
S'R'
sbsg40
(irule
FeatureMatrix
p4639
(dp4640
g35
(lp4641
(I01
g2565
tp4642
asg22
V[ +nasal ]
p4643
sbsg22
V[ +nasal ] ---> 1 /  _ [ -sonorant -voice ]
p4644
sba(irule
Rule
p4645
(dp4646
g15
(irule
Guard
p4647
(dp4648
g18
I00
sg19
(lp4649
sg21
I00
sg22
V
sg23
I00
sg24
S'L'
sbsg25
(irule
OffsetSpecification
p4650
(dp4651
g28
I1
sbsg29
(irule
Guard
p4652
(dp4653
g18
I00
sg19
(lp4654
(irule
FeatureMatrix
p4655
(dp4656
g35
(lp4657
(I00
g2515
tp4658
asg22
V[ -voice ]
p4659
sbasg21
I00
sg22
g4659
sg23
I00
sg24
S'R'
sbsg40
(irule
FeatureMatrix
p4660
(dp4661
g35
(lp4662
(I00
g2543
tp4663
a(I00
g2674
tp4664
asg22
V[ -continuant -tense ]
p4665
sbsg22
V[ -continuant -tense ] ---> 1 /  _ [ -voice ]
p4666
sba(irule
Rule
p4667
(dp4668
g15
(irule
Guard
p4669
(dp4670
g18
I00
sg19
(lp4671
sg21
I00
sg22
V
sg23
I00
sg24
S'L'
sbsg25
(irule
OffsetSpecification
p4672
(dp4673
g28
I1
sbsg29
(irule
Guard
p4674
(dp4675
g18
I00
sg19
(lp4676
(irule
FeatureMatrix
p4677
(dp4678
g35
(lp4679
(I00
g2515
tp4680
asg22
V[ -voice ]
p4681
sbasg21
I00
sg22
g4681
sg23
I00
sg24
S'R'
sbsg40
(irule
FeatureMatrix
p4682
(dp4683
g35
(lp4684
(I01
g2565
tp4685
a(I00
g2812
tp4686
asg22
V[ +nasal -sibilant ]
p4687
sbsg22
V[ +nasal -sibilant ] ---> 1 /  _ [ -voice ]
p4688
sba(irule
Rule
p4689
(dp4690
g15
(irule
Guard
p4691
(dp4692
g18
I00
sg19
(lp4693
sg21
I00
sg22
V
sg23
I00
sg24
S'L'
sbsg25
(irule
OffsetSpecification
p4694
(dp4695
g28
I1
sbsg29
(irule
Guard
p4696
(dp4697
g18
I00
sg19
(lp4698
(irule
FeatureMatrix
p4699
(dp4700
g35
(lp4701
(I00
g2515
tp4702
asg22
V[ -voice ]
p4703
sbasg21
I00
sg22
g4703
sg23
I00
sg24
S'R'
sbsg40
(irule
FeatureMatrix
p4704
(dp4705
g35
(lp4706
(I01
g2565
tp4707
a(I00
g2674
tp4708
asg22
V[ +nasal -tense ]
p4709
sbsg22
V[ +nasal -tense ] ---> 1 /  _ [ -voice ]
p4710
sba(irule
Rule
p4711
(dp4712
g15
(irule
Guard
p4713
(dp4714
g18
I00
sg19
(lp4715
sg21
I00
sg22
V
sg23
I00
sg24
S'L'
sbsg25
(irule
OffsetSpecification
p4716
(dp4717
g28
I1
sbsg29
(irule
Guard
p4718
(dp4719
g18
I00
sg19
(lp4720
(irule
FeatureMatrix
p4721
(dp4722
g35
(lp4723
(I00
g2515
tp4724
asg22
V[ -voice ]
p4725
sbasg21
I00
sg22
g4725
sg23
I00
sg24
S'R'
sbsg40
(irule
FeatureMatrix
p4726
(dp4727
g35
(lp4728
(I01
g2587
tp4729
a(I00
g2543
tp4730
asg22
V[ +anterior -continuant ]
p4731
sbsg22
V[ +anterior -continuant ] ---> 1 /  _ [ -voice ]
p4732
sbaasbsS'parameters'
p4733
g6
(cargparse
Namespace
p4734
g8
NtRp4735
(dp4736
S'restore'
p4737
NsS'features'
p4738
S'sophisticated'
p4739
sS'universal'
p4740
NsS'restrict'
p4741
NsS'seed'
p4742
NsS'serial'
p4743
I00
sS'cv'
p4744
I00
sS'alignment'
p4745
I00
sS'top'
p4746
I100
sS'maximumDepth'
p4747
I3
sS'window'
p4748
NsS'minimizeBits'
p4749
I5
sS'samples'
p4750
I30
sS'save'
p4751
NsS'resume'
p4752
I00
sS'disableClean'
p4753
I00
sS'stemBaseline'
p4754
I30
sS'dummy'
p4755
I00
sS'task'
p4756
S'incremental'
p4757
sS'geometry'
p4758
I01
sS'verbosity'
p4759
I0
sS'noConstant'
p4760
I00
sS'timeout'
p4761
F24
sS'debug'
p4762
NsS'cores'
p4763
I48
sg207
S'Odden_Mandar_Saujas_1'
p4764
sS'mergeFrontiers'
p4765
I00
sbsb.