(iresult
Result
p1
(dp2
S'startTime'
p3
F1720099080.9952569
sS'solutionSequence'
p4
(lp5
(ccopy_reg
_reconstructor
p6
(csolution
Solution
p7
c__builtin__
object
p8
NtRp9
(dp10
S'rules'
p11
(lp12
(irule
Rule
p13
(dp14
S'leftTriggers'
p15
(irule
Guard
p16
(dp17
S'endOfString'
p18
I00
sS'specifications'
p19
(lp20
sS'optionalEnding'
p21
I00
sS'representation'
p22
V
sS'starred'
p23
I00
sS'side'
p24
S'L'
sbsS'structuralChange'
p25
(irule
FeatureMatrix
p26
(dp27
S'featuresAndPolarities'
p28
(lp29
sg22
V[  ]
p30
sbsS'rightTriggers'
p31
(irule
Guard
p32
(dp33
g18
I00
sg19
(lp34
sg21
I00
sg22
V
sg23
I00
sg24
S'R'
sbsS'focus'
p35
(irule
FeatureMatrix
p36
(dp37
g28
(lp38
sg22
V[  ]
p39
sbsg22
V[  ] ---> [  ] /  _ 
p40
sbasS'prefixes'
p41
(lp42
(imorph
Morph
p43
(dp44
S'phonemes'
p45
(lp46
sba(imorph
Morph
p47
(dp48
g45
(lp49
sbasS'underlyingForms'
p50
(dp51
((imorph
Morph
p52
(dp53
g45
(lp54
Vv
aVa
aVg
aVo
aVn
asb(imorph
Morph
p55
(dp56
g45
(lp57
Vv
aVa
aVg
aVo
aVn
aVa
asbtp58
(imorph
Morph
p59
(dp60
g45
(lp61
Vv
aVa
aVg
aVo
aVn
asbs((imorph
Morph
p62
(dp63
g45
(lp64
Vv
aVe
aVc\u030c
p65
aVe
aVr
asb(imorph
Morph
p66
(dp67
g45
(lp68
Vv
aVe
aVc\u030c
p69
aVe
aVr
aVa
asbtp70
(imorph
Morph
p71
(dp72
g45
(lp73
Vv
aVe
aVc\u030c
p74
aVe
aVr
asbs((imorph
Morph
p75
(dp76
g45
(lp77
Va
aVv
aVt
aVo
aVm
aVo
aVb
aVi
aVl^y
p78
asb(imorph
Morph
p79
(dp80
g45
(lp81
Va
aVv
aVt
aVo
aVm
aVo
aVb
aVi
aVl^y
p82
aVa
asbtp83
(imorph
Morph
p84
(dp85
g45
(lp86
Va
aVv
aVt
aVo
aVm
aVo
aVb
aVi
aVl^y
p87
asbssS'suffixes'
p88
(lp89
(imorph
Morph
p90
(dp91
g45
(lp92
sba(imorph
Morph
p93
(dp94
g45
(lp95
Va
asbasbF14.21492600440979
tp96
a(g6
(g7
g8
NtRp97
(dp98
g11
(lp99
(irule
Rule
p100
(dp101
g15
(irule
Guard
p102
(dp103
g18
I00
sg19
(lp104
sg21
I00
sg22
V
sg23
I00
sg24
S'L'
sbsg25
(irule
FeatureMatrix
p105
(dp106
g28
(lp107
(I00
S'voice'
tp108
asg22
V[ -voice ]
p109
sbsg31
(irule
Guard
p110
(dp111
g18
I01
sg19
(lp112
sg21
I00
sg22
V#
sg23
I00
sg24
S'R'
sbsg35
(irule
FeatureMatrix
p113
(dp114
g28
(lp115
(I01
S'sibilant'
tp116
asg22
V[ +sibilant ]
p117
sbsg22
V[ +sibilant ] ---> [ -voice ] /  _ #
p118
sbasg41
(lp119
(imorph
Morph
p120
(dp121
g45
(lp122
sba(imorph
Morph
p123
(dp124
g45
(lp125
sbasg50
(dp126
((imorph
Morph
(dp127
g45
(lp128
Vg
aVl
aVa
aVs
asb(imorph
Morph
(dp129
g45
(lp130
Vg
aVl
aVa
aVz
aVa
asbtp131
(imorph
Morph
p132
(dp133
g45
(lp134
Vg
aVl
aVa
aVz
asbs((imorph
Morph
(dp135
g45
(lp136
Vl
aVe
aVs
asb(imorph
Morph
(dp137
g45
(lp138
Vl
aVe
aVs
aVa
asbtp139
(imorph
Morph
p140
(dp141
g45
(lp142
Vl
aVe
aVs
asbs((imorph
Morph
(dp143
g45
(lp144
Vv
aVe
aVc\u030c
p145
aVe
aVr
asb(imorph
Morph
(dp146
g45
(lp147
Vv
aVe
aVc\u030c
p148
aVe
aVr
aVa
asbtp149
(imorph
Morph
p150
(dp151
g45
(lp152
Vv
aVe
aVc\u030c
p153
aVe
aVr
asbs((imorph
Morph
(dp154
g45
(lp155
Vr
aVa
aVs
asb(imorph
Morph
(dp156
g45
(lp157
Vr
aVa
aVz
aVa
asbtp158
(imorph
Morph
p159
(dp160
g45
(lp161
Vr
aVa
aVz
asbs((imorph
Morph
(dp162
g45
(lp163
Vv
aVa
aVg
aVo
aVn
asb(imorph
Morph
(dp164
g45
(lp165
Vv
aVa
aVg
aVo
aVn
aVa
asbtp166
(imorph
Morph
p167
(dp168
g45
(lp169
Vv
aVa
aVg
aVo
aVn
asbs((imorph
Morph
(dp170
g45
(lp171
Va
aVv
aVt
aVo
aVm
aVo
aVb
aVi
aVl^y
p172
asb(imorph
Morph
(dp173
g45
(lp174
Va
aVv
aVt
aVo
aVm
aVo
aVb
aVi
aVl^y
p175
aVa
asbtp176
(imorph
Morph
p177
(dp178
g45
(lp179
Va
aVv
aVt
aVo
aVm
aVo
aVb
aVi
aVl^y
p180
asbs((imorph
Morph
(dp181
g45
(lp182
Vg
aVo
aVl
aVo
aVs
asb(imorph
Morph
(dp183
g45
(lp184
Vg
aVo
aVl
aVo
aVs
aVa
asbtp185
(imorph
Morph
p186
(dp187
g45
(lp188
Vg
aVo
aVl
aVo
aVs
asbs((imorph
Morph
(dp189
g45
(lp190
Vm
aVu
aV\u0161
asb(imorph
Morph
(dp191
g45
(lp192
Vm
aVu
aVz\u030c
p193
aVa
asbtp194
(imorph
Morph
p195
(dp196
g45
(lp197
Vm
aVu
aVz\u030c
p198
asbs((imorph
Morph
(dp199
g45
(lp200
Vk
aVa
aVr
aVa
aVn
aVd
aVa
aV\u0161
asb(imorph
Morph
(dp201
g45
(lp202
Vk
aVa
aVr
aVa
aVn
aVd
aVa
aV\u0161
aVa
asbtp203
(imorph
Morph
p204
(dp205
g45
(lp206
Vk
aVa
aVr
aVa
aVn
aVd
aVa
aV\u0161
asbssg88
(lp207
(imorph
Morph
p208
(dp209
g45
(lp210
sba(imorph
Morph
p211
(dp212
g45
(lp213
Va
asbasbF743.71703314781189
tp214
a(g6
(g7
g8
NtRp215
(dp216
g11
(lp217
(irule
Rule
p218
(dp219
g15
(irule
Guard
p220
(dp221
g18
I00
sg19
(lp222
sg21
I00
sg22
V
sg23
I00
sg24
S'L'
sbsg25
(irule
FeatureMatrix
p223
(dp224
g28
(lp225
(I00
S'voice'
tp226
asg22
V[ -voice ]
p227
sbsg31
(irule
Guard
p228
(dp229
g18
I01
sg19
(lp230
sg21
I00
sg22
V#
sg23
I00
sg24
S'R'
sbsg35
(irule
FeatureMatrix
p231
(dp232
g28
(lp233
(I00
S'sonorant'
tp234
asg22
V[ -sonorant ]
p235
sbsg22
V[ -sonorant ] ---> [ -voice ] /  _ #
p236
sbasg41
(lp237
(imorph
Morph
p238
(dp239
g45
(lp240
sba(imorph
Morph
p241
(dp242
g45
(lp243
sbasg50
(dp244
((imorph
Morph
(dp245
g45
(lp246
Vg
aVl
aVa
aVs
asb(imorph
Morph
(dp247
g45
(lp248
Vg
aVl
aVa
aVz
aVa
asbtp249
(imorph
Morph
p250
(dp251
g45
(lp252
Vg
aVl
aVa
aVz
asbs((imorph
Morph
(dp253
g45
(lp254
Vl
aVe
aVs
asb(imorph
Morph
(dp255
g45
(lp256
Vl
aVe
aVs
aVa
asbtp257
(imorph
Morph
p258
(dp259
g45
(lp260
Vl
aVe
aVs
asbs((imorph
Morph
(dp261
g45
(lp262
Vv
aVe
aVc\u030c
p263
aVe
aVr
asb(imorph
Morph
(dp264
g45
(lp265
Vv
aVe
aVc\u030c
p266
aVe
aVr
aVa
asbtp267
(imorph
Morph
p268
(dp269
g45
(lp270
Vv
aVe
aVc\u030c
p271
aVe
aVr
asbs((imorph
Morph
(dp272
g45
(lp273
Vr
aVa
aVs
asb(imorph
Morph
(dp274
g45
(lp275
Vr
aVa
aVz
aVa
asbtp276
(imorph
Morph
p277
(dp278
g45
(lp279
Vr
aVa
aVz
asbs((imorph
Morph
(dp280
g45
(lp281
Vv
aVa
aVg
aVo
aVn
asb(imorph
Morph
(dp282
g45
(lp283
Vv
aVa
aVg
aVo
aVn
aVa
asbtp284
(imorph
Morph
p285
(dp286
g45
(lp287
Vv
aVa
aVg
aVo
aVn
asbs((imorph
Morph
(dp288
g45
(lp289
Vp
aVo
aVr
aVo
aVk
asb(imorph
Morph
(dp290
g45
(lp291
Vp
aVo
aVr
aVo
aVg
aVa
asbtp292
(imorph
Morph
p293
(dp294
g45
(lp295
Vp
aVo
aVr
aVo
aVg
asbs((imorph
Morph
(dp296
g45
(lp297
Vs
aVo
aVl
aVd
aVa
aVt
asb(imorph
Morph
(dp298
g45
(lp299
Vs
aVo
aVl
aVd
aVa
aVt
aVa
asbtp300
(imorph
Morph
p301
(dp302
g45
(lp303
Vs
aVo
aVl
aVd
aVa
aVt
asbs((imorph
Morph
(dp304
g45
(lp305
Vx
aVl
aVe
aVp
asb(imorph
Morph
(dp306
g45
(lp307
Vx
aVl
aVe
aVb
aVa
asbtp308
(imorph
Morph
p309
(dp310
g45
(lp311
Vx
aVl
aVe
aVb
asbs((imorph
Morph
(dp312
g45
(lp313
Vz
aVa
aVv
aVo
aVt
asb(imorph
Morph
(dp314
g45
(lp315
Vz
aVa
aVv
aVo
aVd
aVa
asbtp316
(imorph
Morph
p317
(dp318
g45
(lp319
Vz
aVa
aVv
aVo
aVd
asbs((imorph
Morph
(dp320
g45
(lp321
Vp
aVo
aVr
aVo
aVk
asb(imorph
Morph
(dp322
g45
(lp323
Vp
aVo
aVr
aVo
aVk
aVa
asbtp324
(imorph
Morph
p325
(dp326
g45
(lp327
Vp
aVo
aVr
aVo
aVk
asbs((imorph
Morph
(dp328
g45
(lp329
Vg
aVr
aVi
aVp
asb(imorph
Morph
(dp330
g45
(lp331
Vg
aVr
aVi
aVb
aVa
asbtp332
(imorph
Morph
p333
(dp334
g45
(lp335
Vg
aVr
aVi
aVb
asbs((imorph
Morph
(dp336
g45
(lp337
Vp
aVr
aVu
aVt
asb(imorph
Morph
(dp338
g45
(lp339
Vp
aVr
aVu
aVd
aVa
asbtp340
(imorph
Morph
p341
(dp342
g45
(lp343
Vp
aVr
aVu
aVd
asbs((imorph
Morph
(dp344
g45
(lp345
Vu
aVr
aVo
aVk
asb(imorph
Morph
(dp346
g45
(lp347
Vu
aVr
aVo
aVk
aVa
asbtp348
(imorph
Morph
p349
(dp350
g45
(lp351
Vu
aVr
aVo
aVk
asbs((imorph
Morph
(dp352
g45
(lp353
Va
aVv
aVt
aVo
aVm
aVo
aVb
aVi
aVl^y
p354
asb(imorph
Morph
(dp355
g45
(lp356
Va
aVv
aVt
aVo
aVm
aVo
aVb
aVi
aVl^y
p357
aVa
asbtp358
(imorph
Morph
p359
(dp360
g45
(lp361
Va
aVv
aVt
aVo
aVm
aVo
aVb
aVi
aVl^y
p362
asbs((imorph
Morph
(dp363
g45
(lp364
Vg
aVo
aVl
aVo
aVs
asb(imorph
Morph
(dp365
g45
(lp366
Vg
aVo
aVl
aVo
aVs
aVa
asbtp367
(imorph
Morph
p368
(dp369
g45
(lp370
Vg
aVo
aVl
aVo
aVs
asbs((imorph
Morph
(dp371
g45
(lp372
Vt
aVr
aVu
aVp
asb(imorph
Morph
(dp373
g45
(lp374
Vt
aVr
aVu
aVp
aVa
asbtp375
(imorph
Morph
p376
(dp377
g45
(lp378
Vt
aVr
aVu
aVp
asbs((imorph
Morph
(dp379
g45
(lp380
Vt^s
p381
aVv
aVe
aVt
asb(imorph
Morph
(dp382
g45
(lp383
Vt^s
p384
aVv
aVe
aVt
aVa
asbtp385
(imorph
Morph
p386
(dp387
g45
(lp388
Vt^s
p389
aVv
aVe
aVt
asbs((imorph
Morph
(dp390
g45
(lp391
Vv
aVr
aVa
aVk
asb(imorph
Morph
(dp392
g45
(lp393
Vv
aVr
aVa
aVg
aVa
asbtp394
(imorph
Morph
p395
(dp396
g45
(lp397
Vv
aVr
aVa
aVg
asbs((imorph
Morph
(dp398
g45
(lp399
Vm
aVu
aV\u0161
asb(imorph
Morph
(dp400
g45
(lp401
Vm
aVu
aVz\u030c
p402
aVa
asbtp403
(imorph
Morph
p404
(dp405
g45
(lp406
Vm
aVu
aVz\u030c
p407
asbs((imorph
Morph
(dp408
g45
(lp409
Vk
aVa
aVr
aVa
aVn
aVd
aVa
aV\u0161
asb(imorph
Morph
(dp410
g45
(lp411
Vk
aVa
aVr
aVa
aVn
aVd
aVa
aV\u0161
aVa
asbtp412
(imorph
Morph
p413
(dp414
g45
(lp415
Vk
aVa
aVr
aVa
aVn
aVd
aVa
aV\u0161
asbssg88
(lp416
(imorph
Morph
p417
(dp418
g45
(lp419
sba(imorph
Morph
p420
(dp421
g45
(lp422
Va
asbasbF2625.0571351051331
tp423
asS'problem'
p424
S'Odden_68_69_Russian'
p425
sS'finalFrontier'
p426
g6
(csolution
Frontier
p427
g8
NtRp428
(dp429
g41
g237
sg88
g416
sg50
g244
sS'frontiers'
p430
(lp431
(lp432
(irule
Rule
p433
(dp434
g15
(irule
Guard
p435
(dp436
g18
I00
sg19
(lp437
sg21
I00
sg22
V
sg23
I00
sg24
S'L'
sbsg25
(irule
FeatureMatrix
p438
(dp439
g28
(lp440
(I00
S'voice'
tp441
asg22
V[ -voice ]
p442
sbsg31
(irule
Guard
p443
(dp444
g18
I01
sg19
(lp445
sg21
I00
sg22
V#
sg23
I00
sg24
S'R'
sbsg35
(irule
FeatureMatrix
p446
(dp447
g28
(lp448
(I00
S'sonorant'
tp449
asg22
V[ -sonorant ]
p450
sbsg22
V[ -sonorant ] ---> [ -voice ] /  _ #
p451
sba(irule
Rule
p452
(dp453
g15
(irule
Guard
p454
(dp455
g18
I00
sg19
(lp456
sg21
I00
sg22
V
sg23
I00
sg24
S'L'
sbsg25
(irule
FeatureMatrix
p457
(dp458
g28
(lp459
(I00
S'vowel'
p460
tp461
a(I00
S'voice'
p462
tp463
asg22
V[ -voice -vowel ]
p464
sbsg31
(irule
Guard
p465
(dp466
g18
I01
sg19
(lp467
sg21
I00
sg22
V#
sg23
I00
sg24
S'R'
sbsg35
(irule
FeatureMatrix
p468
(dp469
g28
(lp470
(I00
S'sonorant'
p471
tp472
asg22
V[ -sonorant ]
p473
sbsg22
V[ -sonorant ] ---> [ -voice -vowel ] /  _ #
p474
sba(irule
Rule
p475
(dp476
g15
(irule
Guard
p477
(dp478
g18
I00
sg19
(lp479
sg21
I00
sg22
V
sg23
I00
sg24
S'L'
sbsg25
(irule
FeatureMatrix
p480
(dp481
g28
(lp482
(I00
S'delayedRelease'
p483
tp484
a(I00
g462
tp485
asg22
V[ -delayedRelease -voice ]
p486
sbsg31
(irule
Guard
p487
(dp488
g18
I01
sg19
(lp489
sg21
I00
sg22
V#
sg23
I00
sg24
S'R'
sbsg35
(irule
FeatureMatrix
p490
(dp491
g28
(lp492
(I00
g471
tp493
asg22
V[ -sonorant ]
p494
sbsg22
V[ -sonorant ] ---> [ -delayedRelease -voice ] /  _ #
p495
sba(irule
Rule
p496
(dp497
g15
(irule
Guard
p498
(dp499
g18
I00
sg19
(lp500
sg21
I00
sg22
V
sg23
I00
sg24
S'L'
sbsg25
(irule
FeatureMatrix
p501
(dp502
g28
(lp503
(I00
g462
tp504
asg22
V[ -voice ]
p505
sbsg31
(irule
Guard
p506
(dp507
g18
I01
sg19
(lp508
sg21
I00
sg22
V#
sg23
I00
sg24
S'R'
sbsg35
(irule
FeatureMatrix
p509
(dp510
g28
(lp511
(I00
g471
tp512
a(I00
S'tense'
p513
tp514
asg22
V[ -sonorant -tense ]
p515
sbsg22
V[ -sonorant -tense ] ---> [ -voice ] /  _ #
p516
sba(irule
Rule
p517
(dp518
g15
(irule
Guard
p519
(dp520
g18
I00
sg19
(lp521
sg21
I00
sg22
V
sg23
I00
sg24
S'L'
sbsg25
(irule
FeatureMatrix
p522
(dp523
g28
(lp524
(I00
S'low'
p525
tp526
a(I00
g462
tp527
asg22
V[ -low -voice ]
p528
sbsg31
(irule
Guard
p529
(dp530
g18
I01
sg19
(lp531
sg21
I00
sg22
V#
sg23
I00
sg24
S'R'
sbsg35
(irule
FeatureMatrix
p532
(dp533
g28
(lp534
(I00
g471
tp535
asg22
V[ -sonorant ]
p536
sbsg22
V[ -sonorant ] ---> [ -low -voice ] /  _ #
p537
sba(irule
Rule
p538
(dp539
g15
(irule
Guard
p540
(dp541
g18
I00
sg19
(lp542
(irule
FeatureMatrix
p543
(dp544
g28
(lp545
sg22
V[  ]
p546
sbasg21
I00
sg22
g546
sg23
I00
sg24
S'L'
sbsg25
(irule
FeatureMatrix
p547
(dp548
g28
(lp549
(I00
g462
tp550
asg22
V[ -voice ]
p551
sbsg31
(irule
Guard
p552
(dp553
g18
I01
sg19
(lp554
sg21
I00
sg22
V#
sg23
I00
sg24
S'R'
sbsg35
(irule
FeatureMatrix
p555
(dp556
g28
(lp557
(I00
g471
tp558
asg22
V[ -sonorant ]
p559
sbsg22
V[ -sonorant ] ---> [ -voice ] / [  ] _ #
p560
sba(irule
Rule
p561
(dp562
g15
(irule
Guard
p563
(dp564
g18
I00
sg19
(lp565
sg21
I00
sg22
V
sg23
I00
sg24
S'L'
sbsg25
(irule
FeatureMatrix
p566
(dp567
g28
(lp568
(I00
g462
tp569
asg22
V[ -voice ]
p570
sbsg31
(irule
Guard
p571
(dp572
g18
I01
sg19
(lp573
sg21
I00
sg22
V#
sg23
I00
sg24
S'R'
sbsg35
(irule
FeatureMatrix
p574
(dp575
g28
(lp576
(I00
S'liquid'
p577
tp578
a(I00
g471
tp579
asg22
V[ -liquid -sonorant ]
p580
sbsg22
V[ -liquid -sonorant ] ---> [ -voice ] /  _ #
p581
sba(irule
Rule
p582
(dp583
g15
(irule
Guard
p584
(dp585
g18
I00
sg19
(lp586
sg21
I00
sg22
V
sg23
I00
sg24
S'L'
sbsg25
(irule
FeatureMatrix
p587
(dp588
g28
(lp589
(I00
S'nasal'
p590
tp591
a(I00
g462
tp592
asg22
V[ -nasal -voice ]
p593
sbsg31
(irule
Guard
p594
(dp595
g18
I01
sg19
(lp596
sg21
I00
sg22
V#
sg23
I00
sg24
S'R'
sbsg35
(irule
FeatureMatrix
p597
(dp598
g28
(lp599
(I00
g471
tp600
asg22
V[ -sonorant ]
p601
sbsg22
V[ -sonorant ] ---> [ -nasal -voice ] /  _ #
p602
sba(irule
Rule
p603
(dp604
g15
(irule
Guard
p605
(dp606
g18
I00
sg19
(lp607
sg21
I00
sg22
V
sg23
I00
sg24
S'L'
sbsg25
(irule
FeatureMatrix
p608
(dp609
g28
(lp610
(I00
g462
tp611
asg22
V[ -voice ]
p612
sbsg31
(irule
Guard
p613
(dp614
g18
I01
sg19
(lp615
sg21
I00
sg22
V#
sg23
I00
sg24
S'R'
sbsg35
(irule
FeatureMatrix
p616
(dp617
g28
(lp618
(I00
g471
tp619
a(I00
g525
tp620
asg22
V[ -low -sonorant ]
p621
sbsg22
V[ -low -sonorant ] ---> [ -voice ] /  _ #
p622
sba(irule
Rule
p623
(dp624
g15
(irule
Guard
p625
(dp626
g18
I00
sg19
(lp627
sg21
I00
sg22
V
sg23
I00
sg24
S'L'
sbsg25
(irule
FeatureMatrix
p628
(dp629
g28
(lp630
(I00
g462
tp631
asg22
V[ -voice ]
p632
sbsg31
(irule
Guard
p633
(dp634
g18
I01
sg19
(lp635
sg21
I00
sg22
V#
sg23
I00
sg24
S'R'
sbsg35
(irule
FeatureMatrix
p636
(dp637
g28
(lp638
(I00
g471
tp639
a(I01
g462
tp640
asg22
V[ +voice -sonorant ]
p641
sbsg22
V[ +voice -sonorant ] ---> [ -voice ] /  _ #
p642
sba(irule
Rule
p643
(dp644
g15
(irule
Guard
p645
(dp646
g18
I00
sg19
(lp647
sg21
I00
sg22
V
sg23
I00
sg24
S'L'
sbsg25
(irule
FeatureMatrix
p648
(dp649
g28
(lp650
(I00
g513
tp651
a(I00
g462
tp652
asg22
V[ -tense -voice ]
p653
sbsg31
(irule
Guard
p654
(dp655
g18
I01
sg19
(lp656
sg21
I00
sg22
V#
sg23
I00
sg24
S'R'
sbsg35
(irule
FeatureMatrix
p657
(dp658
g28
(lp659
(I00
g471
tp660
asg22
V[ -sonorant ]
p661
sbsg22
V[ -sonorant ] ---> [ -tense -voice ] /  _ #
p662
sba(irule
Rule
p663
(dp664
g15
(irule
Guard
p665
(dp666
g18
I00
sg19
(lp667
sg21
I00
sg22
V
sg23
I00
sg24
S'L'
sbsg25
(irule
FeatureMatrix
p668
(dp669
g28
(lp670
(I00
g462
tp671
asg22
V[ -voice ]
p672
sbsg31
(irule
Guard
p673
(dp674
g18
I01
sg19
(lp675
sg21
I00
sg22
V#
sg23
I00
sg24
S'R'
sbsg35
(irule
FeatureMatrix
p676
(dp677
g28
(lp678
(I00
g471
tp679
a(I00
g460
tp680
asg22
V[ -sonorant -vowel ]
p681
sbsg22
V[ -sonorant -vowel ] ---> [ -voice ] /  _ #
p682
sba(irule
Rule
p683
(dp684
g15
(irule
Guard
p685
(dp686
g18
I00
sg19
(lp687
sg21
I00
sg22
V
sg23
I00
sg24
S'L'
sbsg25
(irule
FeatureMatrix
p688
(dp689
g28
(lp690
(I00
g462
tp691
asg22
V[ -voice ]
p692
sbsg31
(irule
Guard
p693
(dp694
g18
I01
sg19
(lp695
sg21
I00
sg22
V#
sg23
I00
sg24
S'R'
sbsg35
(irule
FeatureMatrix
p696
(dp697
g28
(lp698
(I00
S'lateral'
p699
tp700
a(I00
g471
tp701
asg22
V[ -lateral -sonorant ]
p702
sbsg22
V[ -lateral -sonorant ] ---> [ -voice ] /  _ #
p703
sba(irule
Rule
p704
(dp705
g15
(irule
Guard
p706
(dp707
g18
I00
sg19
(lp708
sg21
I00
sg22
V
sg23
I00
sg24
S'L'
sbsg25
(irule
FeatureMatrix
p709
(dp710
g28
(lp711
(I00
S'palletized'
p712
tp713
a(I00
g462
tp714
asg22
V[ -palletized -voice ]
p715
sbsg31
(irule
Guard
p716
(dp717
g18
I01
sg19
(lp718
sg21
I00
sg22
V#
sg23
I00
sg24
S'R'
sbsg35
(irule
FeatureMatrix
p719
(dp720
g28
(lp721
(I00
g471
tp722
asg22
V[ -sonorant ]
p723
sbsg22
V[ -sonorant ] ---> [ -palletized -voice ] /  _ #
p724
sba(irule
Rule
p725
(dp726
g15
(irule
Guard
p727
(dp728
g18
I00
sg19
(lp729
sg21
I00
sg22
V
sg23
I00
sg24
S'L'
sbsg25
(irule
FeatureMatrix
p730
(dp731
g28
(lp732
(I00
S'rounded'
p733
tp734
a(I00
g462
tp735
asg22
V[ -rounded -voice ]
p736
sbsg31
(irule
Guard
p737
(dp738
g18
I01
sg19
(lp739
sg21
I00
sg22
V#
sg23
I00
sg24
S'R'
sbsg35
(irule
FeatureMatrix
p740
(dp741
g28
(lp742
(I00
g471
tp743
asg22
V[ -sonorant ]
p744
sbsg22
V[ -sonorant ] ---> [ -rounded -voice ] /  _ #
p745
sba(irule
Rule
p746
(dp747
g15
(irule
Guard
p748
(dp749
g18
I00
sg19
(lp750
sg21
I00
sg22
V
sg23
I00
sg24
S'L'
sbsg25
(irule
FeatureMatrix
p751
(dp752
g28
(lp753
(I00
g471
tp754
a(I00
g462
tp755
asg22
V[ -sonorant -voice ]
p756
sbsg31
(irule
Guard
p757
(dp758
g18
I01
sg19
(lp759
sg21
I00
sg22
V#
sg23
I00
sg24
S'R'
sbsg35
(irule
FeatureMatrix
p760
(dp761
g28
(lp762
(I00
g471
tp763
asg22
V[ -sonorant ]
p764
sbsg22
V[ -sonorant ] ---> [ -sonorant -voice ] /  _ #
p765
sba(irule
Rule
p766
(dp767
g15
(irule
Guard
p768
(dp769
g18
I00
sg19
(lp770
sg21
I00
sg22
V
sg23
I00
sg24
S'L'
sbsg25
(irule
FeatureMatrix
p771
(dp772
g28
(lp773
(I00
g699
tp774
a(I00
g462
tp775
asg22
V[ -lateral -voice ]
p776
sbsg31
(irule
Guard
p777
(dp778
g18
I01
sg19
(lp779
sg21
I00
sg22
V#
sg23
I00
sg24
S'R'
sbsg35
(irule
FeatureMatrix
p780
(dp781
g28
(lp782
(I00
g471
tp783
asg22
V[ -sonorant ]
p784
sbsg22
V[ -sonorant ] ---> [ -lateral -voice ] /  _ #
p785
sba(irule
Rule
p786
(dp787
g15
(irule
Guard
p788
(dp789
g18
I00
sg19
(lp790
sg21
I00
sg22
V
sg23
I00
sg24
S'L'
sbsg25
(irule
FeatureMatrix
p791
(dp792
g28
(lp793
(I00
g577
tp794
a(I00
g462
tp795
asg22
V[ -liquid -voice ]
p796
sbsg31
(irule
Guard
p797
(dp798
g18
I01
sg19
(lp799
sg21
I00
sg22
V#
sg23
I00
sg24
S'R'
sbsg35
(irule
FeatureMatrix
p800
(dp801
g28
(lp802
(I00
g471
tp803
asg22
V[ -sonorant ]
p804
sbsg22
V[ -sonorant ] ---> [ -liquid -voice ] /  _ #
p805
sba(irule
Rule
p806
(dp807
g15
(irule
Guard
p808
(dp809
g18
I00
sg19
(lp810
sg21
I00
sg22
V
sg23
I00
sg24
S'L'
sbsg25
(irule
FeatureMatrix
p811
(dp812
g28
(lp813
(I00
g462
tp814
asg22
V[ -voice ]
p815
sbsg31
(irule
Guard
p816
(dp817
g18
I01
sg19
(lp818
sg21
I00
sg22
V#
sg23
I00
sg24
S'R'
sbsg35
(irule
FeatureMatrix
p819
(dp820
g28
(lp821
(I00
g471
tp822
a(I00
g712
tp823
asg22
V[ -palletized -sonorant ]
p824
sbsg22
V[ -palletized -sonorant ] ---> [ -voice ] /  _ #
p825
sba(irule
Rule
p826
(dp827
g15
(irule
Guard
p828
(dp829
g18
I00
sg19
(lp830
sg21
I00
sg22
V
sg23
I00
sg24
S'L'
sbsg25
(irule
FeatureMatrix
p831
(dp832
g28
(lp833
(I00
g462
tp834
asg22
V[ -voice ]
p835
sbsg31
(irule
Guard
p836
(dp837
g18
I01
sg19
(lp838
sg21
I00
sg22
V#
sg23
I00
sg24
S'R'
sbsg35
(irule
FeatureMatrix
p839
(dp840
g28
(lp841
(I00
g590
tp842
a(I00
g471
tp843
asg22
V[ -nasal -sonorant ]
p844
sbsg22
V[ -nasal -sonorant ] ---> [ -voice ] /  _ #
p845
sba(irule
Rule
p846
(dp847
g15
(irule
Guard
p848
(dp849
g18
I00
sg19
(lp850
sg21
I00
sg22
V
sg23
I00
sg24
S'L'
sbsg25
(irule
FeatureMatrix
p851
(dp852
g28
(lp853
(I00
g462
tp854
asg22
V[ -voice ]
p855
sbsg31
(irule
Guard
p856
(dp857
g18
I01
sg19
(lp858
sg21
I00
sg22
V#
sg23
I00
sg24
S'R'
sbsg35
(irule
FeatureMatrix
p859
(dp860
g28
(lp861
(I00
g733
tp862
a(I00
g471
tp863
asg22
V[ -rounded -sonorant ]
p864
sbsg22
V[ -rounded -sonorant ] ---> [ -voice ] /  _ #
p865
sba(irule
Rule
p866
(dp867
g15
(irule
Guard
p868
(dp869
g18
I00
sg19
(lp870
sg21
I00
sg22
V
sg23
I00
sg24
S'L'
sbsg25
(irule
FeatureMatrix
p871
(dp872
g28
(lp873
(I00
g462
tp874
asg22
V[ -voice ]
p875
sbsg31
(irule
Guard
p876
(dp877
g18
I01
sg19
(lp878
sg21
I00
sg22
V#
sg23
I00
sg24
S'R'
sbsg35
(irule
FeatureMatrix
p879
(dp880
g28
(lp881
(I00
g483
tp882
a(I00
g471
tp883
asg22
V[ -delayedRelease -sonorant ]
p884
sbsg22
V[ -delayedRelease -sonorant ] ---> [ -voice ] /  _ #
p885
sba(irule
Rule
p886
(dp887
g15
(irule
Guard
p888
(dp889
g18
I00
sg19
(lp890
sg21
I00
sg22
V
sg23
I00
sg24
S'L'
sbsg25
(irule
FeatureMatrix
p891
(dp892
g28
(lp893
(I00
g733
tp894
a(I00
g513
tp895
a(I00
g462
tp896
asg22
V[ -rounded -tense -voice ]
p897
sbsg31
(irule
Guard
p898
(dp899
g18
I01
sg19
(lp900
sg21
I00
sg22
V#
sg23
I00
sg24
S'R'
sbsg35
(irule
FeatureMatrix
p901
(dp902
g28
(lp903
(I00
g471
tp904
asg22
V[ -sonorant ]
p905
sbsg22
V[ -sonorant ] ---> [ -rounded -tense -voice ] /  _ #
p906
sba(irule
Rule
p907
(dp908
g15
(irule
Guard
p909
(dp910
g18
I00
sg19
(lp911
(irule
FeatureMatrix
p912
(dp913
g28
(lp914
sg22
V[  ]
p915
sbasg21
I00
sg22
g915
sg23
I00
sg24
S'L'
sbsg25
(irule
FeatureMatrix
p916
(dp917
g28
(lp918
(I00
g460
tp919
a(I00
g462
tp920
asg22
V[ -voice -vowel ]
p921
sbsg31
(irule
Guard
p922
(dp923
g18
I01
sg19
(lp924
sg21
I00
sg22
V#
sg23
I00
sg24
S'R'
sbsg35
(irule
FeatureMatrix
p925
(dp926
g28
(lp927
(I00
g471
tp928
asg22
V[ -sonorant ]
p929
sbsg22
V[ -sonorant ] ---> [ -voice -vowel ] / [  ] _ #
p930
sba(irule
Rule
p931
(dp932
g15
(irule
Guard
p933
(dp934
g18
I00
sg19
(lp935
(irule
FeatureMatrix
p936
(dp937
g28
(lp938
sg22
V[  ]
p939
sbasg21
I00
sg22
g939
sg23
I00
sg24
S'L'
sbsg25
(irule
FeatureMatrix
p940
(dp941
g28
(lp942
(I00
g513
tp943
a(I00
g462
tp944
asg22
V[ -tense -voice ]
p945
sbsg31
(irule
Guard
p946
(dp947
g18
I01
sg19
(lp948
sg21
I00
sg22
V#
sg23
I00
sg24
S'R'
sbsg35
(irule
FeatureMatrix
p949
(dp950
g28
(lp951
(I00
g471
tp952
asg22
V[ -sonorant ]
p953
sbsg22
V[ -sonorant ] ---> [ -tense -voice ] / [  ] _ #
p954
sba(irule
Rule
p955
(dp956
g15
(irule
Guard
p957
(dp958
g18
I00
sg19
(lp959
(irule
FeatureMatrix
p960
(dp961
g28
(lp962
(I01
g462
tp963
asg22
V[ +voice ]
p964
sbasg21
I00
sg22
g964
sg23
I00
sg24
S'L'
sbsg25
(irule
FeatureMatrix
p965
(dp966
g28
(lp967
(I00
g462
tp968
asg22
V[ -voice ]
p969
sbsg31
(irule
Guard
p970
(dp971
g18
I01
sg19
(lp972
sg21
I00
sg22
V#
sg23
I00
sg24
S'R'
sbsg35
(irule
FeatureMatrix
p973
(dp974
g28
(lp975
(I00
g471
tp976
asg22
V[ -sonorant ]
p977
sbsg22
V[ -sonorant ] ---> [ -voice ] / [ +voice ] _ #
p978
sba(irule
Rule
p979
(dp980
g15
(irule
Guard
p981
(dp982
g18
I00
sg19
(lp983
sg21
I00
sg22
V
sg23
I00
sg24
S'L'
sbsg25
(irule
FeatureMatrix
p984
(dp985
g28
(lp986
(I00
g460
tp987
a(I00
g513
tp988
a(I00
g462
tp989
asg22
V[ -tense -voice -vowel ]
p990
sbsg31
(irule
Guard
p991
(dp992
g18
I01
sg19
(lp993
sg21
I00
sg22
V#
sg23
I00
sg24
S'R'
sbsg35
(irule
FeatureMatrix
p994
(dp995
g28
(lp996
(I00
g471
tp997
asg22
V[ -sonorant ]
p998
sbsg22
V[ -sonorant ] ---> [ -tense -voice -vowel ] /  _ #
p999
sba(irule
Rule
p1000
(dp1001
g15
(irule
Guard
p1002
(dp1003
g18
I00
sg19
(lp1004
sg21
I00
sg22
V
sg23
I00
sg24
S'L'
sbsg25
(irule
FeatureMatrix
p1005
(dp1006
g28
(lp1007
(I00
g462
tp1008
asg22
V[ -voice ]
p1009
sbsg31
(irule
Guard
p1010
(dp1011
g18
I01
sg19
(lp1012
sg21
I00
sg22
V#
sg23
I00
sg24
S'R'
sbsg35
(irule
FeatureMatrix
p1013
(dp1014
g28
(lp1015
(I00
g471
tp1016
a(I00
g712
tp1017
a(I01
g462
tp1018
asg22
V[ +voice -palletized -sonorant ]
p1019
sbsg22
V[ +voice -palletized -sonorant ] ---> [ -voice ] /  _ #
p1020
sba(irule
Rule
p1021
(dp1022
g15
(irule
Guard
p1023
(dp1024
g18
I00
sg19
(lp1025
(irule
FeatureMatrix
p1026
(dp1027
g28
(lp1028
sg22
V[  ]
p1029
sba(irule
FeatureMatrix
p1030
(dp1031
g28
(lp1032
sg22
V[  ]
p1033
sbasg21
I00
sg22
V[  ] [  ]
p1034
sg23
I00
sg24
S'L'
sbsg25
(irule
FeatureMatrix
p1035
(dp1036
g28
(lp1037
(I00
g462
tp1038
asg22
V[ -voice ]
p1039
sbsg31
(irule
Guard
p1040
(dp1041
g18
I01
sg19
(lp1042
sg21
I00
sg22
V#
sg23
I00
sg24
S'R'
sbsg35
(irule
FeatureMatrix
p1043
(dp1044
g28
(lp1045
(I00
g471
tp1046
asg22
V[ -sonorant ]
p1047
sbsg22
V[ -sonorant ] ---> [ -voice ] / [  ] [  ] _ #
p1048
sba(irule
Rule
p1049
(dp1050
g15
(irule
Guard
p1051
(dp1052
g18
I00
sg19
(lp1053
(irule
FeatureMatrix
p1054
(dp1055
g28
(lp1056
(I01
g513
tp1057
asg22
V[ +tense ]
p1058
sbasg21
I00
sg22
g1058
sg23
I00
sg24
S'L'
sbsg25
(irule
FeatureMatrix
p1059
(dp1060
g28
(lp1061
(I00
g462
tp1062
asg22
V[ -voice ]
p1063
sbsg31
(irule
Guard
p1064
(dp1065
g18
I01
sg19
(lp1066
sg21
I00
sg22
V#
sg23
I00
sg24
S'R'
sbsg35
(irule
FeatureMatrix
p1067
(dp1068
g28
(lp1069
(I00
g471
tp1070
asg22
V[ -sonorant ]
p1071
sbsg22
V[ -sonorant ] ---> [ -voice ] / [ +tense ] _ #
p1072
sba(irule
Rule
p1073
(dp1074
g15
(irule
Guard
p1075
(dp1076
g18
I00
sg19
(lp1077
(irule
FeatureMatrix
p1078
(dp1079
g28
(lp1080
sg22
V[  ]
p1081
sbasg21
I00
sg22
g1081
sg23
I00
sg24
S'L'
sbsg25
(irule
FeatureMatrix
p1082
(dp1083
g28
(lp1084
(I00
g462
tp1085
asg22
V[ -voice ]
p1086
sbsg31
(irule
Guard
p1087
(dp1088
g18
I01
sg19
(lp1089
sg21
I00
sg22
V#
sg23
I00
sg24
S'R'
sbsg35
(irule
FeatureMatrix
p1090
(dp1091
g28
(lp1092
(I00
g471
tp1093
a(I01
g462
tp1094
asg22
V[ +voice -sonorant ]
p1095
sbsg22
V[ +voice -sonorant ] ---> [ -voice ] / [  ] _ #
p1096
sba(irule
Rule
p1097
(dp1098
g15
(irule
Guard
p1099
(dp1100
g18
I00
sg19
(lp1101
(irule
FeatureMatrix
p1102
(dp1103
g28
(lp1104
(I00
g712
tp1105
asg22
V[ -palletized ]
p1106
sbasg21
I00
sg22
g1106
sg23
I00
sg24
S'L'
sbsg25
(irule
FeatureMatrix
p1107
(dp1108
g28
(lp1109
(I00
g462
tp1110
asg22
V[ -voice ]
p1111
sbsg31
(irule
Guard
p1112
(dp1113
g18
I01
sg19
(lp1114
sg21
I00
sg22
V#
sg23
I00
sg24
S'R'
sbsg35
(irule
FeatureMatrix
p1115
(dp1116
g28
(lp1117
(I00
g471
tp1118
asg22
V[ -sonorant ]
p1119
sbsg22
V[ -sonorant ] ---> [ -voice ] / [ -palletized ] _ #
p1120
sba(irule
Rule
p1121
(dp1122
g15
(irule
Guard
p1123
(dp1124
g18
I00
sg19
(lp1125
(irule
FeatureMatrix
p1126
(dp1127
g28
(lp1128
(I01
g460
tp1129
asg22
V[ +vowel ]
p1130
sbasg21
I00
sg22
g1130
sg23
I00
sg24
S'L'
sbsg25
(irule
FeatureMatrix
p1131
(dp1132
g28
(lp1133
(I00
g462
tp1134
asg22
V[ -voice ]
p1135
sbsg31
(irule
Guard
p1136
(dp1137
g18
I01
sg19
(lp1138
sg21
I00
sg22
V#
sg23
I00
sg24
S'R'
sbsg35
(irule
FeatureMatrix
p1139
(dp1140
g28
(lp1141
(I00
g471
tp1142
asg22
V[ -sonorant ]
p1143
sbsg22
V[ -sonorant ] ---> [ -voice ] / [ +vowel ] _ #
p1144
sba(irule
Rule
p1145
(dp1146
g15
(irule
Guard
p1147
(dp1148
g18
I00
sg19
(lp1149
sg21
I00
sg22
V
sg23
I00
sg24
S'L'
sbsg25
(irule
FeatureMatrix
p1150
(dp1151
g28
(lp1152
(I00
g525
tp1153
a(I00
g460
tp1154
a(I00
g462
tp1155
asg22
V[ -low -voice -vowel ]
p1156
sbsg31
(irule
Guard
p1157
(dp1158
g18
I01
sg19
(lp1159
sg21
I00
sg22
V#
sg23
I00
sg24
S'R'
sbsg35
(irule
FeatureMatrix
p1160
(dp1161
g28
(lp1162
(I00
g471
tp1163
asg22
V[ -sonorant ]
p1164
sbsg22
V[ -sonorant ] ---> [ -low -voice -vowel ] /  _ #
p1165
sba(irule
Rule
p1166
(dp1167
g15
(irule
Guard
p1168
(dp1169
g18
I00
sg19
(lp1170
sg21
I00
sg22
V
sg23
I00
sg24
S'L'
sbsg25
(irule
FeatureMatrix
p1171
(dp1172
g28
(lp1173
(I00
g712
tp1174
a(I00
g460
tp1175
a(I00
g462
tp1176
asg22
V[ -palletized -voice -vowel ]
p1177
sbsg31
(irule
Guard
p1178
(dp1179
g18
I01
sg19
(lp1180
sg21
I00
sg22
V#
sg23
I00
sg24
S'R'
sbsg35
(irule
FeatureMatrix
p1181
(dp1182
g28
(lp1183
(I00
g471
tp1184
asg22
V[ -sonorant ]
p1185
sbsg22
V[ -sonorant ] ---> [ -palletized -voice -vowel ] /  _ #
p1186
sba(irule
Rule
p1187
(dp1188
g15
(irule
Guard
p1189
(dp1190
g18
I00
sg19
(lp1191
sg21
I00
sg22
V
sg23
I00
sg24
S'L'
sbsg25
(irule
FeatureMatrix
p1192
(dp1193
g28
(lp1194
(I00
g513
tp1195
a(I00
g462
tp1196
asg22
V[ -tense -voice ]
p1197
sbsg31
(irule
Guard
p1198
(dp1199
g18
I01
sg19
(lp1200
sg21
I00
sg22
V#
sg23
I00
sg24
S'R'
sbsg35
(irule
FeatureMatrix
p1201
(dp1202
g28
(lp1203
(I00
g471
tp1204
a(I01
g462
tp1205
asg22
V[ +voice -sonorant ]
p1206
sbsg22
V[ +voice -sonorant ] ---> [ -tense -voice ] /  _ #
p1207
sba(irule
Rule
p1208
(dp1209
g15
(irule
Guard
p1210
(dp1211
g18
I00
sg19
(lp1212
(irule
FeatureMatrix
p1213
(dp1214
g28
(lp1215
sg22
V[  ]
p1216
sbasg21
I00
sg22
g1216
sg23
I00
sg24
S'L'
sbsg25
(irule
FeatureMatrix
p1217
(dp1218
g28
(lp1219
(I00
g462
tp1220
asg22
V[ -voice ]
p1221
sbsg31
(irule
Guard
p1222
(dp1223
g18
I01
sg19
(lp1224
sg21
I00
sg22
V#
sg23
I00
sg24
S'R'
sbsg35
(irule
FeatureMatrix
p1225
(dp1226
g28
(lp1227
(I00
g577
tp1228
a(I00
g471
tp1229
asg22
V[ -liquid -sonorant ]
p1230
sbsg22
V[ -liquid -sonorant ] ---> [ -voice ] / [  ] _ #
p1231
sba(irule
Rule
p1232
(dp1233
g15
(irule
Guard
p1234
(dp1235
g18
I00
sg19
(lp1236
sg21
I00
sg22
V
sg23
I00
sg24
S'L'
sbsg25
(irule
FeatureMatrix
p1237
(dp1238
g28
(lp1239
(I00
g483
tp1240
a(I00
g733
tp1241
a(I00
g462
tp1242
asg22
V[ -delayedRelease -rounded -voice ]
p1243
sbsg31
(irule
Guard
p1244
(dp1245
g18
I01
sg19
(lp1246
sg21
I00
sg22
V#
sg23
I00
sg24
S'R'
sbsg35
(irule
FeatureMatrix
p1247
(dp1248
g28
(lp1249
(I00
g471
tp1250
asg22
V[ -sonorant ]
p1251
sbsg22
V[ -sonorant ] ---> [ -delayedRelease -rounded -voice ] /  _ #
p1252
sba(irule
Rule
p1253
(dp1254
g15
(irule
Guard
p1255
(dp1256
g18
I00
sg19
(lp1257
sg21
I00
sg22
V
sg23
I00
sg24
S'L'
sbsg25
(irule
FeatureMatrix
p1258
(dp1259
g28
(lp1260
(I00
g483
tp1261
a(I00
g462
tp1262
asg22
V[ -delayedRelease -voice ]
p1263
sbsg31
(irule
Guard
p1264
(dp1265
g18
I01
sg19
(lp1266
sg21
I00
sg22
V#
sg23
I00
sg24
S'R'
sbsg35
(irule
FeatureMatrix
p1267
(dp1268
g28
(lp1269
(I00
g471
tp1270
a(I01
g462
tp1271
asg22
V[ +voice -sonorant ]
p1272
sbsg22
V[ +voice -sonorant ] ---> [ -delayedRelease -voice ] /  _ #
p1273
sba(irule
Rule
p1274
(dp1275
g15
(irule
Guard
p1276
(dp1277
g18
I00
sg19
(lp1278
(irule
FeatureMatrix
p1279
(dp1280
g28
(lp1281
(I00
S'sibilant'
tp1282
asg22
V[ -sibilant ]
p1283
sbasg21
I00
sg22
g1283
sg23
I00
sg24
S'L'
sbsg25
(irule
FeatureMatrix
p1284
(dp1285
g28
(lp1286
(I00
g462
tp1287
asg22
V[ -voice ]
p1288
sbsg31
(irule
Guard
p1289
(dp1290
g18
I01
sg19
(lp1291
sg21
I00
sg22
V#
sg23
I00
sg24
S'R'
sbsg35
(irule
FeatureMatrix
p1292
(dp1293
g28
(lp1294
(I00
g471
tp1295
asg22
V[ -sonorant ]
p1296
sbsg22
V[ -sonorant ] ---> [ -voice ] / [ -sibilant ] _ #
p1297
sba(irule
Rule
p1298
(dp1299
g15
(irule
Guard
p1300
(dp1301
g18
I00
sg19
(lp1302
sg21
I00
sg22
V
sg23
I00
sg24
S'L'
sbsg25
(irule
FeatureMatrix
p1303
(dp1304
g28
(lp1305
(I00
g733
tp1306
a(I00
g577
tp1307
a(I00
g462
tp1308
asg22
V[ -liquid -rounded -voice ]
p1309
sbsg31
(irule
Guard
p1310
(dp1311
g18
I01
sg19
(lp1312
sg21
I00
sg22
V#
sg23
I00
sg24
S'R'
sbsg35
(irule
FeatureMatrix
p1313
(dp1314
g28
(lp1315
(I00
g471
tp1316
asg22
V[ -sonorant ]
p1317
sbsg22
V[ -sonorant ] ---> [ -liquid -rounded -voice ] /  _ #
p1318
sba(irule
Rule
p1319
(dp1320
g15
(irule
Guard
p1321
(dp1322
g18
I00
sg19
(lp1323
sg21
I00
sg22
V
sg23
I00
sg24
S'L'
sbsg25
(irule
FeatureMatrix
p1324
(dp1325
g28
(lp1326
(I00
g483
tp1327
a(I00
g513
tp1328
a(I00
g462
tp1329
asg22
V[ -delayedRelease -tense -voice ]
p1330
sbsg31
(irule
Guard
p1331
(dp1332
g18
I01
sg19
(lp1333
sg21
I00
sg22
V#
sg23
I00
sg24
S'R'
sbsg35
(irule
FeatureMatrix
p1334
(dp1335
g28
(lp1336
(I00
g471
tp1337
asg22
V[ -sonorant ]
p1338
sbsg22
V[ -sonorant ] ---> [ -delayedRelease -tense -voice ] /  _ #
p1339
sba(irule
Rule
p1340
(dp1341
g15
(irule
Guard
p1342
(dp1343
g18
I00
sg19
(lp1344
sg21
I00
sg22
V
sg23
I00
sg24
S'L'
sbsg25
(irule
FeatureMatrix
p1345
(dp1346
g28
(lp1347
(I00
g462
tp1348
asg22
V[ -voice ]
p1349
sbsg31
(irule
Guard
p1350
(dp1351
g18
I01
sg19
(lp1352
sg21
I00
sg22
V#
sg23
I00
sg24
S'R'
sbsg35
(irule
FeatureMatrix
p1353
(dp1354
g28
(lp1355
(I00
g471
tp1356
a(I00
g513
tp1357
a(I01
g462
tp1358
asg22
V[ +voice -sonorant -tense ]
p1359
sbsg22
V[ +voice -sonorant -tense ] ---> [ -voice ] /  _ #
p1360
sba(irule
Rule
p1361
(dp1362
g15
(irule
Guard
p1363
(dp1364
g18
I00
sg19
(lp1365
sg21
I00
sg22
V
sg23
I00
sg24
S'L'
sbsg25
(irule
FeatureMatrix
p1366
(dp1367
g28
(lp1368
(I00
g590
tp1369
a(I00
g471
tp1370
a(I00
g462
tp1371
asg22
V[ -nasal -sonorant -voice ]
p1372
sbsg31
(irule
Guard
p1373
(dp1374
g18
I01
sg19
(lp1375
sg21
I00
sg22
V#
sg23
I00
sg24
S'R'
sbsg35
(irule
FeatureMatrix
p1376
(dp1377
g28
(lp1378
(I00
g471
tp1379
asg22
V[ -sonorant ]
p1380
sbsg22
V[ -sonorant ] ---> [ -nasal -sonorant -voice ] /  _ #
p1381
sba(irule
Rule
p1382
(dp1383
g15
(irule
Guard
p1384
(dp1385
g18
I00
sg19
(lp1386
(irule
FeatureMatrix
p1387
(dp1388
g28
(lp1389
(I00
S'coronal'
tp1390
asg22
V[ -coronal ]
p1391
sbasg21
I00
sg22
g1391
sg23
I00
sg24
S'L'
sbsg25
(irule
FeatureMatrix
p1392
(dp1393
g28
(lp1394
(I00
g462
tp1395
asg22
V[ -voice ]
p1396
sbsg31
(irule
Guard
p1397
(dp1398
g18
I01
sg19
(lp1399
sg21
I00
sg22
V#
sg23
I00
sg24
S'R'
sbsg35
(irule
FeatureMatrix
p1400
(dp1401
g28
(lp1402
(I00
g471
tp1403
asg22
V[ -sonorant ]
p1404
sbsg22
V[ -sonorant ] ---> [ -voice ] / [ -coronal ] _ #
p1405
sba(irule
Rule
p1406
(dp1407
g15
(irule
Guard
p1408
(dp1409
g18
I00
sg19
(lp1410
(irule
FeatureMatrix
p1411
(dp1412
g28
(lp1413
sg22
V[  ]
p1414
sbasg21
I00
sg22
g1414
sg23
I00
sg24
S'L'
sbsg25
(irule
FeatureMatrix
p1415
(dp1416
g28
(lp1417
(I00
g525
tp1418
a(I00
g462
tp1419
asg22
V[ -low -voice ]
p1420
sbsg31
(irule
Guard
p1421
(dp1422
g18
I01
sg19
(lp1423
sg21
I00
sg22
V#
sg23
I00
sg24
S'R'
sbsg35
(irule
FeatureMatrix
p1424
(dp1425
g28
(lp1426
(I00
g471
tp1427
asg22
V[ -sonorant ]
p1428
sbsg22
V[ -sonorant ] ---> [ -low -voice ] / [  ] _ #
p1429
sba(irule
Rule
p1430
(dp1431
g15
(irule
Guard
p1432
(dp1433
g18
I00
sg19
(lp1434
sg21
I00
sg22
V
sg23
I00
sg24
S'L'
sbsg25
(irule
FeatureMatrix
p1435
(dp1436
g28
(lp1437
(I00
g462
tp1438
asg22
V[ -voice ]
p1439
sbsg31
(irule
Guard
p1440
(dp1441
g18
I01
sg19
(lp1442
sg21
I00
sg22
V#
sg23
I00
sg24
S'R'
sbsg35
(irule
FeatureMatrix
p1443
(dp1444
g28
(lp1445
(I00
g471
tp1446
a(I00
g525
tp1447
a(I00
g513
tp1448
asg22
V[ -low -sonorant -tense ]
p1449
sbsg22
V[ -low -sonorant -tense ] ---> [ -voice ] /  _ #
p1450
sba(irule
Rule
p1451
(dp1452
g15
(irule
Guard
p1453
(dp1454
g18
I00
sg19
(lp1455
sg21
I00
sg22
V
sg23
I00
sg24
S'L'
sbsg25
(irule
FeatureMatrix
p1456
(dp1457
g28
(lp1458
(I00
g471
tp1459
a(I00
g712
tp1460
a(I00
g462
tp1461
asg22
V[ -palletized -sonorant -voice ]
p1462
sbsg31
(irule
Guard
p1463
(dp1464
g18
I01
sg19
(lp1465
sg21
I00
sg22
V#
sg23
I00
sg24
S'R'
sbsg35
(irule
FeatureMatrix
p1466
(dp1467
g28
(lp1468
(I00
g471
tp1469
asg22
V[ -sonorant ]
p1470
sbsg22
V[ -sonorant ] ---> [ -palletized -sonorant -voice ] /  _ #
p1471
sba(irule
Rule
p1472
(dp1473
g15
(irule
Guard
p1474
(dp1475
g18
I00
sg19
(lp1476
sg21
I00
sg22
V
sg23
I00
sg24
S'L'
sbsg25
(irule
FeatureMatrix
p1477
(dp1478
g28
(lp1479
(I00
g483
tp1480
a(I00
g712
tp1481
a(I00
g462
tp1482
asg22
V[ -delayedRelease -palletized -voice ]
p1483
sbsg31
(irule
Guard
p1484
(dp1485
g18
I01
sg19
(lp1486
sg21
I00
sg22
V#
sg23
I00
sg24
S'R'
sbsg35
(irule
FeatureMatrix
p1487
(dp1488
g28
(lp1489
(I00
g471
tp1490
asg22
V[ -sonorant ]
p1491
sbsg22
V[ -sonorant ] ---> [ -delayedRelease -palletized -voice ] /  _ #
p1492
sba(irule
Rule
p1493
(dp1494
g15
(irule
Guard
p1495
(dp1496
g18
I00
sg19
(lp1497
(irule
FeatureMatrix
p1498
(dp1499
g28
(lp1500
sg22
V[  ]
p1501
sbasg21
I00
sg22
g1501
sg23
I00
sg24
S'L'
sbsg25
(irule
FeatureMatrix
p1502
(dp1503
g28
(lp1504
(I00
g712
tp1505
a(I00
g462
tp1506
asg22
V[ -palletized -voice ]
p1507
sbsg31
(irule
Guard
p1508
(dp1509
g18
I01
sg19
(lp1510
sg21
I00
sg22
V#
sg23
I00
sg24
S'R'
sbsg35
(irule
FeatureMatrix
p1511
(dp1512
g28
(lp1513
(I00
g471
tp1514
asg22
V[ -sonorant ]
p1515
sbsg22
V[ -sonorant ] ---> [ -palletized -voice ] / [  ] _ #
p1516
sba(irule
Rule
p1517
(dp1518
g15
(irule
Guard
p1519
(dp1520
g18
I00
sg19
(lp1521
(irule
FeatureMatrix
p1522
(dp1523
g28
(lp1524
sg22
V[  ]
p1525
sbasg21
I00
sg22
g1525
sg23
I00
sg24
S'L'
sbsg25
(irule
FeatureMatrix
p1526
(dp1527
g28
(lp1528
(I00
g471
tp1529
a(I00
g462
tp1530
asg22
V[ -sonorant -voice ]
p1531
sbsg31
(irule
Guard
p1532
(dp1533
g18
I01
sg19
(lp1534
sg21
I00
sg22
V#
sg23
I00
sg24
S'R'
sbsg35
(irule
FeatureMatrix
p1535
(dp1536
g28
(lp1537
(I00
g471
tp1538
asg22
V[ -sonorant ]
p1539
sbsg22
V[ -sonorant ] ---> [ -sonorant -voice ] / [  ] _ #
p1540
sba(irule
Rule
p1541
(dp1542
g15
(irule
Guard
p1543
(dp1544
g18
I00
sg19
(lp1545
sg21
I00
sg22
V
sg23
I00
sg24
S'L'
sbsg25
(irule
FeatureMatrix
p1546
(dp1547
g28
(lp1548
(I00
g462
tp1549
asg22
V[ -voice ]
p1550
sbsg31
(irule
Guard
p1551
(dp1552
g18
I01
sg19
(lp1553
sg21
I00
sg22
V#
sg23
I00
sg24
S'R'
sbsg35
(irule
FeatureMatrix
p1554
(dp1555
g28
(lp1556
(I00
g577
tp1557
a(I00
g590
tp1558
a(I00
g513
tp1559
asg22
V[ -liquid -nasal -tense ]
p1560
sbsg22
V[ -liquid -nasal -tense ] ---> [ -voice ] /  _ #
p1561
sba(irule
Rule
p1562
(dp1563
g15
(irule
Guard
p1564
(dp1565
g18
I00
sg19
(lp1566
sg21
I00
sg22
V
sg23
I00
sg24
S'L'
sbsg25
(irule
FeatureMatrix
p1567
(dp1568
g28
(lp1569
(I00
g590
tp1570
a(I00
g712
tp1571
a(I00
g462
tp1572
asg22
V[ -nasal -palletized -voice ]
p1573
sbsg31
(irule
Guard
p1574
(dp1575
g18
I01
sg19
(lp1576
sg21
I00
sg22
V#
sg23
I00
sg24
S'R'
sbsg35
(irule
FeatureMatrix
p1577
(dp1578
g28
(lp1579
(I00
g471
tp1580
asg22
V[ -sonorant ]
p1581
sbsg22
V[ -sonorant ] ---> [ -nasal -palletized -voice ] /  _ #
p1582
sba(irule
Rule
p1583
(dp1584
g15
(irule
Guard
p1585
(dp1586
g18
I00
sg19
(lp1587
(irule
FeatureMatrix
p1588
(dp1589
g28
(lp1590
sg22
V[  ]
p1591
sbasg21
I00
sg22
g1591
sg23
I00
sg24
S'L'
sbsg25
(irule
FeatureMatrix
p1592
(dp1593
g28
(lp1594
(I00
g590
tp1595
a(I00
g462
tp1596
asg22
V[ -nasal -voice ]
p1597
sbsg31
(irule
Guard
p1598
(dp1599
g18
I01
sg19
(lp1600
sg21
I00
sg22
V#
sg23
I00
sg24
S'R'
sbsg35
(irule
FeatureMatrix
p1601
(dp1602
g28
(lp1603
(I00
g471
tp1604
asg22
V[ -sonorant ]
p1605
sbsg22
V[ -sonorant ] ---> [ -nasal -voice ] / [  ] _ #
p1606
sba(irule
Rule
p1607
(dp1608
g15
(irule
Guard
p1609
(dp1610
g18
I00
sg19
(lp1611
(irule
FeatureMatrix
p1612
(dp1613
g28
(lp1614
sg22
V[  ]
p1615
sbasg21
I00
sg22
g1615
sg23
I00
sg24
S'L'
sbsg25
(irule
FeatureMatrix
p1616
(dp1617
g28
(lp1618
(I00
g462
tp1619
asg22
V[ -voice ]
p1620
sbsg31
(irule
Guard
p1621
(dp1622
g18
I01
sg19
(lp1623
sg21
I00
sg22
V#
sg23
I00
sg24
S'R'
sbsg35
(irule
FeatureMatrix
p1624
(dp1625
g28
(lp1626
(I00
g471
tp1627
a(I00
g513
tp1628
asg22
V[ -sonorant -tense ]
p1629
sbsg22
V[ -sonorant -tense ] ---> [ -voice ] / [  ] _ #
p1630
sba(irule
Rule
p1631
(dp1632
g15
(irule
Guard
p1633
(dp1634
g18
I00
sg19
(lp1635
sg21
I00
sg22
V
sg23
I00
sg24
S'L'
sbsg25
(irule
FeatureMatrix
p1636
(dp1637
g28
(lp1638
(I00
g483
tp1639
a(I00
g577
tp1640
a(I00
g462
tp1641
asg22
V[ -delayedRelease -liquid -voice ]
p1642
sbsg31
(irule
Guard
p1643
(dp1644
g18
I01
sg19
(lp1645
sg21
I00
sg22
V#
sg23
I00
sg24
S'R'
sbsg35
(irule
FeatureMatrix
p1646
(dp1647
g28
(lp1648
(I00
g471
tp1649
asg22
V[ -sonorant ]
p1650
sbsg22
V[ -sonorant ] ---> [ -delayedRelease -liquid -voice ] /  _ #
p1651
sba(irule
Rule
p1652
(dp1653
g15
(irule
Guard
p1654
(dp1655
g18
I00
sg19
(lp1656
sg21
I00
sg22
V
sg23
I00
sg24
S'L'
sbsg25
(irule
FeatureMatrix
p1657
(dp1658
g28
(lp1659
(I00
g483
tp1660
a(I00
g525
tp1661
a(I00
g462
tp1662
asg22
V[ -delayedRelease -low -voice ]
p1663
sbsg31
(irule
Guard
p1664
(dp1665
g18
I01
sg19
(lp1666
sg21
I00
sg22
V#
sg23
I00
sg24
S'R'
sbsg35
(irule
FeatureMatrix
p1667
(dp1668
g28
(lp1669
(I00
g471
tp1670
asg22
V[ -sonorant ]
p1671
sbsg22
V[ -sonorant ] ---> [ -delayedRelease -low -voice ] /  _ #
p1672
sba(irule
Rule
p1673
(dp1674
g15
(irule
Guard
p1675
(dp1676
g18
I00
sg19
(lp1677
sg21
I00
sg22
V
sg23
I00
sg24
S'L'
sbsg25
(irule
FeatureMatrix
p1678
(dp1679
g28
(lp1680
(I00
g462
tp1681
asg22
V[ -voice ]
p1682
sbsg31
(irule
Guard
p1683
(dp1684
g18
I01
sg19
(lp1685
sg21
I00
sg22
V#
sg23
I00
sg24
S'R'
sbsg35
(irule
FeatureMatrix
p1686
(dp1687
g28
(lp1688
(I00
g471
tp1689
a(I00
g460
tp1690
a(I01
g462
tp1691
asg22
V[ +voice -sonorant -vowel ]
p1692
sbsg22
V[ +voice -sonorant -vowel ] ---> [ -voice ] /  _ #
p1693
sba(irule
Rule
p1694
(dp1695
g15
(irule
Guard
p1696
(dp1697
g18
I00
sg19
(lp1698
sg21
I00
sg22
V
sg23
I00
sg24
S'L'
sbsg25
(irule
FeatureMatrix
p1699
(dp1700
g28
(lp1701
(I00
g462
tp1702
asg22
V[ -voice ]
p1703
sbsg31
(irule
Guard
p1704
(dp1705
g18
I01
sg19
(lp1706
sg21
I00
sg22
V#
sg23
I00
sg24
S'R'
sbsg35
(irule
FeatureMatrix
p1707
(dp1708
g28
(lp1709
(I00
g471
tp1710
a(I00
g525
tp1711
a(I01
g462
tp1712
asg22
V[ +voice -low -sonorant ]
p1713
sbsg22
V[ +voice -low -sonorant ] ---> [ -voice ] /  _ #
p1714
sba(irule
Rule
p1715
(dp1716
g15
(irule
Guard
p1717
(dp1718
g18
I00
sg19
(lp1719
sg21
I00
sg22
V
sg23
I00
sg24
S'L'
sbsg25
(irule
FeatureMatrix
p1720
(dp1721
g28
(lp1722
(I00
g513
tp1723
a(I00
g462
tp1724
asg22
V[ -tense -voice ]
p1725
sbsg31
(irule
Guard
p1726
(dp1727
g18
I01
sg19
(lp1728
sg21
I00
sg22
V#
sg23
I00
sg24
S'R'
sbsg35
(irule
FeatureMatrix
p1729
(dp1730
g28
(lp1731
(I00
g471
tp1732
a(I00
g460
tp1733
asg22
V[ -sonorant -vowel ]
p1734
sbsg22
V[ -sonorant -vowel ] ---> [ -tense -voice ] /  _ #
p1735
sba(irule
Rule
p1736
(dp1737
g15
(irule
Guard
p1738
(dp1739
g18
I00
sg19
(lp1740
(irule
FeatureMatrix
p1741
(dp1742
g28
(lp1743
sg22
V[  ]
p1744
sbasg21
I00
sg22
g1744
sg23
I00
sg24
S'L'
sbsg25
(irule
FeatureMatrix
p1745
(dp1746
g28
(lp1747
(I00
g699
tp1748
a(I00
g462
tp1749
asg22
V[ -lateral -voice ]
p1750
sbsg31
(irule
Guard
p1751
(dp1752
g18
I01
sg19
(lp1753
sg21
I00
sg22
V#
sg23
I00
sg24
S'R'
sbsg35
(irule
FeatureMatrix
p1754
(dp1755
g28
(lp1756
(I00
g471
tp1757
asg22
V[ -sonorant ]
p1758
sbsg22
V[ -sonorant ] ---> [ -lateral -voice ] / [  ] _ #
p1759
sba(irule
Rule
p1760
(dp1761
g15
(irule
Guard
p1762
(dp1763
g18
I00
sg19
(lp1764
(irule
FeatureMatrix
p1765
(dp1766
g28
(lp1767
(I00
g590
tp1768
asg22
V[ -nasal ]
p1769
sbasg21
I00
sg22
g1769
sg23
I00
sg24
S'L'
sbsg25
(irule
FeatureMatrix
p1770
(dp1771
g28
(lp1772
(I00
g462
tp1773
asg22
V[ -voice ]
p1774
sbsg31
(irule
Guard
p1775
(dp1776
g18
I01
sg19
(lp1777
sg21
I00
sg22
V#
sg23
I00
sg24
S'R'
sbsg35
(irule
FeatureMatrix
p1778
(dp1779
g28
(lp1780
(I00
g471
tp1781
asg22
V[ -sonorant ]
p1782
sbsg22
V[ -sonorant ] ---> [ -voice ] / [ -nasal ] _ #
p1783
sba(irule
Rule
p1784
(dp1785
g15
(irule
Guard
p1786
(dp1787
g18
I00
sg19
(lp1788
sg21
I00
sg22
V
sg23
I00
sg24
S'L'
sbsg25
(irule
FeatureMatrix
p1789
(dp1790
g28
(lp1791
(I00
g483
tp1792
a(I00
g590
tp1793
a(I00
g462
tp1794
asg22
V[ -delayedRelease -nasal -voice ]
p1795
sbsg31
(irule
Guard
p1796
(dp1797
g18
I01
sg19
(lp1798
sg21
I00
sg22
V#
sg23
I00
sg24
S'R'
sbsg35
(irule
FeatureMatrix
p1799
(dp1800
g28
(lp1801
(I00
g471
tp1802
asg22
V[ -sonorant ]
p1803
sbsg22
V[ -sonorant ] ---> [ -delayedRelease -nasal -voice ] /  _ #
p1804
sba(irule
Rule
p1805
(dp1806
g15
(irule
Guard
p1807
(dp1808
g18
I00
sg19
(lp1809
(irule
FeatureMatrix
p1810
(dp1811
g28
(lp1812
sg22
V[  ]
p1813
sbasg21
I00
sg22
g1813
sg23
I00
sg24
S'L'
sbsg25
(irule
FeatureMatrix
p1814
(dp1815
g28
(lp1816
(I00
g462
tp1817
asg22
V[ -voice ]
p1818
sbsg31
(irule
Guard
p1819
(dp1820
g18
I01
sg19
(lp1821
sg21
I00
sg22
V#
sg23
I00
sg24
S'R'
sbsg35
(irule
FeatureMatrix
p1822
(dp1823
g28
(lp1824
(I00
g590
tp1825
a(I00
g471
tp1826
asg22
V[ -nasal -sonorant ]
p1827
sbsg22
V[ -nasal -sonorant ] ---> [ -voice ] / [  ] _ #
p1828
sba(irule
Rule
p1829
(dp1830
g15
(irule
Guard
p1831
(dp1832
g18
I00
sg19
(lp1833
(irule
FeatureMatrix
p1834
(dp1835
g28
(lp1836
sg22
V[  ]
p1837
sbasg21
I00
sg22
g1837
sg23
I00
sg24
S'L'
sbsg25
(irule
FeatureMatrix
p1838
(dp1839
g28
(lp1840
(I00
g462
tp1841
asg22
V[ -voice ]
p1842
sbsg31
(irule
Guard
p1843
(dp1844
g18
I01
sg19
(lp1845
sg21
I00
sg22
V#
sg23
I00
sg24
S'R'
sbsg35
(irule
FeatureMatrix
p1846
(dp1847
g28
(lp1848
(I00
g471
tp1849
a(I00
g712
tp1850
asg22
V[ -palletized -sonorant ]
p1851
sbsg22
V[ -palletized -sonorant ] ---> [ -voice ] / [  ] _ #
p1852
sba(irule
Rule
p1853
(dp1854
g15
(irule
Guard
p1855
(dp1856
g18
I00
sg19
(lp1857
sg21
I00
sg22
V
sg23
I00
sg24
S'L'
sbsg25
(irule
FeatureMatrix
p1858
(dp1859
g28
(lp1860
(I00
g525
tp1861
a(I00
g513
tp1862
a(I00
g462
tp1863
asg22
V[ -low -tense -voice ]
p1864
sbsg31
(irule
Guard
p1865
(dp1866
g18
I01
sg19
(lp1867
sg21
I00
sg22
V#
sg23
I00
sg24
S'R'
sbsg35
(irule
FeatureMatrix
p1868
(dp1869
g28
(lp1870
(I00
g471
tp1871
asg22
V[ -sonorant ]
p1872
sbsg22
V[ -sonorant ] ---> [ -low -tense -voice ] /  _ #
p1873
sba(irule
Rule
p1874
(dp1875
g15
(irule
Guard
p1876
(dp1877
g18
I00
sg19
(lp1878
sg21
I00
sg22
V
sg23
I00
sg24
S'L'
sbsg25
(irule
FeatureMatrix
p1879
(dp1880
g28
(lp1881
(I00
g712
tp1882
a(I00
g525
tp1883
a(I00
g462
tp1884
asg22
V[ -low -palletized -voice ]
p1885
sbsg31
(irule
Guard
p1886
(dp1887
g18
I01
sg19
(lp1888
sg21
I00
sg22
V#
sg23
I00
sg24
S'R'
sbsg35
(irule
FeatureMatrix
p1889
(dp1890
g28
(lp1891
(I00
g471
tp1892
asg22
V[ -sonorant ]
p1893
sbsg22
V[ -sonorant ] ---> [ -low -palletized -voice ] /  _ #
p1894
sba(irule
Rule
p1895
(dp1896
g15
(irule
Guard
p1897
(dp1898
g18
I00
sg19
(lp1899
sg21
I00
sg22
V
sg23
I00
sg24
S'L'
sbsg25
(irule
FeatureMatrix
p1900
(dp1901
g28
(lp1902
(I00
g577
tp1903
a(I00
g699
tp1904
a(I00
g462
tp1905
asg22
V[ -lateral -liquid -voice ]
p1906
sbsg31
(irule
Guard
p1907
(dp1908
g18
I01
sg19
(lp1909
sg21
I00
sg22
V#
sg23
I00
sg24
S'R'
sbsg35
(irule
FeatureMatrix
p1910
(dp1911
g28
(lp1912
(I00
g471
tp1913
asg22
V[ -sonorant ]
p1914
sbsg22
V[ -sonorant ] ---> [ -lateral -liquid -voice ] /  _ #
p1915
sba(irule
Rule
p1916
(dp1917
g15
(irule
Guard
p1918
(dp1919
g18
I00
sg19
(lp1920
(irule
FeatureMatrix
p1921
(dp1922
g28
(lp1923
(I00
S'anterior'
tp1924
asg22
V[ -anterior ]
p1925
sbasg21
I00
sg22
g1925
sg23
I00
sg24
S'L'
sbsg25
(irule
FeatureMatrix
p1926
(dp1927
g28
(lp1928
(I00
g462
tp1929
asg22
V[ -voice ]
p1930
sbsg31
(irule
Guard
p1931
(dp1932
g18
I01
sg19
(lp1933
sg21
I00
sg22
V#
sg23
I00
sg24
S'R'
sbsg35
(irule
FeatureMatrix
p1934
(dp1935
g28
(lp1936
(I00
g471
tp1937
asg22
V[ -sonorant ]
p1938
sbsg22
V[ -sonorant ] ---> [ -voice ] / [ -anterior ] _ #
p1939
sba(irule
Rule
p1940
(dp1941
g15
(irule
Guard
p1942
(dp1943
g18
I00
sg19
(lp1944
(irule
FeatureMatrix
p1945
(dp1946
g28
(lp1947
sg22
V[  ]
p1948
sbasg21
I00
sg22
g1948
sg23
I00
sg24
S'L'
sbsg25
(irule
FeatureMatrix
p1949
(dp1950
g28
(lp1951
(I00
g462
tp1952
asg22
V[ -voice ]
p1953
sbsg31
(irule
Guard
p1954
(dp1955
g18
I01
sg19
(lp1956
sg21
I00
sg22
V#
sg23
I00
sg24
S'R'
sbsg35
(irule
FeatureMatrix
p1957
(dp1958
g28
(lp1959
(I00
g471
tp1960
a(I00
g460
tp1961
asg22
V[ -sonorant -vowel ]
p1962
sbsg22
V[ -sonorant -vowel ] ---> [ -voice ] / [  ] _ #
p1963
sba(irule
Rule
p1964
(dp1965
g15
(irule
Guard
p1966
(dp1967
g18
I00
sg19
(lp1968
(irule
FeatureMatrix
p1969
(dp1970
g28
(lp1971
sg22
V[  ]
p1972
sbasg21
I00
sg22
g1972
sg23
I00
sg24
S'L'
sbsg25
(irule
FeatureMatrix
p1973
(dp1974
g28
(lp1975
(I00
g462
tp1976
asg22
V[ -voice ]
p1977
sbsg31
(irule
Guard
p1978
(dp1979
g18
I01
sg19
(lp1980
sg21
I00
sg22
V#
sg23
I00
sg24
S'R'
sbsg35
(irule
FeatureMatrix
p1981
(dp1982
g28
(lp1983
(I00
g471
tp1984
a(I00
g525
tp1985
asg22
V[ -low -sonorant ]
p1986
sbsg22
V[ -low -sonorant ] ---> [ -voice ] / [  ] _ #
p1987
sba(irule
Rule
p1988
(dp1989
g15
(irule
Guard
p1990
(dp1991
g18
I00
sg19
(lp1992
sg21
I00
sg22
V
sg23
I00
sg24
S'L'
sbsg25
(irule
FeatureMatrix
p1993
(dp1994
g28
(lp1995
(I00
g471
tp1996
a(I00
g460
tp1997
a(I00
g462
tp1998
asg22
V[ -sonorant -voice -vowel ]
p1999
sbsg31
(irule
Guard
p2000
(dp2001
g18
I01
sg19
(lp2002
sg21
I00
sg22
V#
sg23
I00
sg24
S'R'
sbsg35
(irule
FeatureMatrix
p2003
(dp2004
g28
(lp2005
(I00
g471
tp2006
asg22
V[ -sonorant ]
p2007
sbsg22
V[ -sonorant ] ---> [ -sonorant -voice -vowel ] /  _ #
p2008
sba(irule
Rule
p2009
(dp2010
g15
(irule
Guard
p2011
(dp2012
g18
I00
sg19
(lp2013
(irule
FeatureMatrix
p2014
(dp2015
g28
(lp2016
(I00
g699
tp2017
asg22
V[ -lateral ]
p2018
sbasg21
I00
sg22
g2018
sg23
I00
sg24
S'L'
sbsg25
(irule
FeatureMatrix
p2019
(dp2020
g28
(lp2021
(I00
g462
tp2022
asg22
V[ -voice ]
p2023
sbsg31
(irule
Guard
p2024
(dp2025
g18
I01
sg19
(lp2026
sg21
I00
sg22
V#
sg23
I00
sg24
S'R'
sbsg35
(irule
FeatureMatrix
p2027
(dp2028
g28
(lp2029
(I00
g471
tp2030
asg22
V[ -sonorant ]
p2031
sbsg22
V[ -sonorant ] ---> [ -voice ] / [ -lateral ] _ #
p2032
sba(irule
Rule
p2033
(dp2034
g15
(irule
Guard
p2035
(dp2036
g18
I00
sg19
(lp2037
sg21
I00
sg22
V
sg23
I00
sg24
S'L'
sbsg25
(irule
FeatureMatrix
p2038
(dp2039
g28
(lp2040
(I00
g462
tp2041
asg22
V[ -voice ]
p2042
sbsg31
(irule
Guard
p2043
(dp2044
g18
I01
sg19
(lp2045
sg21
I00
sg22
V#
sg23
I00
sg24
S'R'
sbsg35
(irule
FeatureMatrix
p2046
(dp2047
g28
(lp2048
(I00
g577
tp2049
a(I00
g590
tp2050
a(I00
g460
tp2051
asg22
V[ -liquid -nasal -vowel ]
p2052
sbsg22
V[ -liquid -nasal -vowel ] ---> [ -voice ] /  _ #
p2053
sba(irule
Rule
p2054
(dp2055
g15
(irule
Guard
p2056
(dp2057
g18
I00
sg19
(lp2058
(irule
FeatureMatrix
p2059
(dp2060
g28
(lp2061
(I00
g483
tp2062
asg22
V[ -delayedRelease ]
p2063
sbasg21
I00
sg22
g2063
sg23
I00
sg24
S'L'
sbsg25
(irule
FeatureMatrix
p2064
(dp2065
g28
(lp2066
(I00
g462
tp2067
asg22
V[ -voice ]
p2068
sbsg31
(irule
Guard
p2069
(dp2070
g18
I01
sg19
(lp2071
sg21
I00
sg22
V#
sg23
I00
sg24
S'R'
sbsg35
(irule
FeatureMatrix
p2072
(dp2073
g28
(lp2074
(I00
g471
tp2075
asg22
V[ -sonorant ]
p2076
sbsg22
V[ -sonorant ] ---> [ -voice ] / [ -delayedRelease ] _ #
p2077
sba(irule
Rule
p2078
(dp2079
g15
(irule
Guard
p2080
(dp2081
g18
I00
sg19
(lp2082
sg21
I00
sg22
V
sg23
I00
sg24
S'L'
sbsg25
(irule
FeatureMatrix
p2083
(dp2084
g28
(lp2085
(I00
g483
tp2086
a(I00
g471
tp2087
a(I00
g462
tp2088
asg22
V[ -delayedRelease -sonorant -voice ]
p2089
sbsg31
(irule
Guard
p2090
(dp2091
g18
I01
sg19
(lp2092
sg21
I00
sg22
V#
sg23
I00
sg24
S'R'
sbsg35
(irule
FeatureMatrix
p2093
(dp2094
g28
(lp2095
(I00
g471
tp2096
asg22
V[ -sonorant ]
p2097
sbsg22
V[ -sonorant ] ---> [ -delayedRelease -sonorant -voice ] /  _ #
p2098
sba(irule
Rule
p2099
(dp2100
g15
(irule
Guard
p2101
(dp2102
g18
I00
sg19
(lp2103
(irule
FeatureMatrix
p2104
(dp2105
g28
(lp2106
(I00
g577
tp2107
asg22
V[ -liquid ]
p2108
sbasg21
I00
sg22
g2108
sg23
I00
sg24
S'L'
sbsg25
(irule
FeatureMatrix
p2109
(dp2110
g28
(lp2111
(I00
g462
tp2112
asg22
V[ -voice ]
p2113
sbsg31
(irule
Guard
p2114
(dp2115
g18
I01
sg19
(lp2116
sg21
I00
sg22
V#
sg23
I00
sg24
S'R'
sbsg35
(irule
FeatureMatrix
p2117
(dp2118
g28
(lp2119
(I00
g471
tp2120
asg22
V[ -sonorant ]
p2121
sbsg22
V[ -sonorant ] ---> [ -voice ] / [ -liquid ] _ #
p2122
sba(irule
Rule
p2123
(dp2124
g15
(irule
Guard
p2125
(dp2126
g18
I00
sg19
(lp2127
(irule
FeatureMatrix
p2128
(dp2129
g28
(lp2130
sg22
V[  ]
p2131
sbasg21
I00
sg22
g2131
sg23
I00
sg24
S'L'
sbsg25
(irule
FeatureMatrix
p2132
(dp2133
g28
(lp2134
(I00
g483
tp2135
a(I00
g462
tp2136
asg22
V[ -delayedRelease -voice ]
p2137
sbsg31
(irule
Guard
p2138
(dp2139
g18
I01
sg19
(lp2140
sg21
I00
sg22
V#
sg23
I00
sg24
S'R'
sbsg35
(irule
FeatureMatrix
p2141
(dp2142
g28
(lp2143
(I00
g471
tp2144
asg22
V[ -sonorant ]
p2145
sbsg22
V[ -sonorant ] ---> [ -delayedRelease -voice ] / [  ] _ #
p2146
sba(irule
Rule
p2147
(dp2148
g15
(irule
Guard
p2149
(dp2150
g18
I00
sg19
(lp2151
sg21
I00
sg22
V
sg23
I00
sg24
S'L'
sbsg25
(irule
FeatureMatrix
p2152
(dp2153
g28
(lp2154
(I00
g462
tp2155
asg22
V[ -voice ]
p2156
sbsg31
(irule
Guard
p2157
(dp2158
g18
I01
sg19
(lp2159
sg21
I00
sg22
V#
sg23
I00
sg24
S'R'
sbsg35
(irule
FeatureMatrix
p2160
(dp2161
g28
(lp2162
(I00
g471
tp2163
a(I00
g460
tp2164
a(I00
g513
tp2165
asg22
V[ -sonorant -tense -vowel ]
p2166
sbsg22
V[ -sonorant -tense -vowel ] ---> [ -voice ] /  _ #
p2167
sba(irule
Rule
p2168
(dp2169
g15
(irule
Guard
p2170
(dp2171
g18
I00
sg19
(lp2172
(irule
FeatureMatrix
p2173
(dp2174
g28
(lp2175
sg22
V[  ]
p2176
sbasg21
I00
sg22
g2176
sg23
I00
sg24
S'L'
sbsg25
(irule
FeatureMatrix
p2177
(dp2178
g28
(lp2179
(I00
g462
tp2180
asg22
V[ -voice ]
p2181
sbsg31
(irule
Guard
p2182
(dp2183
g18
I01
sg19
(lp2184
sg21
I00
sg22
V#
sg23
I00
sg24
S'R'
sbsg35
(irule
FeatureMatrix
p2185
(dp2186
g28
(lp2187
(I00
g699
tp2188
a(I00
g471
tp2189
asg22
V[ -lateral -sonorant ]
p2190
sbsg22
V[ -lateral -sonorant ] ---> [ -voice ] / [  ] _ #
p2191
sba(irule
Rule
p2192
(dp2193
g15
(irule
Guard
p2194
(dp2195
g18
I00
sg19
(lp2196
sg21
I00
sg22
V
sg23
I00
sg24
S'L'
sbsg25
(irule
FeatureMatrix
p2197
(dp2198
g28
(lp2199
(I00
g462
tp2200
asg22
V[ -voice ]
p2201
sbsg31
(irule
Guard
p2202
(dp2203
g18
I01
sg19
(lp2204
sg21
I00
sg22
V#
sg23
I00
sg24
S'R'
sbsg35
(irule
FeatureMatrix
p2205
(dp2206
g28
(lp2207
(I00
g471
tp2208
a(I00
g712
tp2209
a(I00
g525
tp2210
asg22
V[ -low -palletized -sonorant ]
p2211
sbsg22
V[ -low -palletized -sonorant ] ---> [ -voice ] /  _ #
p2212
sba(irule
Rule
p2213
(dp2214
g15
(irule
Guard
p2215
(dp2216
g18
I00
sg19
(lp2217
(irule
FeatureMatrix
p2218
(dp2219
g28
(lp2220
(I01
g471
tp2221
asg22
V[ +sonorant ]
p2222
sbasg21
I00
sg22
g2222
sg23
I00
sg24
S'L'
sbsg25
(irule
FeatureMatrix
p2223
(dp2224
g28
(lp2225
(I00
g462
tp2226
asg22
V[ -voice ]
p2227
sbsg31
(irule
Guard
p2228
(dp2229
g18
I01
sg19
(lp2230
sg21
I00
sg22
V#
sg23
I00
sg24
S'R'
sbsg35
(irule
FeatureMatrix
p2231
(dp2232
g28
(lp2233
(I00
g471
tp2234
asg22
V[ -sonorant ]
p2235
sbsg22
V[ -sonorant ] ---> [ -voice ] / [ +sonorant ] _ #
p2236
sba(irule
Rule
p2237
(dp2238
g15
(irule
Guard
p2239
(dp2240
g18
I00
sg19
(lp2241
(irule
FeatureMatrix
p2242
(dp2243
g28
(lp2244
(I01
S'continuant'
tp2245
asg22
V[ +continuant ]
p2246
sbasg21
I00
sg22
g2246
sg23
I00
sg24
S'L'
sbsg25
(irule
FeatureMatrix
p2247
(dp2248
g28
(lp2249
(I00
g462
tp2250
asg22
V[ -voice ]
p2251
sbsg31
(irule
Guard
p2252
(dp2253
g18
I01
sg19
(lp2254
sg21
I00
sg22
V#
sg23
I00
sg24
S'R'
sbsg35
(irule
FeatureMatrix
p2255
(dp2256
g28
(lp2257
(I00
g471
tp2258
asg22
V[ -sonorant ]
p2259
sbsg22
V[ -sonorant ] ---> [ -voice ] / [ +continuant ] _ #
p2260
sba(irule
Rule
p2261
(dp2262
g15
(irule
Guard
p2263
(dp2264
g18
I00
sg19
(lp2265
sg21
I00
sg22
V
sg23
I00
sg24
S'L'
sbsg25
(irule
FeatureMatrix
p2266
(dp2267
g28
(lp2268
(I00
g462
tp2269
asg22
V[ -voice ]
p2270
sbsg31
(irule
Guard
p2271
(dp2272
g18
I01
sg19
(lp2273
sg21
I00
sg22
V#
sg23
I00
sg24
S'R'
sbsg35
(irule
FeatureMatrix
p2274
(dp2275
g28
(lp2276
(I00
g577
tp2277
a(I00
g590
tp2278
a(I00
g525
tp2279
asg22
V[ -liquid -low -nasal ]
p2280
sbsg22
V[ -liquid -low -nasal ] ---> [ -voice ] /  _ #
p2281
sba(irule
Rule
p2282
(dp2283
g15
(irule
Guard
p2284
(dp2285
g18
I00
sg19
(lp2286
(irule
FeatureMatrix
p2287
(dp2288
g28
(lp2289
sg22
V[  ]
p2290
sbasg21
I00
sg22
g2290
sg23
I00
sg24
S'L'
sbsg25
(irule
FeatureMatrix
p2291
(dp2292
g28
(lp2293
(I00
g462
tp2294
asg22
V[ -voice ]
p2295
sbsg31
(irule
Guard
p2296
(dp2297
g18
I01
sg19
(lp2298
sg21
I00
sg22
V#
sg23
I00
sg24
S'R'
sbsg35
(irule
FeatureMatrix
p2299
(dp2300
g28
(lp2301
(I00
g733
tp2302
a(I00
g471
tp2303
asg22
V[ -rounded -sonorant ]
p2304
sbsg22
V[ -rounded -sonorant ] ---> [ -voice ] / [  ] _ #
p2305
sba(irule
Rule
p2306
(dp2307
g15
(irule
Guard
p2308
(dp2309
g18
I00
sg19
(lp2310
(irule
FeatureMatrix
p2311
(dp2312
g28
(lp2313
sg22
V[  ]
p2314
sbasg21
I00
sg22
g2314
sg23
I00
sg24
S'L'
sbsg25
(irule
FeatureMatrix
p2315
(dp2316
g28
(lp2317
(I00
g462
tp2318
asg22
V[ -voice ]
p2319
sbsg31
(irule
Guard
p2320
(dp2321
g18
I01
sg19
(lp2322
sg21
I00
sg22
V#
sg23
I00
sg24
S'R'
sbsg35
(irule
FeatureMatrix
p2323
(dp2324
g28
(lp2325
(I00
g483
tp2326
a(I00
g471
tp2327
asg22
V[ -delayedRelease -sonorant ]
p2328
sbsg22
V[ -delayedRelease -sonorant ] ---> [ -voice ] / [  ] _ #
p2329
sba(irule
Rule
p2330
(dp2331
g15
(irule
Guard
p2332
(dp2333
g18
I00
sg19
(lp2334
sg21
I00
sg22
V
sg23
I00
sg24
S'L'
sbsg25
(irule
FeatureMatrix
p2335
(dp2336
g28
(lp2337
(I00
g483
tp2338
a(I00
g699
tp2339
a(I00
g462
tp2340
asg22
V[ -delayedRelease -lateral -voice ]
p2341
sbsg31
(irule
Guard
p2342
(dp2343
g18
I01
sg19
(lp2344
sg21
I00
sg22
V#
sg23
I00
sg24
S'R'
sbsg35
(irule
FeatureMatrix
p2345
(dp2346
g28
(lp2347
(I00
g471
tp2348
asg22
V[ -sonorant ]
p2349
sbsg22
V[ -sonorant ] ---> [ -delayedRelease -lateral -voice ] /  _ #
p2350
sba(irule
Rule
p2351
(dp2352
g15
(irule
Guard
p2353
(dp2354
g18
I00
sg19
(lp2355
sg21
I00
sg22
V
sg23
I00
sg24
S'L'
sbsg25
(irule
FeatureMatrix
p2356
(dp2357
g28
(lp2358
(I00
g462
tp2359
asg22
V[ -voice ]
p2360
sbsg31
(irule
Guard
p2361
(dp2362
g18
I01
sg19
(lp2363
sg21
I00
sg22
V#
sg23
I00
sg24
S'R'
sbsg35
(irule
FeatureMatrix
p2364
(dp2365
g28
(lp2366
(I00
g733
tp2367
a(I00
g590
tp2368
a(I00
g471
tp2369
asg22
V[ -nasal -rounded -sonorant ]
p2370
sbsg22
V[ -nasal -rounded -sonorant ] ---> [ -voice ] /  _ #
p2371
sba(irule
Rule
p2372
(dp2373
g15
(irule
Guard
p2374
(dp2375
g18
I00
sg19
(lp2376
sg21
I00
sg22
V
sg23
I00
sg24
S'L'
sbsg25
(irule
FeatureMatrix
p2377
(dp2378
g28
(lp2379
(I00
g733
tp2380
a(I00
g699
tp2381
a(I00
g462
tp2382
asg22
V[ -lateral -rounded -voice ]
p2383
sbsg31
(irule
Guard
p2384
(dp2385
g18
I01
sg19
(lp2386
sg21
I00
sg22
V#
sg23
I00
sg24
S'R'
sbsg35
(irule
FeatureMatrix
p2387
(dp2388
g28
(lp2389
(I00
g471
tp2390
asg22
V[ -sonorant ]
p2391
sbsg22
V[ -sonorant ] ---> [ -lateral -rounded -voice ] /  _ #
p2392
sba(irule
Rule
p2393
(dp2394
g15
(irule
Guard
p2395
(dp2396
g18
I00
sg19
(lp2397
sg21
I00
sg22
V
sg23
I00
sg24
S'L'
sbsg25
(irule
FeatureMatrix
p2398
(dp2399
g28
(lp2400
(I00
g699
tp2401
a(I00
g462
tp2402
asg22
V[ -lateral -voice ]
p2403
sbsg31
(irule
Guard
p2404
(dp2405
g18
I01
sg19
(lp2406
sg21
I00
sg22
V#
sg23
I00
sg24
S'R'
sbsg35
(irule
FeatureMatrix
p2407
(dp2408
g28
(lp2409
(I00
g590
tp2410
a(I00
g471
tp2411
asg22
V[ -nasal -sonorant ]
p2412
sbsg22
V[ -nasal -sonorant ] ---> [ -lateral -voice ] /  _ #
p2413
sba(irule
Rule
p2414
(dp2415
g15
(irule
Guard
p2416
(dp2417
g18
I00
sg19
(lp2418
sg21
I00
sg22
V
sg23
I00
sg24
S'L'
sbsg25
(irule
FeatureMatrix
p2419
(dp2420
g28
(lp2421
(I00
g462
tp2422
asg22
V[ -voice ]
p2423
sbsg31
(irule
Guard
p2424
(dp2425
g18
I01
sg19
(lp2426
sg21
I00
sg22
V#
sg23
I00
sg24
S'R'
sbsg35
(irule
FeatureMatrix
p2427
(dp2428
g28
(lp2429
(I00
g471
tp2430
a(I00
g525
tp2431
a(I00
g460
tp2432
asg22
V[ -low -sonorant -vowel ]
p2433
sbsg22
V[ -low -sonorant -vowel ] ---> [ -voice ] /  _ #
p2434
sba(irule
Rule
p2435
(dp2436
g15
(irule
Guard
p2437
(dp2438
g18
I00
sg19
(lp2439
(irule
FeatureMatrix
p2440
(dp2441
g28
(lp2442
sg22
V[  ]
p2443
sbasg21
I00
sg22
g2443
sg23
I00
sg24
S'L'
sbsg25
(irule
FeatureMatrix
p2444
(dp2445
g28
(lp2446
(I00
g577
tp2447
a(I00
g462
tp2448
asg22
V[ -liquid -voice ]
p2449
sbsg31
(irule
Guard
p2450
(dp2451
g18
I01
sg19
(lp2452
sg21
I00
sg22
V#
sg23
I00
sg24
S'R'
sbsg35
(irule
FeatureMatrix
p2453
(dp2454
g28
(lp2455
(I00
g471
tp2456
asg22
V[ -sonorant ]
p2457
sbsg22
V[ -sonorant ] ---> [ -liquid -voice ] / [  ] _ #
p2458
sba(irule
Rule
p2459
(dp2460
g15
(irule
Guard
p2461
(dp2462
g18
I00
sg19
(lp2463
sg21
I00
sg22
V
sg23
I00
sg24
S'L'
sbsg25
(irule
FeatureMatrix
p2464
(dp2465
g28
(lp2466
(I00
g712
tp2467
a(I00
g513
tp2468
a(I00
g462
tp2469
asg22
V[ -palletized -tense -voice ]
p2470
sbsg31
(irule
Guard
p2471
(dp2472
g18
I01
sg19
(lp2473
sg21
I00
sg22
V#
sg23
I00
sg24
S'R'
sbsg35
(irule
FeatureMatrix
p2474
(dp2475
g28
(lp2476
(I00
g471
tp2477
asg22
V[ -sonorant ]
p2478
sbsg22
V[ -sonorant ] ---> [ -palletized -tense -voice ] /  _ #
p2479
sba(irule
Rule
p2480
(dp2481
g15
(irule
Guard
p2482
(dp2483
g18
I00
sg19
(lp2484
sg21
I00
sg22
V
sg23
I00
sg24
S'L'
sbsg25
(irule
FeatureMatrix
p2485
(dp2486
g28
(lp2487
(I00
g462
tp2488
asg22
V[ -voice ]
p2489
sbsg31
(irule
Guard
p2490
(dp2491
g18
I01
sg19
(lp2492
sg21
I00
sg22
V#
sg23
I00
sg24
S'R'
sbsg35
(irule
FeatureMatrix
p2493
(dp2494
g28
(lp2495
(I00
g577
tp2496
a(I00
g471
tp2497
a(I00
g513
tp2498
asg22
V[ -liquid -sonorant -tense ]
p2499
sbsg22
V[ -liquid -sonorant -tense ] ---> [ -voice ] /  _ #
p2500
sba(irule
Rule
p2501
(dp2502
g15
(irule
Guard
p2503
(dp2504
g18
I00
sg19
(lp2505
sg21
I00
sg22
V
sg23
I00
sg24
S'L'
sbsg25
(irule
FeatureMatrix
p2506
(dp2507
g28
(lp2508
(I00
g699
tp2509
a(I00
g590
tp2510
a(I00
g462
tp2511
asg22
V[ -lateral -nasal -voice ]
p2512
sbsg31
(irule
Guard
p2513
(dp2514
g18
I01
sg19
(lp2515
sg21
I00
sg22
V#
sg23
I00
sg24
S'R'
sbsg35
(irule
FeatureMatrix
p2516
(dp2517
g28
(lp2518
(I00
g471
tp2519
asg22
V[ -sonorant ]
p2520
sbsg22
V[ -sonorant ] ---> [ -lateral -nasal -voice ] /  _ #
p2521
sba(irule
Rule
p2522
(dp2523
g15
(irule
Guard
p2524
(dp2525
g18
I00
sg19
(lp2526
(irule
FeatureMatrix
p2527
(dp2528
g28
(lp2529
sg22
V[  ]
p2530
sbasg21
I00
sg22
g2530
sg23
I00
sg24
S'L'
sbsg25
(irule
FeatureMatrix
p2531
(dp2532
g28
(lp2533
(I00
g733
tp2534
a(I00
g462
tp2535
asg22
V[ -rounded -voice ]
p2536
sbsg31
(irule
Guard
p2537
(dp2538
g18
I01
sg19
(lp2539
sg21
I00
sg22
V#
sg23
I00
sg24
S'R'
sbsg35
(irule
FeatureMatrix
p2540
(dp2541
g28
(lp2542
(I00
g471
tp2543
asg22
V[ -sonorant ]
p2544
sbsg22
V[ -sonorant ] ---> [ -rounded -voice ] / [  ] _ #
p2545
sba(irule
Rule
p2546
(dp2547
g15
(irule
Guard
p2548
(dp2549
g18
I00
sg19
(lp2550
sg21
I00
sg22
V
sg23
I00
sg24
S'L'
sbsg25
(irule
FeatureMatrix
p2551
(dp2552
g28
(lp2553
(I00
g462
tp2554
asg22
V[ -voice ]
p2555
sbsg31
(irule
Guard
p2556
(dp2557
g18
I01
sg19
(lp2558
sg21
I00
sg22
V#
sg23
I00
sg24
S'R'
sbsg35
(irule
FeatureMatrix
p2559
(dp2560
g28
(lp2561
(I00
g733
tp2562
a(I00
g471
tp2563
a(I01
g462
tp2564
asg22
V[ +voice -rounded -sonorant ]
p2565
sbsg22
V[ +voice -rounded -sonorant ] ---> [ -voice ] /  _ #
p2566
sba(irule
Rule
p2567
(dp2568
g15
(irule
Guard
p2569
(dp2570
g18
I00
sg19
(lp2571
sg21
I00
sg22
V
sg23
I00
sg24
S'L'
sbsg25
(irule
FeatureMatrix
p2572
(dp2573
g28
(lp2574
(I00
g699
tp2575
a(I00
g712
tp2576
a(I00
g462
tp2577
asg22
V[ -lateral -palletized -voice ]
p2578
sbsg31
(irule
Guard
p2579
(dp2580
g18
I01
sg19
(lp2581
sg21
I00
sg22
V#
sg23
I00
sg24
S'R'
sbsg35
(irule
FeatureMatrix
p2582
(dp2583
g28
(lp2584
(I00
g471
tp2585
asg22
V[ -sonorant ]
p2586
sbsg22
V[ -sonorant ] ---> [ -lateral -palletized -voice ] /  _ #
p2587
sba(irule
Rule
p2588
(dp2589
g15
(irule
Guard
p2590
(dp2591
g18
I00
sg19
(lp2592
sg21
I00
sg22
V
sg23
I00
sg24
S'L'
sbsg25
(irule
FeatureMatrix
p2593
(dp2594
g28
(lp2595
(I00
g577
tp2596
a(I00
g712
tp2597
a(I00
g462
tp2598
asg22
V[ -liquid -palletized -voice ]
p2599
sbsg31
(irule
Guard
p2600
(dp2601
g18
I01
sg19
(lp2602
sg21
I00
sg22
V#
sg23
I00
sg24
S'R'
sbsg35
(irule
FeatureMatrix
p2603
(dp2604
g28
(lp2605
(I00
g471
tp2606
asg22
V[ -sonorant ]
p2607
sbsg22
V[ -sonorant ] ---> [ -liquid -palletized -voice ] /  _ #
p2608
sba(irule
Rule
p2609
(dp2610
g15
(irule
Guard
p2611
(dp2612
g18
I00
sg19
(lp2613
sg21
I00
sg22
V
sg23
I00
sg24
S'L'
sbsg25
(irule
FeatureMatrix
p2614
(dp2615
g28
(lp2616
(I00
g699
tp2617
a(I00
g462
tp2618
asg22
V[ -lateral -voice ]
p2619
sbsg31
(irule
Guard
p2620
(dp2621
g18
I01
sg19
(lp2622
sg21
I00
sg22
V#
sg23
I00
sg24
S'R'
sbsg35
(irule
FeatureMatrix
p2623
(dp2624
g28
(lp2625
(I00
g577
tp2626
a(I00
g471
tp2627
asg22
V[ -liquid -sonorant ]
p2628
sbsg22
V[ -liquid -sonorant ] ---> [ -lateral -voice ] /  _ #
p2629
sbaasbsS'parameters'
p2630
g6
(cargparse
Namespace
p2631
g8
NtRp2632
(dp2633
S'restore'
p2634
NsS'features'
p2635
S'sophisticated'
p2636
sS'universal'
p2637
NsS'restrict'
p2638
NsS'seed'
p2639
NsS'serial'
p2640
I00
sS'cv'
p2641
I00
sS'alignment'
p2642
I00
sS'top'
p2643
I100
sS'maximumDepth'
p2644
I3
sS'window'
p2645
NsS'minimizeBits'
p2646
I5
sS'samples'
p2647
I30
sS'save'
p2648
NsS'resume'
p2649
I00
sS'disableClean'
p2650
I00
sS'stemBaseline'
p2651
I30
sS'dummy'
p2652
I00
sS'task'
p2653
S'incremental'
p2654
sS'geometry'
p2655
I01
sS'verbosity'
p2656
I0
sS'noConstant'
p2657
I00
sS'timeout'
p2658
F24
sS'debug'
p2659
NsS'cores'
p2660
I48
sg424
S'Odden_68_69_Russian'
p2661
sS'mergeFrontiers'
p2662
I00
sbsb.